(lp0
((lp1
F0.0
aF0.0
aF0.0
aF0.0
aF0.0
aF0.0
aF0.0
aF0.0
aF0.0
aF0.0
aF0.0
aF0.0
aF0.0
aF0.0
aF0.0
aF-0.04757030546344664
aF1.0160698964813653
aF-1.5658900510525433
aF1.988532648692838
aF-2.1592964268974164
aF0.0
aF1.5890056931402412
aF-1.2211556003995911
aF0.0
aF0.0
aF0.0
aF0.0
aF0.0
aF0.0
aF0.0
aF0.0
aF0.0
aF0.0
aF0.0
aF0.0
aF0.5575846958729246
aF-0.18301664957521926
aF-0.3503527801203711
aF1.2201777887801728
aF-2.5444446460404717
aF0.0
aF-0.6355131449294558
aF2.4021657270914827
aF0.0
aF0.0
aF0.0
aF0.0
aF0.0
aF0.0
aF0.0
aF0.0
aF0.0
aF0.0
aF0.0
aF0.0
aF0.0
aF0.0
aF0.0
aF0.0
aF0.03
aF-0.03
aI0
tp2
a((lp3
F0.0
aF0.0
aF0.0
aF0.0
aF0.0
aF0.0
aF0.0
aF0.0
aF0.0
aF0.0
aF0.0
aF0.0
aF0.0
aF0.0
aF0.0
aF-0.04756640555978063
aF1.015927273063684
aF-1.565813182092899
aF1.9885353875902958
aF-2.159398330094245
aF0.0
aF1.5891096450105417
aF-1.2212249825028814
aF0.0
aF0.0
aF0.0
aF0.0
aF0.0
aF0.0
aF0.0
aF0.0
aF0.0
aF0.0
aF0.0
aF0.0
aF0.5575846958729246
aF-0.18301664957521926
aF-0.3503527801203711
aF1.2201777887801728
aF-2.5444446460404717
aF0.0
aF-0.6355131449294558
aF2.4021657270914827
aF0.0
aF0.0
aF0.0
aF0.0
aF0.0
aF0.0
aF0.0
aF0.0
aF0.0
aF0.0
aF0.0
aF0.0
aF0.0
aF0.0
aF0.0
aF0.0
aF0.03
aF-0.03
aI0
tp4
a((lp5
F0.0
aF0.0
aF0.0
aF0.0
aF0.0
aF0.0
aF0.0
aF0.0
aF0.0
aF0.0
aF0.0
aF0.0
aF0.0
aF0.0
aF0.0
aF-0.047223732628577764
aF1.0007023425555224
aF-1.5576813951102995
aF1.9888732960107698
aF-2.170335821115185
aF0.0
aF1.6001638363660218
aF-1.2286583297103444
aF0.0
aF0.0
aF0.0
aF0.0
aF0.0
aF0.0
aF0.0
aF0.0
aF0.0
aF0.0
aF0.0
aF0.0
aF0.5575846958729246
aF-0.18301664957521926
aF-0.3503527801203711
aF1.2201777887801728
aF-2.5444446460404717
aF0.0
aF-0.6355131449294558
aF2.4021657270914827
aF0.0
aF0.0
aF0.0
aF0.0
aF0.0
aF0.0
aF0.0
aF0.0
aF0.0
aF0.0
aF0.0
aF0.0
aF0.0
aF0.0
aF0.0
aF0.0
aF0.03
aF-0.03
aI0
tp6
a((lp7
F0.0
aF0.0
aF0.0
aF0.0
aF0.0
aF0.0
aF0.0
aF0.0
aF0.0
aF0.0
aF0.0
aF0.0
aF0.0
aF0.0
aF0.0
aF-0.04719954039935665
aF0.9995516893468289
aF-1.557068004190182
aF1.9889054031427253
aF-2.171165249429111
aF0.0
aF1.6009970265537883
aF-1.2292240435172663
aF0.0
aF0.0
aF0.0
aF0.0
aF0.0
aF0.0
aF0.0
aF0.0
aF0.0
aF0.0
aF0.0
aF0.0
aF0.5575846958729246
aF-0.18301664957521926
aF-0.3503527801203711
aF1.2201777887801728
aF-2.5444446460404717
aF0.0
aF-0.6355131449294558
aF2.4021657270914827
aF0.0
aF0.0
aF0.0
aF0.0
aF0.0
aF0.0
aF0.0
aF0.0
aF0.0
aF0.0
aF0.0
aF0.0
aF0.0
aF0.0
aF0.0
aF0.0
aF0.03
aF-0.03
aI0
tp8
a.