((lp0
F0.0
aF0.0
aF0.0
aF0.0
aF0.0
aF0.0
aF0.0
aF0.0
aF0.0
aF0.0
aF0.0
aF0.0
aF0.0
aF0.0
aF0.0
aF1.2189613159169488
aF0.3054526709587345
aF-1.838382073717841
aF2.2521294580418965
aF2.804174634411996
aF0.0
aF0.798743704450658
aF-1.0031676847150677
aF0.0
aF0.0
aF0.0
aF0.0
aF0.0
aF0.0
aF0.0
aF0.0
aF0.0
aF0.0
aF0.0
aF0.0
aF-0.012839204326663634
aF-0.1102478188269238
aF0.5699501436065937
aF1.1494444162971922
aF-0.8806489716171404
aF0.0
aF0.7671168181591828
aF-0.012164084921415075
aF0.0
aF0.0
aF0.0
aF0.0
aF0.0
aF0.0
aF0.0
aF0.0
aF0.0
aF0.0
aF0.0
aF0.0
aF0.0
aF0.0
aF0.0
aF0.0
aF0.0
aF0.0
aI0
tp1
.