(lp0
((lp1
F0.0
aF0.0
aF0.0
aF0.0
aF0.0
aF0.0
aF0.0
aF0.0
aF0.0
aF0.0
aF0.0
aF0.0
aF0.0
aF0.0
aF0.0
aF1.2101193790068758
aF1.024414869190767
aF-0.7102543714415913
aF1.6981024539204048
aF1.4167177572185903
aF0.0
aF-0.9598062941568166
aF1.2194912576523267
aF0.0
aF0.0
aF0.0
aF0.0
aF0.0
aF0.0
aF0.0
aF0.0
aF0.0
aF0.0
aF0.0
aF0.0
aF-0.09743232426297727
aF-0.06395408774257588
aF0.6947213196471855
aF1.1738063698988135
aF-1.058452056805614
aF0.0
aF0.8197631123141698
aF0.06433378511636345
aF0.0
aF0.0
aF0.0
aF0.0
aF0.0
aF0.0
aF0.0
aF0.0
aF0.0
aF0.0
aF0.0
aF0.0
aF0.0
aF0.0
aF0.0
aF0.0
aF0.03
aF-0.03
aI0
tp2
a((lp3
F0.0
aF0.0
aF0.0
aF0.0
aF0.0
aF0.0
aF0.0
aF0.0
aF0.0
aF0.0
aF0.0
aF0.0
aF0.0
aF0.0
aF0.0
aF1.210132133436901
aF1.024422117704893
aF-0.7102520689222972
aF1.6981016334030237
aF1.4167249519951277
aF0.0
aF-0.9597955633427402
aF1.219494062629019
aF0.0
aF0.0
aF0.0
aF0.0
aF0.0
aF0.0
aF0.0
aF0.0
aF0.0
aF0.0
aF0.0
aF0.0
aF-0.09743232426297727
aF-0.06395408774257588
aF0.6947213196471855
aF1.1738063698988135
aF-1.058452056805614
aF0.0
aF0.8197631123141698
aF0.06433378511636345
aF0.0
aF0.0
aF0.0
aF0.0
aF0.0
aF0.0
aF0.0
aF0.0
aF0.0
aF0.0
aF0.0
aF0.0
aF0.0
aF0.0
aF0.0
aF0.0
aF0.03
aF-0.03
aI0
tp4
a((lp5
F0.0
aF0.0
aF0.0
aF0.0
aF0.0
aF0.0
aF0.0
aF0.0
aF0.0
aF0.0
aF0.0
aF0.0
aF0.0
aF0.0
aF0.0
aF1.2104259977871838
aF1.0245939884145292
aF-0.7101974431151684
aF1.6980346146802179
aF1.4169321079395365
aF0.0
aF-0.9596082014478864
aF1.2194732581559369
aF0.0
aF0.0
aF0.0
aF0.0
aF0.0
aF0.0
aF0.0
aF0.0
aF0.0
aF0.0
aF0.0
aF0.0
aF-0.09743232426297727
aF-0.06395408774257588
aF0.6947213196471855
aF1.1738063698988135
aF-1.058452056805614
aF0.0
aF0.8197631123141698
aF0.06433378511636345
aF0.0
aF0.0
aF0.0
aF0.0
aF0.0
aF0.0
aF0.0
aF0.0
aF0.0
aF0.0
aF0.0
aF0.0
aF0.0
aF0.0
aF0.0
aF0.0
aF0.03
aF-0.03
aI0
tp6
a((lp7
F0.0
aF0.0
aF0.0
aF0.0
aF0.0
aF0.0
aF0.0
aF0.0
aF0.0
aF0.0
aF0.0
aF0.0
aF0.0
aF0.0
aF0.0
aF1.210808467962499
aF1.024809433011782
aF-0.7101242339179554
aF1.6979757553832802
aF1.417189874515928
aF0.0
aF-0.9593213309998248
aF1.219483358410874
aF0.0
aF0.0
aF0.0
aF0.0
aF0.0
aF0.0
aF0.0
aF0.0
aF0.0
aF0.0
aF0.0
aF0.0
aF-0.09743232426297727
aF-0.06395408774257588
aF0.6947213196471855
aF1.1738063698988135
aF-1.058452056805614
aF0.0
aF0.8197631123141698
aF0.06433378511636345
aF0.0
aF0.0
aF0.0
aF0.0
aF0.0
aF0.0
aF0.0
aF0.0
aF0.0
aF0.0
aF0.0
aF0.0
aF0.0
aF0.0
aF0.0
aF0.0
aF0.03
aF-0.03
aI0
tp8
a((lp9
F0.0
aF0.0
aF0.0
aF0.0
aF0.0
aF0.0
aF0.0
aF0.0
aF0.0
aF0.0
aF0.0
aF0.0
aF0.0
aF0.0
aF0.0
aF1.2108714285823954
aF1.0248460085332072
aF-0.710113283115301
aF1.6979722324207496
aF1.4172239677685932
aF0.0
aF-0.9592672636389964
aF1.2195000328513648
aF0.0
aF0.0
aF0.0
aF0.0
aF0.0
aF0.0
aF0.0
aF0.0
aF0.0
aF0.0
aF0.0
aF0.0
aF-0.09743232426297727
aF-0.06395408774257588
aF0.6947213196471855
aF1.1738063698988135
aF-1.058452056805614
aF0.0
aF0.8197631123141698
aF0.06433378511636345
aF0.0
aF0.0
aF0.0
aF0.0
aF0.0
aF0.0
aF0.0
aF0.0
aF0.0
aF0.0
aF0.0
aF0.0
aF0.0
aF0.0
aF0.0
aF0.0
aF0.03
aF-0.03
aI0
tp10
a((lp11
F0.0
aF0.0
aF0.0
aF0.0
aF0.0
aF0.0
aF0.0
aF0.0
aF0.0
aF0.0
aF0.0
aF0.0
aF0.0
aF0.0
aF0.0
aF1.2111096027595558
aF1.0249830470874892
aF-0.7100699234253972
aF1.697954673966076
aF1.417359120686688
aF0.0
aF-0.9590698671440527
aF1.2195513863240748
aF0.0
aF0.0
aF0.0
aF0.0
aF0.0
aF0.0
aF0.0
aF0.0
aF0.0
aF0.0
aF0.0
aF0.0
aF-0.09743232426297727
aF-0.06395408774257588
aF0.6947213196471855
aF1.1738063698988135
aF-1.058452056805614
aF0.0
aF0.8197631123141698
aF0.06433378511636345
aF0.0
aF0.0
aF0.0
aF0.0
aF0.0
aF0.0
aF0.0
aF0.0
aF0.0
aF0.0
aF0.0
aF0.0
aF0.0
aF0.0
aF0.0
aF0.0
aF0.03
aF-0.03
aI0
tp12
a((lp13
F0.0
aF0.0
aF0.0
aF0.0
aF0.0
aF0.0
aF0.0
aF0.0
aF0.0
aF0.0
aF0.0
aF0.0
aF0.0
aF0.0
aF0.0
aF1.2111113311847557
aF1.0249840241296995
aF-0.710069569714567
aF1.6979545640444662
aF1.4173601285149509
aF0.0
aF-0.9590684561475777
aF1.219551740304393
aF0.0
aF0.0
aF0.0
aF0.0
aF0.0
aF0.0
aF0.0
aF0.0
aF0.0
aF0.0
aF0.0
aF0.0
aF-0.09743232426297727
aF-0.06395408774257588
aF0.6947213196471855
aF1.1738063698988135
aF-1.058452056805614
aF0.0
aF0.8197631123141698
aF0.06433378511636345
aF0.0
aF0.0
aF0.0
aF0.0
aF0.0
aF0.0
aF0.0
aF0.0
aF0.0
aF0.0
aF0.0
aF0.0
aF0.0
aF0.0
aF0.0
aF0.0
aF0.03
aF-0.03
aI0
tp14
a((lp15
F0.0
aF0.0
aF0.0
aF0.0
aF0.0
aF0.0
aF0.0
aF0.0
aF0.0
aF0.0
aF0.0
aF0.0
aF0.0
aF0.0
aF0.0
aF1.239985898942779
aF1.0415924115335347
aF-0.704793564528166
aF1.6928598341587924
aF1.4366619949183406
aF0.0
aF-0.9368848177197187
aF1.2204050192289093
aF0.0
aF0.0
aF0.0
aF0.0
aF0.0
aF0.0
aF0.0
aF0.0
aF0.0
aF0.0
aF0.0
aF0.0
aF-0.09743232426297727
aF-0.06395408774257588
aF0.6947213196471855
aF1.1738063698988135
aF-1.058452056805614
aF0.0
aF0.8197631123141698
aF0.06433378511636345
aF0.0
aF0.0
aF0.0
aF0.0
aF0.0
aF0.0
aF0.0
aF0.0
aF0.0
aF0.0
aF0.0
aF0.0
aF0.0
aF0.0
aF0.0
aF0.0
aF0.03
aF-0.03
aI0
tp16
a.