((lp0
F0.0
aF0.0
aF0.0
aF0.0
aF0.0
aF0.0
aF0.0
aF0.0
aF0.0
aF0.0
aF0.0
aF0.0
aF0.0
aF0.0
aF0.0
aF-1.004841439368693
aF0.15880025177052287
aF0.4583708432052185
aF1.6436470776735344
aF-0.7274819917357273
aF0.0
aF-1.4284581960255056
aF-0.4941238705313156
aF0.0
aF0.0
aF0.0
aF0.0
aF0.0
aF0.0
aF0.0
aF0.0
aF0.0
aF0.0
aF0.0
aF0.0
aF-0.012839204326663634
aF-0.1102478188269238
aF0.5699501436065937
aF1.1494444162971922
aF-0.8806489716171404
aF0.0
aF0.7671168181591828
aF-0.012164084921415075
aF0.0
aF0.0
aF0.0
aF0.0
aF0.0
aF0.0
aF0.0
aF0.0
aF0.0
aF0.0
aF0.0
aF0.0
aF0.0
aF0.0
aF0.0
aF0.0
aF0.0
aF0.0
aI0
tp1
.