(lp0
((lp1
F0.0
aF0.0
aF0.0
aF0.0
aF0.0
aF0.0
aF0.0
aF0.0
aF0.0
aF0.0
aF0.0
aF0.0
aF0.0
aF0.0
aF0.0
aF0.8184843964030861
aF-0.6057250182819286
aF-0.5061949467647014
aF2.0155501275068732
aF0.7898010964712777
aF0.0
aF-1.1242341369028863
aF0.13549734745518804
aF0.0
aF0.0
aF0.0
aF0.0
aF0.0
aF0.0
aF0.0
aF0.0
aF0.0
aF0.0
aF0.0
aF0.0
aF0.0
aF-0.76
aF0.0
aF1.98
aF0.0
aF0.0
aF0.3
aF0.0
aF0.0
aF0.0
aF0.0
aF0.0
aF0.0
aF0.0
aF0.0
aF0.0
aF0.0
aF0.0
aF0.0
aF0.0
aF0.0
aF0.0
aF0.0
aF0.0
aF2.4e-322
aF0.0
aI0
tp2
a((lp3
F0.0
aF0.0
aF0.0
aF0.0
aF0.0
aF0.0
aF0.0
aF0.0
aF0.0
aF0.0
aF0.0
aF0.0
aF0.0
aF0.0
aF0.0
aF0.7618750456620891
aF-0.6304455850812674
aF-0.4385437457817506
aF2.016499689929963
aF0.7760107612209992
aF0.0
aF-1.1630006215776045
aF0.09316281101591337
aF0.0
aF0.0
aF0.0
aF0.0
aF0.0
aF0.0
aF0.0
aF0.0
aF0.0
aF0.0
aF0.0
aF0.0
aF0.0
aF-0.76
aF0.0
aF1.98
aF0.0
aF0.0
aF0.3
aF0.0
aF0.0
aF0.0
aF0.0
aF0.0
aF0.0
aF0.0
aF0.0
aF0.0
aF0.0
aF0.0
aF0.0
aF0.0
aF0.0
aF0.0
aF0.0
aF0.0
aF2.4e-322
aF0.0
aI0
tp4
a((lp5
F0.0
aF0.0
aF0.0
aF0.0
aF0.0
aF0.0
aF0.0
aF0.0
aF0.0
aF0.0
aF0.0
aF0.0
aF0.0
aF0.0
aF0.0
aF0.7614317207882761
aF-0.6306393666105079
aF-0.4380142372960261
aF2.016534523227325
aF0.7758844044803388
aF0.0
aF-1.163301017915943
aF0.09284768880077648
aF0.0
aF0.0
aF0.0
aF0.0
aF0.0
aF0.0
aF0.0
aF0.0
aF0.0
aF0.0
aF0.0
aF0.0
aF0.0
aF-0.76
aF0.0
aF1.98
aF0.0
aF0.0
aF0.3
aF0.0
aF0.0
aF0.0
aF0.0
aF0.0
aF0.0
aF0.0
aF0.0
aF0.0
aF0.0
aF0.0
aF0.0
aF0.0
aF0.0
aF0.0
aF0.0
aF0.0
aF2.4e-322
aF0.0
aI0
tp6
a((lp7
F0.0
aF0.0
aF0.0
aF0.0
aF0.0
aF0.0
aF0.0
aF0.0
aF0.0
aF0.0
aF0.0
aF0.0
aF0.0
aF0.0
aF0.0
aF0.7602276349874557
aF-0.6311688616251379
aF-0.4365725335925369
aF2.01663418216138
aF0.7755431447354014
aF0.0
aF-1.1641195349337572
aF0.09198771924850589
aF0.0
aF0.0
aF0.0
aF0.0
aF0.0
aF0.0
aF0.0
aF0.0
aF0.0
aF0.0
aF0.0
aF0.0
aF0.0
aF-0.76
aF0.0
aF1.98
aF0.0
aF0.0
aF0.3
aF0.0
aF0.0
aF0.0
aF0.0
aF0.0
aF0.0
aF0.0
aF0.0
aF0.0
aF0.0
aF0.0
aF0.0
aF0.0
aF0.0
aF0.0
aF0.0
aF0.0
aF2.4e-322
aF0.0
aI0
tp8
a((lp9
F0.0
aF0.0
aF0.0
aF0.0
aF0.0
aF0.0
aF0.0
aF0.0
aF0.0
aF0.0
aF0.0
aF0.0
aF0.0
aF0.0
aF0.0
aF0.7599128068713478
aF-0.6313064659383658
aF-0.4361955067779091
aF2.016658285309197
aF0.7754548045462083
aF0.0
aF-1.1643322538219383
aF0.09176183919694102
aF0.0
aF0.0
aF0.0
aF0.0
aF0.0
aF0.0
aF0.0
aF0.0
aF0.0
aF0.0
aF0.0
aF0.0
aF0.0
aF-0.76
aF0.0
aF1.98
aF0.0
aF0.0
aF0.3
aF0.0
aF0.0
aF0.0
aF0.0
aF0.0
aF0.0
aF0.0
aF0.0
aF0.0
aF0.0
aF0.0
aF0.0
aF0.0
aF0.0
aF0.0
aF0.0
aF0.0
aF2.4e-322
aF0.0
aI0
tp10
a((lp11
F0.0
aF0.0
aF0.0
aF0.0
aF0.0
aF0.0
aF0.0
aF0.0
aF0.0
aF0.0
aF0.0
aF0.0
aF0.0
aF0.0
aF0.0
aF0.7588458484550065
aF-0.6317749582190461
aF-0.43491778809529813
aF2.0167509404509967
aF0.7751509749411906
aF0.0
aF-1.1650592184985327
aF0.09100253281349917
aF0.0
aF0.0
aF0.0
aF0.0
aF0.0
aF0.0
aF0.0
aF0.0
aF0.0
aF0.0
aF0.0
aF0.0
aF0.0
aF-0.76
aF0.0
aF1.98
aF0.0
aF0.0
aF0.3
aF0.0
aF0.0
aF0.0
aF0.0
aF0.0
aF0.0
aF0.0
aF0.0
aF0.0
aF0.0
aF0.0
aF0.0
aF0.0
aF0.0
aF0.0
aF0.0
aF0.0
aF2.4e-322
aF0.0
aI0
tp12
a((lp13
F0.0
aF0.0
aF0.0
aF0.0
aF0.0
aF0.0
aF0.0
aF0.0
aF0.0
aF0.0
aF0.0
aF0.0
aF0.0
aF0.0
aF0.0
aF0.7584031498953145
aF-0.6319673438003036
aF-0.4343875304778737
aF2.016784166630199
aF0.775027202849494
aF0.0
aF-1.1653575322044607
aF0.09068476438288087
aF0.0
aF0.0
aF0.0
aF0.0
aF0.0
aF0.0
aF0.0
aF0.0
aF0.0
aF0.0
aF0.0
aF0.0
aF0.0
aF-0.76
aF0.0
aF1.98
aF0.0
aF0.0
aF0.3
aF0.0
aF0.0
aF0.0
aF0.0
aF0.0
aF0.0
aF0.0
aF0.0
aF0.0
aF0.0
aF0.0
aF0.0
aF0.0
aF0.0
aF0.0
aF0.0
aF0.0
aF2.4e-322
aF0.0
aI0
tp14
a((lp15
F0.0
aF0.0
aF0.0
aF0.0
aF0.0
aF0.0
aF0.0
aF0.0
aF0.0
aF0.0
aF0.0
aF0.0
aF0.0
aF0.0
aF0.0
aF0.7554466574167122
aF-0.6332527782013951
aF-0.4308486928230727
aF2.01703522013666
aF0.7741862916556816
aF0.0
aF-1.1673640476736151
aF0.08858403866970614
aF0.0
aF0.0
aF0.0
aF0.0
aF0.0
aF0.0
aF0.0
aF0.0
aF0.0
aF0.0
aF0.0
aF0.0
aF0.0
aF-0.76
aF0.0
aF1.98
aF0.0
aF0.0
aF0.3
aF0.0
aF0.0
aF0.0
aF0.0
aF0.0
aF0.0
aF0.0
aF0.0
aF0.0
aF0.0
aF0.0
aF0.0
aF0.0
aF0.0
aF0.0
aF0.0
aF0.0
aF2.4e-322
aF0.0
aI0
tp16
a((lp17
F0.0
aF0.0
aF0.0
aF0.0
aF0.0
aF0.0
aF0.0
aF0.0
aF0.0
aF0.0
aF0.0
aF0.0
aF0.0
aF0.0
aF0.0
aF0.7513494922477703
aF-0.6350046010531587
aF-0.42594724446768073
aF2.01736205270329
aF0.773027496842418
aF0.0
aF-1.1701235474601948
aF0.08567633442559483
aF0.0
aF0.0
aF0.0
aF0.0
aF0.0
aF0.0
aF0.0
aF0.0
aF0.0
aF0.0
aF0.0
aF0.0
aF0.0
aF-0.76
aF0.0
aF1.98
aF0.0
aF0.0
aF0.3
aF0.0
aF0.0
aF0.0
aF0.0
aF0.0
aF0.0
aF0.0
aF0.0
aF0.0
aF0.0
aF0.0
aF0.0
aF0.0
aF0.0
aF0.0
aF0.0
aF0.0
aF2.4e-322
aF0.0
aI0
tp18
a((lp19
F0.0
aF0.0
aF0.0
aF0.0
aF0.0
aF0.0
aF0.0
aF0.0
aF0.0
aF0.0
aF0.0
aF0.0
aF0.0
aF0.0
aF0.0
aF0.7512326281274194
aF-0.6350717934703695
aF-0.4258061405616196
aF2.017416405469281
aF0.7729772566567567
aF0.0
aF-1.1702283903206412
aF0.08561010454012412
aF0.0
aF0.0
aF0.0
aF0.0
aF0.0
aF0.0
aF0.0
aF0.0
aF0.0
aF0.0
aF0.0
aF0.0
aF0.0
aF-0.76
aF0.0
aF1.98
aF0.0
aF0.0
aF0.3
aF0.0
aF0.0
aF0.0
aF0.0
aF0.0
aF0.0
aF0.0
aF0.0
aF0.0
aF0.0
aF0.0
aF0.0
aF0.0
aF0.0
aF0.0
aF0.0
aF0.0
aF2.4e-322
aF0.0
aI0
tp20
a((lp21
F0.0
aF0.0
aF0.0
aF0.0
aF0.0
aF0.0
aF0.0
aF0.0
aF0.0
aF0.0
aF0.0
aF0.0
aF0.0
aF0.0
aF0.0
aF0.7508124987507985
aF-0.6352345035584498
aF-0.42530390528426665
aF2.017408152327542
aF0.7728754836472166
aF0.0
aF-1.1704863787224467
aF0.08529497451489622
aF0.0
aF0.0
aF0.0
aF0.0
aF0.0
aF0.0
aF0.0
aF0.0
aF0.0
aF0.0
aF0.0
aF0.0
aF0.0
aF-0.76
aF0.0
aF1.98
aF0.0
aF0.0
aF0.3
aF0.0
aF0.0
aF0.0
aF0.0
aF0.0
aF0.0
aF0.0
aF0.0
aF0.0
aF0.0
aF0.0
aF0.0
aF0.0
aF0.0
aF0.0
aF0.0
aF0.0
aF2.4e-322
aF0.0
aI0
tp22
a((lp23
F0.0
aF0.0
aF0.0
aF0.0
aF0.0
aF0.0
aF0.0
aF0.0
aF0.0
aF0.0
aF0.0
aF0.0
aF0.0
aF0.0
aF0.0
aF0.7492965335599265
aF-0.6357580286308354
aF-0.4235933049605627
aF2.017362034877028
aF0.7724067946264315
aF0.0
aF-1.1713741134560933
aF0.08431027917291174
aF0.0
aF0.0
aF0.0
aF0.0
aF0.0
aF0.0
aF0.0
aF0.0
aF0.0
aF0.0
aF0.0
aF0.0
aF0.0
aF-0.76
aF0.0
aF1.98
aF0.0
aF0.0
aF0.3
aF0.0
aF0.0
aF0.0
aF0.0
aF0.0
aF0.0
aF0.0
aF0.0
aF0.0
aF0.0
aF0.0
aF0.0
aF0.0
aF0.0
aF0.0
aF0.0
aF0.0
aF2.4e-322
aF0.0
aI0
tp24
a((lp25
F0.0
aF0.0
aF0.0
aF0.0
aF0.0
aF0.0
aF0.0
aF0.0
aF0.0
aF0.0
aF0.0
aF0.0
aF0.0
aF0.0
aF0.0
aF0.7490792715581879
aF-0.6358476637513277
aF-0.4233338018604488
aF2.017375086128984
aF0.7723467041019958
aF0.0
aF-1.1715178716715817
aF0.08415488869140873
aF0.0
aF0.0
aF0.0
aF0.0
aF0.0
aF0.0
aF0.0
aF0.0
aF0.0
aF0.0
aF0.0
aF0.0
aF0.0
aF-0.76
aF0.0
aF1.98
aF0.0
aF0.0
aF0.3
aF0.0
aF0.0
aF0.0
aF0.0
aF0.0
aF0.0
aF0.0
aF0.0
aF0.0
aF0.0
aF0.0
aF0.0
aF0.0
aF0.0
aF0.0
aF0.0
aF0.0
aF2.4e-322
aF0.0
aI0
tp26
a((lp27
F0.0
aF0.0
aF0.0
aF0.0
aF0.0
aF0.0
aF0.0
aF0.0
aF0.0
aF0.0
aF0.0
aF0.0
aF0.0
aF0.0
aF0.0
aF0.749296609138973
aF-0.6358776826404794
aF-0.4234902807499643
aF2.0175340367205643
aF0.7724452653505574
aF0.0
aF-1.1715072626175118
aF0.08422327736314612
aF0.0
aF0.0
aF0.0
aF0.0
aF0.0
aF0.0
aF0.0
aF0.0
aF0.0
aF0.0
aF0.0
aF0.0
aF0.0
aF-0.76
aF0.0
aF1.98
aF0.0
aF0.0
aF0.3
aF0.0
aF0.0
aF0.0
aF0.0
aF0.0
aF0.0
aF0.0
aF0.0
aF0.0
aF0.0
aF0.0
aF0.0
aF0.0
aF0.0
aF0.0
aF0.0
aF0.0
aF2.4e-322
aF0.0
aI0
tp28
a((lp29
F0.0
aF0.0
aF0.0
aF0.0
aF0.0
aF0.0
aF0.0
aF0.0
aF0.0
aF0.0
aF0.0
aF0.0
aF0.0
aF0.0
aF0.0
aF0.7465633693119648
aF-0.6370400212712506
aF-0.42022085197683406
aF2.017789312456832
aF0.7716574741661412
aF0.0
aF-1.173360671798688
aF0.082306168542615
aF0.0
aF0.0
aF0.0
aF0.0
aF0.0
aF0.0
aF0.0
aF0.0
aF0.0
aF0.0
aF0.0
aF0.0
aF0.0
aF-0.76
aF0.0
aF1.98
aF0.0
aF0.0
aF0.3
aF0.0
aF0.0
aF0.0
aF0.0
aF0.0
aF0.0
aF0.0
aF0.0
aF0.0
aF0.0
aF0.0
aF0.0
aF0.0
aF0.0
aF0.0
aF0.0
aF0.0
aF2.4e-322
aF0.0
aI0
tp30
a((lp31
F0.0
aF0.0
aF0.0
aF0.0
aF0.0
aF0.0
aF0.0
aF0.0
aF0.0
aF0.0
aF0.0
aF0.0
aF0.0
aF0.0
aF0.0
aF0.7389590293347016
aF-0.6401646881703208
aF-0.41112649211844765
aF2.0183563414934524
aF0.7695249336740833
aF0.0
aF-1.1784125292104353
aF0.07693666310277139
aF0.0
aF0.0
aF0.0
aF0.0
aF0.0
aF0.0
aF0.0
aF0.0
aF0.0
aF0.0
aF0.0
aF0.0
aF0.0
aF-0.76
aF0.0
aF1.98
aF0.0
aF0.0
aF0.3
aF0.0
aF0.0
aF0.0
aF0.0
aF0.0
aF0.0
aF0.0
aF0.0
aF0.0
aF0.0
aF0.0
aF0.0
aF0.0
aF0.0
aF0.0
aF0.0
aF0.0
aF2.4e-322
aF0.0
aI0
tp32
a((lp33
F0.0
aF0.0
aF0.0
aF0.0
aF0.0
aF0.0
aF0.0
aF0.0
aF0.0
aF0.0
aF0.0
aF0.0
aF0.0
aF0.0
aF0.0
aF0.7326855795083493
aF-0.6427044310994242
aF-0.4036270144292879
aF2.0188769935259074
aF0.7677426836331525
aF0.0
aF-1.182584703783638
aF0.07255091924528731
aF0.0
aF0.0
aF0.0
aF0.0
aF0.0
aF0.0
aF0.0
aF0.0
aF0.0
aF0.0
aF0.0
aF0.0
aF0.0
aF-0.76
aF0.0
aF1.98
aF0.0
aF0.0
aF0.3
aF0.0
aF0.0
aF0.0
aF0.0
aF0.0
aF0.0
aF0.0
aF0.0
aF0.0
aF0.0
aF0.0
aF0.0
aF0.0
aF0.0
aF0.0
aF0.0
aF0.0
aF2.4e-322
aF0.0
aI0
tp34
a((lp35
F0.0
aF0.0
aF0.0
aF0.0
aF0.0
aF0.0
aF0.0
aF0.0
aF0.0
aF0.0
aF0.0
aF0.0
aF0.0
aF0.0
aF0.0
aF0.7302040476160252
aF-0.6436781285199977
aF-0.40065988542299635
aF2.0190447758454293
aF0.7670545857919421
aF0.0
aF-1.1842082764914696
aF0.07080759837108751
aF0.0
aF0.0
aF0.0
aF0.0
aF0.0
aF0.0
aF0.0
aF0.0
aF0.0
aF0.0
aF0.0
aF0.0
aF0.0
aF-0.76
aF0.0
aF1.98
aF0.0
aF0.0
aF0.3
aF0.0
aF0.0
aF0.0
aF0.0
aF0.0
aF0.0
aF0.0
aF0.0
aF0.0
aF0.0
aF0.0
aF0.0
aF0.0
aF0.0
aF0.0
aF0.0
aF0.0
aF2.4e-322
aF0.0
aI0
tp36
a((lp37
F0.0
aF0.0
aF0.0
aF0.0
aF0.0
aF0.0
aF0.0
aF0.0
aF0.0
aF0.0
aF0.0
aF0.0
aF0.0
aF0.0
aF0.0
aF0.7278641474498576
aF-0.6446074115454588
aF-0.3978640310121051
aF2.019245339388694
aF0.7663865959559079
aF0.0
aF-1.1857583145311157
aF0.06918168468800913
aF0.0
aF0.0
aF0.0
aF0.0
aF0.0
aF0.0
aF0.0
aF0.0
aF0.0
aF0.0
aF0.0
aF0.0
aF0.0
aF-0.76
aF0.0
aF1.98
aF0.0
aF0.0
aF0.3
aF0.0
aF0.0
aF0.0
aF0.0
aF0.0
aF0.0
aF0.0
aF0.0
aF0.0
aF0.0
aF0.0
aF0.0
aF0.0
aF0.0
aF0.0
aF0.0
aF0.0
aF2.4e-322
aF0.0
aI0
tp38
a((lp39
F0.0
aF0.0
aF0.0
aF0.0
aF0.0
aF0.0
aF0.0
aF0.0
aF0.0
aF0.0
aF0.0
aF0.0
aF0.0
aF0.0
aF0.0
aF0.7233067080241109
aF-0.6463607523562265
aF-0.39241732767531
aF2.019558476476088
aF0.7651184010265183
aF0.0
aF-1.1887287702151192
aF0.06599901853100973
aF0.0
aF0.0
aF0.0
aF0.0
aF0.0
aF0.0
aF0.0
aF0.0
aF0.0
aF0.0
aF0.0
aF0.0
aF0.0
aF-0.76
aF0.0
aF1.98
aF0.0
aF0.0
aF0.3
aF0.0
aF0.0
aF0.0
aF0.0
aF0.0
aF0.0
aF0.0
aF0.0
aF0.0
aF0.0
aF0.0
aF0.0
aF0.0
aF0.0
aF0.0
aF0.0
aF0.0
aF2.4e-322
aF0.0
aI0
tp40
a((lp41
F0.0
aF0.0
aF0.0
aF0.0
aF0.0
aF0.0
aF0.0
aF0.0
aF0.0
aF0.0
aF0.0
aF0.0
aF0.0
aF0.0
aF0.0
aF0.7225812698296407
aF-0.6466457931295195
aF-0.39154989518281547
aF2.0196235014361603
aF0.7649110660238073
aF0.0
aF-1.1892082186257962
aF0.06549518547504841
aF0.0
aF0.0
aF0.0
aF0.0
aF0.0
aF0.0
aF0.0
aF0.0
aF0.0
aF0.0
aF0.0
aF0.0
aF0.0
aF-0.76
aF0.0
aF1.98
aF0.0
aF0.0
aF0.3
aF0.0
aF0.0
aF0.0
aF0.0
aF0.0
aF0.0
aF0.0
aF0.0
aF0.0
aF0.0
aF0.0
aF0.0
aF0.0
aF0.0
aF0.0
aF0.0
aF0.0
aF2.4e-322
aF0.0
aI0
tp42
a((lp43
F0.0
aF0.0
aF0.0
aF0.0
aF0.0
aF0.0
aF0.0
aF0.0
aF0.0
aF0.0
aF0.0
aF0.0
aF0.0
aF0.0
aF0.0
aF0.7142552366568985
aF-0.6497895139656521
aF-0.38160314215855234
aF2.0202352518991225
aF0.7625760125319186
aF0.0
aF-1.194622840744713
aF0.059721195772320934
aF0.0
aF0.0
aF0.0
aF0.0
aF0.0
aF0.0
aF0.0
aF0.0
aF0.0
aF0.0
aF0.0
aF0.0
aF0.0
aF-0.76
aF0.0
aF1.98
aF0.0
aF0.0
aF0.3
aF0.0
aF0.0
aF0.0
aF0.0
aF0.0
aF0.0
aF0.0
aF0.0
aF0.0
aF0.0
aF0.0
aF0.0
aF0.0
aF0.0
aF0.0
aF0.0
aF0.0
aF2.4e-322
aF0.0
aI0
tp44
a((lp45
F0.0
aF0.0
aF0.0
aF0.0
aF0.0
aF0.0
aF0.0
aF0.0
aF0.0
aF0.0
aF0.0
aF0.0
aF0.0
aF0.0
aF0.0
aF0.7116266077848633
aF-0.6507669340846235
aF-0.3784687688359778
aF2.0204442596696115
aF0.7618258057654509
aF0.0
aF-1.1963326454442091
aF0.05792031430597088
aF0.0
aF0.0
aF0.0
aF0.0
aF0.0
aF0.0
aF0.0
aF0.0
aF0.0
aF0.0
aF0.0
aF0.0
aF0.0
aF-0.76
aF0.0
aF1.98
aF0.0
aF0.0
aF0.3
aF0.0
aF0.0
aF0.0
aF0.0
aF0.0
aF0.0
aF0.0
aF0.0
aF0.0
aF0.0
aF0.0
aF0.0
aF0.0
aF0.0
aF0.0
aF0.0
aF0.0
aF2.4e-322
aF0.0
aI0
tp46
a((lp47
F0.0
aF0.0
aF0.0
aF0.0
aF0.0
aF0.0
aF0.0
aF0.0
aF0.0
aF0.0
aF0.0
aF0.0
aF0.0
aF0.0
aF0.0
aF0.7072537722334972
aF-0.6523850058968657
aF-0.3732525524633447
aF2.020806314145514
aF0.7605757129471818
aF0.0
aF-1.199173710257492
aF0.05492662263795821
aF0.0
aF0.0
aF0.0
aF0.0
aF0.0
aF0.0
aF0.0
aF0.0
aF0.0
aF0.0
aF0.0
aF0.0
aF0.0
aF-0.76
aF0.0
aF1.98
aF0.0
aF0.0
aF0.3
aF0.0
aF0.0
aF0.0
aF0.0
aF0.0
aF0.0
aF0.0
aF0.0
aF0.0
aF0.0
aF0.0
aF0.0
aF0.0
aF0.0
aF0.0
aF0.0
aF0.0
aF2.4e-322
aF0.0
aI0
tp48
a((lp49
F0.0
aF0.0
aF0.0
aF0.0
aF0.0
aF0.0
aF0.0
aF0.0
aF0.0
aF0.0
aF0.0
aF0.0
aF0.0
aF0.0
aF0.0
aF0.7011986074918658
aF-0.6545261706193657
aF-0.3660117942092202
aF2.0211661192750983
aF0.7589206811531286
aF0.0
aF-1.2030257775449915
aF0.05072415323950244
aF0.0
aF0.0
aF0.0
aF0.0
aF0.0
aF0.0
aF0.0
aF0.0
aF0.0
aF0.0
aF0.0
aF0.0
aF0.0
aF-0.76
aF0.0
aF1.98
aF0.0
aF0.0
aF0.3
aF0.0
aF0.0
aF0.0
aF0.0
aF0.0
aF0.0
aF0.0
aF0.0
aF0.0
aF0.0
aF0.0
aF0.0
aF0.0
aF0.0
aF0.0
aF0.0
aF0.0
aF2.4e-322
aF0.0
aI0
tp50
a((lp51
F0.0
aF0.0
aF0.0
aF0.0
aF0.0
aF0.0
aF0.0
aF0.0
aF0.0
aF0.0
aF0.0
aF0.0
aF0.0
aF0.0
aF0.0
aF0.6998426059409774
aF-0.655003923957694
aF-0.36439203329768083
aF2.0212581428884975
aF0.7585432411690733
aF0.0
aF-1.203891661058731
aF0.049791706005209865
aF0.0
aF0.0
aF0.0
aF0.0
aF0.0
aF0.0
aF0.0
aF0.0
aF0.0
aF0.0
aF0.0
aF0.0
aF0.0
aF-0.76
aF0.0
aF1.98
aF0.0
aF0.0
aF0.3
aF0.0
aF0.0
aF0.0
aF0.0
aF0.0
aF0.0
aF0.0
aF0.0
aF0.0
aF0.0
aF0.0
aF0.0
aF0.0
aF0.0
aF0.0
aF0.0
aF0.0
aF2.4e-322
aF0.0
aI0
tp52
a((lp53
F0.0
aF0.0
aF0.0
aF0.0
aF0.0
aF0.0
aF0.0
aF0.0
aF0.0
aF0.0
aF0.0
aF0.0
aF0.0
aF0.0
aF0.0
aF0.6897990515469619
aF-0.6584733617437851
aF-0.35241752087771605
aF2.0219758332765476
aF0.755711230064781
aF0.0
aF-1.2102895588107214
aF0.04295659855397291
aF0.0
aF0.0
aF0.0
aF0.0
aF0.0
aF0.0
aF0.0
aF0.0
aF0.0
aF0.0
aF0.0
aF0.0
aF0.0
aF-0.76
aF0.0
aF1.98
aF0.0
aF0.0
aF0.3
aF0.0
aF0.0
aF0.0
aF0.0
aF0.0
aF0.0
aF0.0
aF0.0
aF0.0
aF0.0
aF0.0
aF0.0
aF0.0
aF0.0
aF0.0
aF0.0
aF0.0
aF2.4e-322
aF0.0
aI0
tp54
a((lp55
F0.0
aF0.0
aF0.0
aF0.0
aF0.0
aF0.0
aF0.0
aF0.0
aF0.0
aF0.0
aF0.0
aF0.0
aF0.0
aF0.0
aF0.0
aF0.6888442863275372
aF-0.6588173720463634
aF-0.3512806768051093
aF2.022079023293919
aF0.7554264082300867
aF0.0
aF-1.2109098904307876
aF0.04231673769294024
aF0.0
aF0.0
aF0.0
aF0.0
aF0.0
aF0.0
aF0.0
aF0.0
aF0.0
aF0.0
aF0.0
aF0.0
aF0.0
aF-0.76
aF0.0
aF1.98
aF0.0
aF0.0
aF0.3
aF0.0
aF0.0
aF0.0
aF0.0
aF0.0
aF0.0
aF0.0
aF0.0
aF0.0
aF0.0
aF0.0
aF0.0
aF0.0
aF0.0
aF0.0
aF0.0
aF0.0
aF2.4e-322
aF0.0
aI0
tp56
a((lp57
F0.0
aF0.0
aF0.0
aF0.0
aF0.0
aF0.0
aF0.0
aF0.0
aF0.0
aF0.0
aF0.0
aF0.0
aF0.0
aF0.0
aF0.0
aF0.6853533456706793
aF-0.6600010308018651
aF-0.34711835014249776
aF2.022338946723412
aF0.7544382057505681
aF0.0
aF-1.2131221093240914
aF0.03994741474153248
aF0.0
aF0.0
aF0.0
aF0.0
aF0.0
aF0.0
aF0.0
aF0.0
aF0.0
aF0.0
aF0.0
aF0.0
aF0.0
aF-0.76
aF0.0
aF1.98
aF0.0
aF0.0
aF0.3
aF0.0
aF0.0
aF0.0
aF0.0
aF0.0
aF0.0
aF0.0
aF0.0
aF0.0
aF0.0
aF0.0
aF0.0
aF0.0
aF0.0
aF0.0
aF0.0
aF0.0
aF2.4e-322
aF0.0
aI0
tp58
a((lp59
F0.0
aF0.0
aF0.0
aF0.0
aF0.0
aF0.0
aF0.0
aF0.0
aF0.0
aF0.0
aF0.0
aF0.0
aF0.0
aF0.0
aF0.0
aF0.6841312561835702
aF-0.6603700829319573
aF-0.3456549752953754
aF2.022355236412206
aF0.7541282511836036
aF0.0
aF-1.213865758205115
aF0.03909612119630357
aF0.0
aF0.0
aF0.0
aF0.0
aF0.0
aF0.0
aF0.0
aF0.0
aF0.0
aF0.0
aF0.0
aF0.0
aF0.0
aF-0.76
aF0.0
aF1.98
aF0.0
aF0.0
aF0.3
aF0.0
aF0.0
aF0.0
aF0.0
aF0.0
aF0.0
aF0.0
aF0.0
aF0.0
aF0.0
aF0.0
aF0.0
aF0.0
aF0.0
aF0.0
aF0.0
aF0.0
aF2.4e-322
aF0.0
aI0
tp60
a((lp61
F0.0
aF0.0
aF0.0
aF0.0
aF0.0
aF0.0
aF0.0
aF0.0
aF0.0
aF0.0
aF0.0
aF0.0
aF0.0
aF0.0
aF0.0
aF0.6795561894219743
aF-0.6618777077729125
aF-0.3401894593580638
aF2.0226570367994356
aF0.7528597702850983
aF0.0
aF-1.2167393560798696
aF0.03597085004178234
aF0.0
aF0.0
aF0.0
aF0.0
aF0.0
aF0.0
aF0.0
aF0.0
aF0.0
aF0.0
aF0.0
aF0.0
aF0.0
aF-0.76
aF0.0
aF1.98
aF0.0
aF0.0
aF0.3
aF0.0
aF0.0
aF0.0
aF0.0
aF0.0
aF0.0
aF0.0
aF0.0
aF0.0
aF0.0
aF0.0
aF0.0
aF0.0
aF0.0
aF0.0
aF0.0
aF0.0
aF2.4e-322
aF0.0
aI0
tp62
a((lp63
F0.0
aF0.0
aF0.0
aF0.0
aF0.0
aF0.0
aF0.0
aF0.0
aF0.0
aF0.0
aF0.0
aF0.0
aF0.0
aF0.0
aF0.0
aF0.673563598315246
aF-0.6638296828605676
aF-0.33305251205675096
aF2.0231075377868244
aF0.7511514593858507
aF0.0
aF-1.220509464436181
aF0.031943617106058524
aF0.0
aF0.0
aF0.0
aF0.0
aF0.0
aF0.0
aF0.0
aF0.0
aF0.0
aF0.0
aF0.0
aF0.0
aF0.0
aF-0.76
aF0.0
aF1.98
aF0.0
aF0.0
aF0.3
aF0.0
aF0.0
aF0.0
aF0.0
aF0.0
aF0.0
aF0.0
aF0.0
aF0.0
aF0.0
aF0.0
aF0.0
aF0.0
aF0.0
aF0.0
aF0.0
aF0.0
aF2.4e-322
aF0.0
aI0
tp64
a((lp65
F0.0
aF0.0
aF0.0
aF0.0
aF0.0
aF0.0
aF0.0
aF0.0
aF0.0
aF0.0
aF0.0
aF0.0
aF0.0
aF0.0
aF0.0
aF0.6706754965859408
aF-0.6647506533359152
aF-0.32961543884161154
aF2.0233165202667913
aF0.750328061875778
aF0.0
aF-1.222314190932898
aF0.030008866052655403
aF0.0
aF0.0
aF0.0
aF0.0
aF0.0
aF0.0
aF0.0
aF0.0
aF0.0
aF0.0
aF0.0
aF0.0
aF0.0
aF-0.76
aF0.0
aF1.98
aF0.0
aF0.0
aF0.3
aF0.0
aF0.0
aF0.0
aF0.0
aF0.0
aF0.0
aF0.0
aF0.0
aF0.0
aF0.0
aF0.0
aF0.0
aF0.0
aF0.0
aF0.0
aF0.0
aF0.0
aF2.4e-322
aF0.0
aI0
tp66
a((lp67
F0.0
aF0.0
aF0.0
aF0.0
aF0.0
aF0.0
aF0.0
aF0.0
aF0.0
aF0.0
aF0.0
aF0.0
aF0.0
aF0.0
aF0.0
aF0.6469171824326564
aF-0.6718335378505815
aF-0.3012930215988222
aF2.0247753683057024
aF0.7436993951557453
aF0.0
aF-1.2369324779723139
aF0.014048350295176149
aF0.0
aF0.0
aF0.0
aF0.0
aF0.0
aF0.0
aF0.0
aF0.0
aF0.0
aF0.0
aF0.0
aF0.0
aF0.0
aF-0.76
aF0.0
aF1.98
aF0.0
aF0.0
aF0.3
aF0.0
aF0.0
aF0.0
aF0.0
aF0.0
aF0.0
aF0.0
aF0.0
aF0.0
aF0.0
aF0.0
aF0.0
aF0.0
aF0.0
aF0.0
aF0.0
aF0.0
aF2.4e-322
aF0.0
aI0
tp68
a((lp69
F0.0
aF0.0
aF0.0
aF0.0
aF0.0
aF0.0
aF0.0
aF0.0
aF0.0
aF0.0
aF0.0
aF0.0
aF0.0
aF0.0
aF0.0
aF0.4196143770299887
aF-0.7041217560353473
aF-0.031072485498214873
aF2.030028428707063
aF0.6781476440073737
aF0.0
aF-1.363678763786037
aF-0.13415269701710453
aF0.0
aF0.0
aF0.0
aF0.0
aF0.0
aF0.0
aF0.0
aF0.0
aF0.0
aF0.0
aF0.0
aF0.0
aF0.0
aF-0.76
aF0.0
aF1.98
aF0.0
aF0.0
aF0.3
aF0.0
aF0.0
aF0.0
aF0.0
aF0.0
aF0.0
aF0.0
aF0.0
aF0.0
aF0.0
aF0.0
aF0.0
aF0.0
aF0.0
aF0.0
aF0.0
aF0.0
aF2.4e-322
aF0.0
aI0
tp70
a((lp71
F0.0
aF0.0
aF0.0
aF0.0
aF0.0
aF0.0
aF0.0
aF0.0
aF0.0
aF0.0
aF0.0
aF0.0
aF0.0
aF0.0
aF0.0
aF0.4193956331070413
aF-0.7041304617166978
aF-0.030814289141772165
aF2.03003850492852
aF0.6780763185251104
aF0.0
aF-1.3637954428981882
aF-0.13428986153356348
aF0.0
aF0.0
aF0.0
aF0.0
aF0.0
aF0.0
aF0.0
aF0.0
aF0.0
aF0.0
aF0.0
aF0.0
aF0.0
aF-0.76
aF0.0
aF1.98
aF0.0
aF0.0
aF0.3
aF0.0
aF0.0
aF0.0
aF0.0
aF0.0
aF0.0
aF0.0
aF0.0
aF0.0
aF0.0
aF0.0
aF0.0
aF0.0
aF0.0
aF0.0
aF0.0
aF0.0
aF2.4e-322
aF0.0
aI0
tp72
a((lp73
F0.0
aF0.0
aF0.0
aF0.0
aF0.0
aF0.0
aF0.0
aF0.0
aF0.0
aF0.0
aF0.0
aF0.0
aF0.0
aF0.0
aF0.0
aF0.41931188302073447
aF-0.704132965489438
aF-0.030715242442620375
aF2.0300407096580533
aF0.6780495071626905
aF0.0
aF-1.3638394923455153
aF-0.1343430159202872
aF0.0
aF0.0
aF0.0
aF0.0
aF0.0
aF0.0
aF0.0
aF0.0
aF0.0
aF0.0
aF0.0
aF0.0
aF0.0
aF-0.76
aF0.0
aF1.98
aF0.0
aF0.0
aF0.3
aF0.0
aF0.0
aF0.0
aF0.0
aF0.0
aF0.0
aF0.0
aF0.0
aF0.0
aF0.0
aF0.0
aF0.0
aF0.0
aF0.0
aF0.0
aF0.0
aF0.0
aF2.4e-322
aF0.0
aI0
tp74
a((lp75
F0.0
aF0.0
aF0.0
aF0.0
aF0.0
aF0.0
aF0.0
aF0.0
aF0.0
aF0.0
aF0.0
aF0.0
aF0.0
aF0.0
aF0.0
aF0.41918013865048664
aF-0.7041209474360625
aF-0.03055527560060463
aF2.0300157688245566
aF0.6780155610113631
aF0.0
aF-1.3639025507499551
aF-0.13443931069277348
aF0.0
aF0.0
aF0.0
aF0.0
aF0.0
aF0.0
aF0.0
aF0.0
aF0.0
aF0.0
aF0.0
aF0.0
aF0.0
aF-0.76
aF0.0
aF1.98
aF0.0
aF0.0
aF0.3
aF0.0
aF0.0
aF0.0
aF0.0
aF0.0
aF0.0
aF0.0
aF0.0
aF0.0
aF0.0
aF0.0
aF0.0
aF0.0
aF0.0
aF0.0
aF0.0
aF0.0
aF2.4e-322
aF0.0
aI0
tp76
a((lp77
F0.0
aF0.0
aF0.0
aF0.0
aF0.0
aF0.0
aF0.0
aF0.0
aF0.0
aF0.0
aF0.0
aF0.0
aF0.0
aF0.0
aF0.0
aF0.4184588926109964
aF-0.70413751840161
aF-0.029698260160808797
aF2.0300261066356664
aF0.677789877683449
aF0.0
aF-1.3642827132849153
aF-0.1349047264623707
aF0.0
aF0.0
aF0.0
aF0.0
aF0.0
aF0.0
aF0.0
aF0.0
aF0.0
aF0.0
aF0.0
aF0.0
aF0.0
aF-0.76
aF0.0
aF1.98
aF0.0
aF0.0
aF0.3
aF0.0
aF0.0
aF0.0
aF0.0
aF0.0
aF0.0
aF0.0
aF0.0
aF0.0
aF0.0
aF0.0
aF0.0
aF0.0
aF0.0
aF0.0
aF0.0
aF0.0
aF2.4e-322
aF0.0
aI0
tp78
a((lp79
F0.0
aF0.0
aF0.0
aF0.0
aF0.0
aF0.0
aF0.0
aF0.0
aF0.0
aF0.0
aF0.0
aF0.0
aF0.0
aF0.0
aF0.0
aF0.41675662302410155
aF-0.7041577659014319
aF-0.027674256756177025
aF2.03002106562189
aF0.6772619322069271
aF0.0
aF-1.3651703574643153
aF-0.13601234460816802
aF0.0
aF0.0
aF0.0
aF0.0
aF0.0
aF0.0
aF0.0
aF0.0
aF0.0
aF0.0
aF0.0
aF0.0
aF0.0
aF-0.76
aF0.0
aF1.98
aF0.0
aF0.0
aF0.3
aF0.0
aF0.0
aF0.0
aF0.0
aF0.0
aF0.0
aF0.0
aF0.0
aF0.0
aF0.0
aF0.0
aF0.0
aF0.0
aF0.0
aF0.0
aF0.0
aF0.0
aF2.4e-322
aF0.0
aI0
tp80
a((lp81
F0.0
aF0.0
aF0.0
aF0.0
aF0.0
aF0.0
aF0.0
aF0.0
aF0.0
aF0.0
aF0.0
aF0.0
aF0.0
aF0.0
aF0.0
aF0.41643626166750214
aF-0.704166774032075
aF-0.027294008076675133
aF2.0300294734534683
aF0.6771606248526265
aF0.0
aF-1.3653397246348795
aF-0.13621751222561296
aF0.0
aF0.0
aF0.0
aF0.0
aF0.0
aF0.0
aF0.0
aF0.0
aF0.0
aF0.0
aF0.0
aF0.0
aF0.0
aF-0.76
aF0.0
aF1.98
aF0.0
aF0.0
aF0.3
aF0.0
aF0.0
aF0.0
aF0.0
aF0.0
aF0.0
aF0.0
aF0.0
aF0.0
aF0.0
aF0.0
aF0.0
aF0.0
aF0.0
aF0.0
aF0.0
aF0.0
aF2.4e-322
aF0.0
aI0
tp82
a((lp83
F0.0
aF0.0
aF0.0
aF0.0
aF0.0
aF0.0
aF0.0
aF0.0
aF0.0
aF0.0
aF0.0
aF0.0
aF0.0
aF0.0
aF0.0
aF0.4144677530401291
aF-0.7041867160021263
aF-0.024953208096546577
aF2.030024836489099
aF0.6765487340980125
aF0.0
aF-1.3663663024593378
aF-0.13749856856790926
aF0.0
aF0.0
aF0.0
aF0.0
aF0.0
aF0.0
aF0.0
aF0.0
aF0.0
aF0.0
aF0.0
aF0.0
aF0.0
aF-0.76
aF0.0
aF1.98
aF0.0
aF0.0
aF0.3
aF0.0
aF0.0
aF0.0
aF0.0
aF0.0
aF0.0
aF0.0
aF0.0
aF0.0
aF0.0
aF0.0
aF0.0
aF0.0
aF0.0
aF0.0
aF0.0
aF0.0
aF2.4e-322
aF0.0
aI0
tp84
a((lp85
F0.0
aF0.0
aF0.0
aF0.0
aF0.0
aF0.0
aF0.0
aF0.0
aF0.0
aF0.0
aF0.0
aF0.0
aF0.0
aF0.0
aF0.0
aF0.4061113137924403
aF-0.7045856776168768
aF-0.014819596591499425
aF2.0311208246879473
aF0.6739367046676942
aF0.0
aF-1.3715458806389373
aF-0.14277278992385728
aF0.0
aF0.0
aF0.0
aF0.0
aF0.0
aF0.0
aF0.0
aF0.0
aF0.0
aF0.0
aF0.0
aF0.0
aF0.0
aF-0.76
aF0.0
aF1.98
aF0.0
aF0.0
aF0.3
aF0.0
aF0.0
aF0.0
aF0.0
aF0.0
aF0.0
aF0.0
aF0.0
aF0.0
aF0.0
aF0.0
aF0.0
aF0.0
aF0.0
aF0.0
aF0.0
aF0.0
aF2.4e-322
aF0.0
aI0
tp86
a((lp87
F0.0
aF0.0
aF0.0
aF0.0
aF0.0
aF0.0
aF0.0
aF0.0
aF0.0
aF0.0
aF0.0
aF0.0
aF0.0
aF0.0
aF0.0
aF0.40434699358944615
aF-0.7045671162273816
aF-0.012719890906636725
aF2.0310811429644535
aF0.6733897564311276
aF0.0
aF-1.372445620197688
aF-0.14392403162250555
aF0.0
aF0.0
aF0.0
aF0.0
aF0.0
aF0.0
aF0.0
aF0.0
aF0.0
aF0.0
aF0.0
aF0.0
aF0.0
aF-0.76
aF0.0
aF1.98
aF0.0
aF0.0
aF0.3
aF0.0
aF0.0
aF0.0
aF0.0
aF0.0
aF0.0
aF0.0
aF0.0
aF0.0
aF0.0
aF0.0
aF0.0
aF0.0
aF0.0
aF0.0
aF0.0
aF0.0
aF2.4e-322
aF0.0
aI0
tp88
a((lp89
F0.0
aF0.0
aF0.0
aF0.0
aF0.0
aF0.0
aF0.0
aF0.0
aF0.0
aF0.0
aF0.0
aF0.0
aF0.0
aF0.0
aF0.0
aF0.3917310607285561
aF-0.7043931675704047
aF0.0022765513766995135
aF2.0308635279068814
aF0.6694182616976678
aF0.0
aF-1.3788837176935294
aF-0.15215630174138087
aF0.0
aF0.0
aF0.0
aF0.0
aF0.0
aF0.0
aF0.0
aF0.0
aF0.0
aF0.0
aF0.0
aF0.0
aF0.0
aF-0.76
aF0.0
aF1.98
aF0.0
aF0.0
aF0.3
aF0.0
aF0.0
aF0.0
aF0.0
aF0.0
aF0.0
aF0.0
aF0.0
aF0.0
aF0.0
aF0.0
aF0.0
aF0.0
aF0.0
aF0.0
aF0.0
aF0.0
aF2.4e-322
aF0.0
aI0
tp90
a((lp91
F0.0
aF0.0
aF0.0
aF0.0
aF0.0
aF0.0
aF0.0
aF0.0
aF0.0
aF0.0
aF0.0
aF0.0
aF0.0
aF0.0
aF0.0
aF0.3790437679506442
aF-0.704038870963022
aF0.01736288859593694
aF2.0306011594865785
aF0.6653762601720739
aF0.0
aF-1.3853255765226489
aF-0.160472496831986
aF0.0
aF0.0
aF0.0
aF0.0
aF0.0
aF0.0
aF0.0
aF0.0
aF0.0
aF0.0
aF0.0
aF0.0
aF0.0
aF-0.76
aF0.0
aF1.98
aF0.0
aF0.0
aF0.3
aF0.0
aF0.0
aF0.0
aF0.0
aF0.0
aF0.0
aF0.0
aF0.0
aF0.0
aF0.0
aF0.0
aF0.0
aF0.0
aF0.0
aF0.0
aF0.0
aF0.0
aF2.4e-322
aF0.0
aI0
tp92
a((lp93
F0.0
aF0.0
aF0.0
aF0.0
aF0.0
aF0.0
aF0.0
aF0.0
aF0.0
aF0.0
aF0.0
aF0.0
aF0.0
aF0.0
aF0.0
aF0.3694767749204662
aF-0.7036624001871941
aF0.02873652859700141
aF2.030391609351943
aF0.6622844507439077
aF0.0
aF-1.3901675262858877
aF-0.16676113645947105
aF0.0
aF0.0
aF0.0
aF0.0
aF0.0
aF0.0
aF0.0
aF0.0
aF0.0
aF0.0
aF0.0
aF0.0
aF0.0
aF-0.76
aF0.0
aF1.98
aF0.0
aF0.0
aF0.3
aF0.0
aF0.0
aF0.0
aF0.0
aF0.0
aF0.0
aF0.0
aF0.0
aF0.0
aF0.0
aF0.0
aF0.0
aF0.0
aF0.0
aF0.0
aF0.0
aF0.0
aF2.4e-322
aF0.0
aI0
tp94
a((lp95
F0.0
aF0.0
aF0.0
aF0.0
aF0.0
aF0.0
aF0.0
aF0.0
aF0.0
aF0.0
aF0.0
aF0.0
aF0.0
aF0.0
aF0.0
aF0.36321417495946706
aF-0.703363527188302
aF0.036182657160788056
aF2.0302484311172724
aF0.6602416485046004
aF0.0
aF-1.393332248597669
aF-0.17088860603405667
aF0.0
aF0.0
aF0.0
aF0.0
aF0.0
aF0.0
aF0.0
aF0.0
aF0.0
aF0.0
aF0.0
aF0.0
aF0.0
aF-0.76
aF0.0
aF1.98
aF0.0
aF0.0
aF0.3
aF0.0
aF0.0
aF0.0
aF0.0
aF0.0
aF0.0
aF0.0
aF0.0
aF0.0
aF0.0
aF0.0
aF0.0
aF0.0
aF0.0
aF0.0
aF0.0
aF0.0
aF2.4e-322
aF0.0
aI0
tp96
a((lp97
F0.0
aF0.0
aF0.0
aF0.0
aF0.0
aF0.0
aF0.0
aF0.0
aF0.0
aF0.0
aF0.0
aF0.0
aF0.0
aF0.0
aF0.0
aF0.361514561795799
aF-0.7032755941272226
aF0.03820311452884053
aF2.030209397254244
aF0.6596839178615782
aF0.0
aF-1.3941905411637927
aF-0.1720095695902944
aF0.0
aF0.0
aF0.0
aF0.0
aF0.0
aF0.0
aF0.0
aF0.0
aF0.0
aF0.0
aF0.0
aF0.0
aF0.0
aF-0.76
aF0.0
aF1.98
aF0.0
aF0.0
aF0.3
aF0.0
aF0.0
aF0.0
aF0.0
aF0.0
aF0.0
aF0.0
aF0.0
aF0.0
aF0.0
aF0.0
aF0.0
aF0.0
aF0.0
aF0.0
aF0.0
aF0.0
aF2.4e-322
aF0.0
aI0
tp98
a((lp99
F0.0
aF0.0
aF0.0
aF0.0
aF0.0
aF0.0
aF0.0
aF0.0
aF0.0
aF0.0
aF0.0
aF0.0
aF0.0
aF0.0
aF0.0
aF0.3611327441655215
aF-0.7032530299588989
aF0.038657937179645795
aF2.03019489704903
aF0.6595605619160061
aF0.0
aF-1.3943799844117208
aF-0.17226331453278296
aF0.0
aF0.0
aF0.0
aF0.0
aF0.0
aF0.0
aF0.0
aF0.0
aF0.0
aF0.0
aF0.0
aF0.0
aF0.0
aF-0.76
aF0.0
aF1.98
aF0.0
aF0.0
aF0.3
aF0.0
aF0.0
aF0.0
aF0.0
aF0.0
aF0.0
aF0.0
aF0.0
aF0.0
aF0.0
aF0.0
aF0.0
aF0.0
aF0.0
aF0.0
aF0.0
aF0.0
aF2.4e-322
aF0.0
aI0
tp100
a((lp101
F0.0
aF0.0
aF0.0
aF0.0
aF0.0
aF0.0
aF0.0
aF0.0
aF0.0
aF0.0
aF0.0
aF0.0
aF0.0
aF0.0
aF0.0
aF0.354664020843809
aF-0.7028374987833956
aF0.046339294425870904
aF2.0298904924122136
aF0.6574401264841421
aF0.0
aF-1.3975218372582654
aF-0.1765506915875084
aF0.0
aF0.0
aF0.0
aF0.0
aF0.0
aF0.0
aF0.0
aF0.0
aF0.0
aF0.0
aF0.0
aF0.0
aF0.0
aF-0.76
aF0.0
aF1.98
aF0.0
aF0.0
aF0.3
aF0.0
aF0.0
aF0.0
aF0.0
aF0.0
aF0.0
aF0.0
aF0.0
aF0.0
aF0.0
aF0.0
aF0.0
aF0.0
aF0.0
aF0.0
aF0.0
aF0.0
aF2.4e-322
aF0.0
aI0
tp102
a((lp103
F0.0
aF0.0
aF0.0
aF0.0
aF0.0
aF0.0
aF0.0
aF0.0
aF0.0
aF0.0
aF0.0
aF0.0
aF0.0
aF0.0
aF0.0
aF0.3540356284791348
aF-0.7028474827844187
aF0.04709641774054865
aF2.0300204751889073
aF0.6572209431968958
aF0.0
aF-1.3979552784112403
aF-0.17695436930179365
aF0.0
aF0.0
aF0.0
aF0.0
aF0.0
aF0.0
aF0.0
aF0.0
aF0.0
aF0.0
aF0.0
aF0.0
aF0.0
aF-0.76
aF0.0
aF1.98
aF0.0
aF0.0
aF0.3
aF0.0
aF0.0
aF0.0
aF0.0
aF0.0
aF0.0
aF0.0
aF0.0
aF0.0
aF0.0
aF0.0
aF0.0
aF0.0
aF0.0
aF0.0
aF0.0
aF0.0
aF2.4e-322
aF0.0
aI0
tp104
a((lp105
F0.0
aF0.0
aF0.0
aF0.0
aF0.0
aF0.0
aF0.0
aF0.0
aF0.0
aF0.0
aF0.0
aF0.0
aF0.0
aF0.0
aF0.0
aF0.34899371919091254
aF-0.7024776744842802
aF0.05307955411309356
aF2.0297394604290973
aF0.6555558077388337
aF0.0
aF-1.400368034179227
aF-0.18030758177178702
aF0.0
aF0.0
aF0.0
aF0.0
aF0.0
aF0.0
aF0.0
aF0.0
aF0.0
aF0.0
aF0.0
aF0.0
aF0.0
aF-0.76
aF0.0
aF1.98
aF0.0
aF0.0
aF0.3
aF0.0
aF0.0
aF0.0
aF0.0
aF0.0
aF0.0
aF0.0
aF0.0
aF0.0
aF0.0
aF0.0
aF0.0
aF0.0
aF0.0
aF0.0
aF0.0
aF0.0
aF2.4e-322
aF0.0
aI0
tp106
a((lp107
F0.0
aF0.0
aF0.0
aF0.0
aF0.0
aF0.0
aF0.0
aF0.0
aF0.0
aF0.0
aF0.0
aF0.0
aF0.0
aF0.0
aF0.0
aF0.3483556506710609
aF-0.7024788137292379
aF0.05385118735762804
aF2.0298622602887972
aF0.6553366747564244
aF0.0
aF-1.400803782382089
aF-0.1807199617939445
aF0.0
aF0.0
aF0.0
aF0.0
aF0.0
aF0.0
aF0.0
aF0.0
aF0.0
aF0.0
aF0.0
aF0.0
aF0.0
aF-0.76
aF0.0
aF1.98
aF0.0
aF0.0
aF0.3
aF0.0
aF0.0
aF0.0
aF0.0
aF0.0
aF0.0
aF0.0
aF0.0
aF0.0
aF0.0
aF0.0
aF0.0
aF0.0
aF0.0
aF0.0
aF0.0
aF0.0
aF2.4e-322
aF0.0
aI0
tp108
a((lp109
F0.0
aF0.0
aF0.0
aF0.0
aF0.0
aF0.0
aF0.0
aF0.0
aF0.0
aF0.0
aF0.0
aF0.0
aF0.0
aF0.0
aF0.0
aF0.34335569036881053
aF-0.7021326716128131
aF0.05979679475407994
aF2.0297357726383845
aF0.6536635337639983
aF0.0
aF-1.4033183647075138
aF-0.18403770810121706
aF0.0
aF0.0
aF0.0
aF0.0
aF0.0
aF0.0
aF0.0
aF0.0
aF0.0
aF0.0
aF0.0
aF0.0
aF0.0
aF-0.76
aF0.0
aF1.98
aF0.0
aF0.0
aF0.3
aF0.0
aF0.0
aF0.0
aF0.0
aF0.0
aF0.0
aF0.0
aF0.0
aF0.0
aF0.0
aF0.0
aF0.0
aF0.0
aF0.0
aF0.0
aF0.0
aF0.0
aF2.4e-322
aF0.0
aI0
tp110
a((lp111
F0.0
aF0.0
aF0.0
aF0.0
aF0.0
aF0.0
aF0.0
aF0.0
aF0.0
aF0.0
aF0.0
aF0.0
aF0.0
aF0.0
aF0.0
aF0.3347272856959722
aF-0.7014636771149769
aF0.07005840289311098
aF2.0294865641476614
aF0.6507549855484007
aF0.0
aF-1.407635940609778
aF-0.18978167287491343
aF0.0
aF0.0
aF0.0
aF0.0
aF0.0
aF0.0
aF0.0
aF0.0
aF0.0
aF0.0
aF0.0
aF0.0
aF0.0
aF-0.76
aF0.0
aF1.98
aF0.0
aF0.0
aF0.3
aF0.0
aF0.0
aF0.0
aF0.0
aF0.0
aF0.0
aF0.0
aF0.0
aF0.0
aF0.0
aF0.0
aF0.0
aF0.0
aF0.0
aF0.0
aF0.0
aF0.0
aF2.4e-322
aF0.0
aI0
tp112
a((lp113
F0.0
aF0.0
aF0.0
aF0.0
aF0.0
aF0.0
aF0.0
aF0.0
aF0.0
aF0.0
aF0.0
aF0.0
aF0.0
aF0.0
aF0.0
aF0.33120846004834986
aF-0.7011669559237124
aF0.07424446955618338
aF2.029380161054759
aF0.649560602093388
aF0.0
aF-1.4093941108821983
aF-0.19213073463707112
aF0.0
aF0.0
aF0.0
aF0.0
aF0.0
aF0.0
aF0.0
aF0.0
aF0.0
aF0.0
aF0.0
aF0.0
aF0.0
aF-0.76
aF0.0
aF1.98
aF0.0
aF0.0
aF0.3
aF0.0
aF0.0
aF0.0
aF0.0
aF0.0
aF0.0
aF0.0
aF0.0
aF0.0
aF0.0
aF0.0
aF0.0
aF0.0
aF0.0
aF0.0
aF0.0
aF0.0
aF2.4e-322
aF0.0
aI0
tp114
a((lp115
F0.0
aF0.0
aF0.0
aF0.0
aF0.0
aF0.0
aF0.0
aF0.0
aF0.0
aF0.0
aF0.0
aF0.0
aF0.0
aF0.0
aF0.0
aF0.32646785653720767
aF-0.7007467737070368
aF0.07988348132913584
aF2.029234936019836
aF0.6479417864236742
aF0.0
aF-1.4117603824058238
aF-0.1952994867957588
aF0.0
aF0.0
aF0.0
aF0.0
aF0.0
aF0.0
aF0.0
aF0.0
aF0.0
aF0.0
aF0.0
aF0.0
aF0.0
aF-0.76
aF0.0
aF1.98
aF0.0
aF0.0
aF0.3
aF0.0
aF0.0
aF0.0
aF0.0
aF0.0
aF0.0
aF0.0
aF0.0
aF0.0
aF0.0
aF0.0
aF0.0
aF0.0
aF0.0
aF0.0
aF0.0
aF0.0
aF2.4e-322
aF0.0
aI0
tp116
a((lp117
F0.0
aF0.0
aF0.0
aF0.0
aF0.0
aF0.0
aF0.0
aF0.0
aF0.0
aF0.0
aF0.0
aF0.0
aF0.0
aF0.0
aF0.0
aF0.32430648275132534
aF-0.7005469524046227
aF0.08245464929689549
aF2.02916710528513
aF0.6472004985303733
aF0.0
aF-1.4128380944175474
aF-0.19674634788145423
aF0.0
aF0.0
aF0.0
aF0.0
aF0.0
aF0.0
aF0.0
aF0.0
aF0.0
aF0.0
aF0.0
aF0.0
aF0.0
aF-0.76
aF0.0
aF1.98
aF0.0
aF0.0
aF0.3
aF0.0
aF0.0
aF0.0
aF0.0
aF0.0
aF0.0
aF0.0
aF0.0
aF0.0
aF0.0
aF0.0
aF0.0
aF0.0
aF0.0
aF0.0
aF0.0
aF0.0
aF2.4e-322
aF0.0
aI0
tp118
a((lp119
F0.0
aF0.0
aF0.0
aF0.0
aF0.0
aF0.0
aF0.0
aF0.0
aF0.0
aF0.0
aF0.0
aF0.0
aF0.0
aF0.0
aF0.0
aF0.32405900913676206
aF-0.7005238448827086
aF0.0827489645193728
aF2.029159451561437
aF0.6471153847382095
aF0.0
aF-1.4129614656856664
aF-0.19691198311517685
aF0.0
aF0.0
aF0.0
aF0.0
aF0.0
aF0.0
aF0.0
aF0.0
aF0.0
aF0.0
aF0.0
aF0.0
aF0.0
aF-0.76
aF0.0
aF1.98
aF0.0
aF0.0
aF0.3
aF0.0
aF0.0
aF0.0
aF0.0
aF0.0
aF0.0
aF0.0
aF0.0
aF0.0
aF0.0
aF0.0
aF0.0
aF0.0
aF0.0
aF0.0
aF0.0
aF0.0
aF2.4e-322
aF0.0
aI0
tp120
a((lp121
F0.0
aF0.0
aF0.0
aF0.0
aF0.0
aF0.0
aF0.0
aF0.0
aF0.0
aF0.0
aF0.0
aF0.0
aF0.0
aF0.0
aF0.0
aF0.32365227608531877
aF-0.700487463585528
aF0.08323206361310245
aF2.029151313443543
aF0.646974162637431
aF0.0
aF-1.413166710814935
aF-0.19718263788937654
aF0.0
aF0.0
aF0.0
aF0.0
aF0.0
aF0.0
aF0.0
aF0.0
aF0.0
aF0.0
aF0.0
aF0.0
aF0.0
aF-0.76
aF0.0
aF1.98
aF0.0
aF0.0
aF0.3
aF0.0
aF0.0
aF0.0
aF0.0
aF0.0
aF0.0
aF0.0
aF0.0
aF0.0
aF0.0
aF0.0
aF0.0
aF0.0
aF0.0
aF0.0
aF0.0
aF0.0
aF2.4e-322
aF0.0
aI0
tp122
a((lp123
F0.0
aF0.0
aF0.0
aF0.0
aF0.0
aF0.0
aF0.0
aF0.0
aF0.0
aF0.0
aF0.0
aF0.0
aF0.0
aF0.0
aF0.0
aF0.3223847316762564
aF-0.7003650138111903
aF0.0847408039217088
aF2.029106070911671
aF0.6465396068873978
aF0.0
aF-1.413795748565594
aF-0.19803386606409934
aF0.0
aF0.0
aF0.0
aF0.0
aF0.0
aF0.0
aF0.0
aF0.0
aF0.0
aF0.0
aF0.0
aF0.0
aF0.0
aF-0.76
aF0.0
aF1.98
aF0.0
aF0.0
aF0.3
aF0.0
aF0.0
aF0.0
aF0.0
aF0.0
aF0.0
aF0.0
aF0.0
aF0.0
aF0.0
aF0.0
aF0.0
aF0.0
aF0.0
aF0.0
aF0.0
aF0.0
aF2.4e-322
aF0.0
aI0
tp124
a((lp125
F0.0
aF0.0
aF0.0
aF0.0
aF0.0
aF0.0
aF0.0
aF0.0
aF0.0
aF0.0
aF0.0
aF0.0
aF0.0
aF0.0
aF0.0
aF0.32143677502196893
aF-0.7002476270116346
aF0.08584968105936275
aF2.0289709623468095
aF0.646208021628793
aF0.0
aF-1.4141734921279394
aF-0.19867908473900525
aF0.0
aF0.0
aF0.0
aF0.0
aF0.0
aF0.0
aF0.0
aF0.0
aF0.0
aF0.0
aF0.0
aF0.0
aF0.0
aF-0.76
aF0.0
aF1.98
aF0.0
aF0.0
aF0.3
aF0.0
aF0.0
aF0.0
aF0.0
aF0.0
aF0.0
aF0.0
aF0.0
aF0.0
aF0.0
aF0.0
aF0.0
aF0.0
aF0.0
aF0.0
aF0.0
aF0.0
aF2.4e-322
aF0.0
aI0
tp126
a((lp127
F0.0
aF0.0
aF0.0
aF0.0
aF0.0
aF0.0
aF0.0
aF0.0
aF0.0
aF0.0
aF0.0
aF0.0
aF0.0
aF0.0
aF0.0
aF0.3208378688154545
aF-0.7002170470557785
aF0.0865806410280122
aF2.0290601895649516
aF0.6460055296330733
aF0.0
aF-1.4145684531061309
aF-0.19906973093827096
aF0.0
aF0.0
aF0.0
aF0.0
aF0.0
aF0.0
aF0.0
aF0.0
aF0.0
aF0.0
aF0.0
aF0.0
aF0.0
aF-0.76
aF0.0
aF1.98
aF0.0
aF0.0
aF0.3
aF0.0
aF0.0
aF0.0
aF0.0
aF0.0
aF0.0
aF0.0
aF0.0
aF0.0
aF0.0
aF0.0
aF0.0
aF0.0
aF0.0
aF0.0
aF0.0
aF0.0
aF2.4e-322
aF0.0
aI0
tp128
a((lp129
F0.0
aF0.0
aF0.0
aF0.0
aF0.0
aF0.0
aF0.0
aF0.0
aF0.0
aF0.0
aF0.0
aF0.0
aF0.0
aF0.0
aF0.0
aF0.3189226461631667
aF-0.6999662845744374
aF0.08873657601436769
aF2.028584060483327
aF0.6452981505500524
aF0.0
aF-1.4151652083367612
aF-0.20051414332372502
aF0.0
aF0.0
aF0.0
aF0.0
aF0.0
aF0.0
aF0.0
aF0.0
aF0.0
aF0.0
aF0.0
aF0.0
aF0.0
aF-0.76
aF0.0
aF1.98
aF0.0
aF0.0
aF0.3
aF0.0
aF0.0
aF0.0
aF0.0
aF0.0
aF0.0
aF0.0
aF0.0
aF0.0
aF0.0
aF0.0
aF0.0
aF0.0
aF0.0
aF0.0
aF0.0
aF0.0
aF2.4e-322
aF0.0
aI0
tp130
a((lp131
F0.0
aF0.0
aF0.0
aF0.0
aF0.0
aF0.0
aF0.0
aF0.0
aF0.0
aF0.0
aF0.0
aF0.0
aF0.0
aF0.0
aF0.0
aF0.3188411189137172
aF-0.6999551935349547
aF0.08883489184181449
aF2.028576025215279
aF0.6452716793225491
aF0.0
aF-1.4152049180581268
aF-0.20057176210609773
aF0.0
aF0.0
aF0.0
aF0.0
aF0.0
aF0.0
aF0.0
aF0.0
aF0.0
aF0.0
aF0.0
aF0.0
aF0.0
aF-0.76
aF0.0
aF1.98
aF0.0
aF0.0
aF0.3
aF0.0
aF0.0
aF0.0
aF0.0
aF0.0
aF0.0
aF0.0
aF0.0
aF0.0
aF0.0
aF0.0
aF0.0
aF0.0
aF0.0
aF0.0
aF0.0
aF0.0
aF2.4e-322
aF0.0
aI0
tp132
a((lp133
F0.0
aF0.0
aF0.0
aF0.0
aF0.0
aF0.0
aF0.0
aF0.0
aF0.0
aF0.0
aF0.0
aF0.0
aF0.0
aF0.0
aF0.0
aF0.3187355476537603
aF-0.6999424863494065
aF0.08896123150436028
aF2.0285691046832928
aF0.64523598742293
aF0.0
aF-1.4152571147947646
aF-0.20064429060880495
aF0.0
aF0.0
aF0.0
aF0.0
aF0.0
aF0.0
aF0.0
aF0.0
aF0.0
aF0.0
aF0.0
aF0.0
aF0.0
aF-0.76
aF0.0
aF1.98
aF0.0
aF0.0
aF0.3
aF0.0
aF0.0
aF0.0
aF0.0
aF0.0
aF0.0
aF0.0
aF0.0
aF0.0
aF0.0
aF0.0
aF0.0
aF0.0
aF0.0
aF0.0
aF0.0
aF0.0
aF2.4e-322
aF0.0
aI0
tp134
a((lp135
F0.0
aF0.0
aF0.0
aF0.0
aF0.0
aF0.0
aF0.0
aF0.0
aF0.0
aF0.0
aF0.0
aF0.0
aF0.0
aF0.0
aF0.0
aF0.31866671888401477
aF-0.6999361251011471
aF0.08904300195643305
aF2.028568017889589
aF0.6452118877215124
aF0.0
aF-1.415291817870428
aF-0.2006899884452631
aF0.0
aF0.0
aF0.0
aF0.0
aF0.0
aF0.0
aF0.0
aF0.0
aF0.0
aF0.0
aF0.0
aF0.0
aF0.0
aF-0.76
aF0.0
aF1.98
aF0.0
aF0.0
aF0.3
aF0.0
aF0.0
aF0.0
aF0.0
aF0.0
aF0.0
aF0.0
aF0.0
aF0.0
aF0.0
aF0.0
aF0.0
aF0.0
aF0.0
aF0.0
aF0.0
aF0.0
aF2.4e-322
aF0.0
aI0
tp136
a((lp137
F0.0
aF0.0
aF0.0
aF0.0
aF0.0
aF0.0
aF0.0
aF0.0
aF0.0
aF0.0
aF0.0
aF0.0
aF0.0
aF0.0
aF0.0
aF0.31862347326010376
aF-0.699925864737726
aF0.08909645461938727
aF2.0285559843611365
aF0.6451996667622505
aF0.0
aF-1.4153112491945337
aF-0.20072406973002307
aF0.0
aF0.0
aF0.0
aF0.0
aF0.0
aF0.0
aF0.0
aF0.0
aF0.0
aF0.0
aF0.0
aF0.0
aF0.0
aF-0.76
aF0.0
aF1.98
aF0.0
aF0.0
aF0.3
aF0.0
aF0.0
aF0.0
aF0.0
aF0.0
aF0.0
aF0.0
aF0.0
aF0.0
aF0.0
aF0.0
aF0.0
aF0.0
aF0.0
aF0.0
aF0.0
aF0.0
aF2.4e-322
aF0.0
aI0
tp138
a((lp139
F0.0
aF0.0
aF0.0
aF0.0
aF0.0
aF0.0
aF0.0
aF0.0
aF0.0
aF0.0
aF0.0
aF0.0
aF0.0
aF0.0
aF0.0
aF0.3185842881042998
aF-0.6999334105584871
aF0.08913934772910213
aF2.0285749702883145
aF0.6451811041152348
aF0.0
aF-1.4153344996590165
aF-0.2007407965475027
aF0.0
aF0.0
aF0.0
aF0.0
aF0.0
aF0.0
aF0.0
aF0.0
aF0.0
aF0.0
aF0.0
aF0.0
aF0.0
aF-0.76
aF0.0
aF1.98
aF0.0
aF0.0
aF0.3
aF0.0
aF0.0
aF0.0
aF0.0
aF0.0
aF0.0
aF0.0
aF0.0
aF0.0
aF0.0
aF0.0
aF0.0
aF0.0
aF0.0
aF0.0
aF0.0
aF0.0
aF2.4e-322
aF0.0
aI0
tp140
a((lp141
F0.0
aF0.0
aF0.0
aF0.0
aF0.0
aF0.0
aF0.0
aF0.0
aF0.0
aF0.0
aF0.0
aF0.0
aF0.0
aF0.0
aF0.0
aF0.31828386614441134
aF-0.6998913045181288
aF0.08950143237739291
aF2.0285446896473682
aF0.6450828103723774
aF0.0
aF-1.4154815238928515
aF-0.2009530377369125
aF0.0
aF0.0
aF0.0
aF0.0
aF0.0
aF0.0
aF0.0
aF0.0
aF0.0
aF0.0
aF0.0
aF0.0
aF0.0
aF-0.76
aF0.0
aF1.98
aF0.0
aF0.0
aF0.3
aF0.0
aF0.0
aF0.0
aF0.0
aF0.0
aF0.0
aF0.0
aF0.0
aF0.0
aF0.0
aF0.0
aF0.0
aF0.0
aF0.0
aF0.0
aF0.0
aF0.0
aF2.4e-322
aF0.0
aI0
tp142
a((lp143
F0.0
aF0.0
aF0.0
aF0.0
aF0.0
aF0.0
aF0.0
aF0.0
aF0.0
aF0.0
aF0.0
aF0.0
aF0.0
aF0.0
aF0.0
aF0.28999020558582805
aF-0.6966715703664264
aF0.1232643920833298
aF2.0278854777759427
aF0.6351256895832501
aF0.0
aF-1.429776647634154
aF-0.2199126735303538
aF0.0
aF0.0
aF0.0
aF0.0
aF0.0
aF0.0
aF0.0
aF0.0
aF0.0
aF0.0
aF0.0
aF0.0
aF0.0
aF-0.76
aF0.0
aF1.98
aF0.0
aF0.0
aF0.3
aF0.0
aF0.0
aF0.0
aF0.0
aF0.0
aF0.0
aF0.0
aF0.0
aF0.0
aF0.0
aF0.0
aF0.0
aF0.0
aF0.0
aF0.0
aF0.0
aF0.0
aF2.4e-322
aF0.0
aI0
tp144
a((lp145
F0.0
aF0.0
aF0.0
aF0.0
aF0.0
aF0.0
aF0.0
aF0.0
aF0.0
aF0.0
aF0.0
aF0.0
aF0.0
aF0.0
aF0.0
aF0.28599655925430695
aF-0.6962483315188766
aF0.12795081795088362
aF2.027757960076213
aF0.6336392669700027
aF0.0
aF-1.4316714024189057
aF-0.22270031080223754
aF0.0
aF0.0
aF0.0
aF0.0
aF0.0
aF0.0
aF0.0
aF0.0
aF0.0
aF0.0
aF0.0
aF0.0
aF0.0
aF-0.76
aF0.0
aF1.98
aF0.0
aF0.0
aF0.3
aF0.0
aF0.0
aF0.0
aF0.0
aF0.0
aF0.0
aF0.0
aF0.0
aF0.0
aF0.0
aF0.0
aF0.0
aF0.0
aF0.0
aF0.0
aF0.0
aF0.0
aF2.4e-322
aF0.0
aI0
tp146
a((lp147
F0.0
aF0.0
aF0.0
aF0.0
aF0.0
aF0.0
aF0.0
aF0.0
aF0.0
aF0.0
aF0.0
aF0.0
aF0.0
aF0.0
aF0.0
aF0.2740199540853344
aF-0.6944301841127508
aF0.14230792903937695
aF2.0273185956889987
aF0.6293324316059654
aF0.0
aF-1.4377328063563701
aF-0.23081613624238545
aF0.0
aF0.0
aF0.0
aF0.0
aF0.0
aF0.0
aF0.0
aF0.0
aF0.0
aF0.0
aF0.0
aF0.0
aF0.0
aF-0.76
aF0.0
aF1.98
aF0.0
aF0.0
aF0.3
aF0.0
aF0.0
aF0.0
aF0.0
aF0.0
aF0.0
aF0.0
aF0.0
aF0.0
aF0.0
aF0.0
aF0.0
aF0.0
aF0.0
aF0.0
aF0.0
aF0.0
aF2.4e-322
aF0.0
aI0
tp148
a((lp149
F0.0
aF0.0
aF0.0
aF0.0
aF0.0
aF0.0
aF0.0
aF0.0
aF0.0
aF0.0
aF0.0
aF0.0
aF0.0
aF0.0
aF0.0
aF0.2540414834502336
aF-0.6912013763238536
aF0.1661091132447612
aF2.026428229797259
aF0.62187444784809
aF0.0
aF-1.4475312794608395
aF-0.24460026970043963
aF0.0
aF0.0
aF0.0
aF0.0
aF0.0
aF0.0
aF0.0
aF0.0
aF0.0
aF0.0
aF0.0
aF0.0
aF0.0
aF-0.76
aF0.0
aF1.98
aF0.0
aF0.0
aF0.3
aF0.0
aF0.0
aF0.0
aF0.0
aF0.0
aF0.0
aF0.0
aF0.0
aF0.0
aF0.0
aF0.0
aF0.0
aF0.0
aF0.0
aF0.0
aF0.0
aF0.0
aF2.4e-322
aF0.0
aI0
tp150
a((lp151
F0.0
aF0.0
aF0.0
aF0.0
aF0.0
aF0.0
aF0.0
aF0.0
aF0.0
aF0.0
aF0.0
aF0.0
aF0.0
aF0.0
aF0.0
aF0.13647302461553812
aF-0.6624582128399588
aF0.30656004856506613
aF2.01936917077824
aF0.57283114302511
aF0.0
aF-1.5043699904711116
aF-0.3295592904416734
aF0.0
aF0.0
aF0.0
aF0.0
aF0.0
aF0.0
aF0.0
aF0.0
aF0.0
aF0.0
aF0.0
aF0.0
aF0.0
aF-0.76
aF0.0
aF1.98
aF0.0
aF0.0
aF0.3
aF0.0
aF0.0
aF0.0
aF0.0
aF0.0
aF0.0
aF0.0
aF0.0
aF0.0
aF0.0
aF0.0
aF0.0
aF0.0
aF0.0
aF0.0
aF0.0
aF0.0
aF2.4e-322
aF0.0
aI0
tp152
a((lp153
F0.0
aF0.0
aF0.0
aF0.0
aF0.0
aF0.0
aF0.0
aF0.0
aF0.0
aF0.0
aF0.0
aF0.0
aF0.0
aF0.0
aF0.0
aF0.133615702640509
aF-0.6621126605260775
aF0.3100640870815783
aF2.020774909258085
aF0.5712372658834144
aF0.0
aF-1.5068165326405607
aF-0.3312330965203702
aF0.0
aF0.0
aF0.0
aF0.0
aF0.0
aF0.0
aF0.0
aF0.0
aF0.0
aF0.0
aF0.0
aF0.0
aF0.0
aF-0.76
aF0.0
aF1.98
aF0.0
aF0.0
aF0.3
aF0.0
aF0.0
aF0.0
aF0.0
aF0.0
aF0.0
aF0.0
aF0.0
aF0.0
aF0.0
aF0.0
aF0.0
aF0.0
aF0.0
aF0.0
aF0.0
aF0.0
aF2.4e-322
aF0.0
aI0
tp154
a((lp155
F0.0
aF0.0
aF0.0
aF0.0
aF0.0
aF0.0
aF0.0
aF0.0
aF0.0
aF0.0
aF0.0
aF0.0
aF0.0
aF0.0
aF0.0
aF0.12688725742289506
aF-0.6599628901107328
aF0.3180896436066822
aF2.020339981456585
aF0.5680339722847869
aF0.0
aF-1.5099506600741472
aF-0.33620809053639705
aF0.0
aF0.0
aF0.0
aF0.0
aF0.0
aF0.0
aF0.0
aF0.0
aF0.0
aF0.0
aF0.0
aF0.0
aF0.0
aF-0.76
aF0.0
aF1.98
aF0.0
aF0.0
aF0.3
aF0.0
aF0.0
aF0.0
aF0.0
aF0.0
aF0.0
aF0.0
aF0.0
aF0.0
aF0.0
aF0.0
aF0.0
aF0.0
aF0.0
aF0.0
aF0.0
aF0.0
aF2.4e-322
aF0.0
aI0
tp156
a((lp157
F0.0
aF0.0
aF0.0
aF0.0
aF0.0
aF0.0
aF0.0
aF0.0
aF0.0
aF0.0
aF0.0
aF0.0
aF0.0
aF0.0
aF0.0
aF0.12009470161613421
aF-0.6579604277829489
aF0.32628751921745924
aF2.0203362566113254
aF0.5646765566306419
aF0.0
aF-1.5135009782480355
aF-0.34140557502583335
aF0.0
aF0.0
aF0.0
aF0.0
aF0.0
aF0.0
aF0.0
aF0.0
aF0.0
aF0.0
aF0.0
aF0.0
aF0.0
aF-0.76
aF0.0
aF1.98
aF0.0
aF0.0
aF0.3
aF0.0
aF0.0
aF0.0
aF0.0
aF0.0
aF0.0
aF0.0
aF0.0
aF0.0
aF0.0
aF0.0
aF0.0
aF0.0
aF0.0
aF0.0
aF0.0
aF0.0
aF2.4e-322
aF0.0
aI0
tp158
a((lp159
F0.0
aF0.0
aF0.0
aF0.0
aF0.0
aF0.0
aF0.0
aF0.0
aF0.0
aF0.0
aF0.0
aF0.0
aF0.0
aF0.0
aF0.0
aF0.11478386815333137
aF-0.6563517733191776
aF0.3326669296021963
aF2.0202738076164244
aF0.5620066977602027
aF0.0
aF-1.516148282649222
aF-0.3454139249898307
aF0.0
aF0.0
aF0.0
aF0.0
aF0.0
aF0.0
aF0.0
aF0.0
aF0.0
aF0.0
aF0.0
aF0.0
aF0.0
aF-0.76
aF0.0
aF1.98
aF0.0
aF0.0
aF0.3
aF0.0
aF0.0
aF0.0
aF0.0
aF0.0
aF0.0
aF0.0
aF0.0
aF0.0
aF0.0
aF0.0
aF0.0
aF0.0
aF0.0
aF0.0
aF0.0
aF0.0
aF2.4e-322
aF0.0
aI0
tp160
a((lp161
F0.0
aF0.0
aF0.0
aF0.0
aF0.0
aF0.0
aF0.0
aF0.0
aF0.0
aF0.0
aF0.0
aF0.0
aF0.0
aF0.0
aF0.0
aF0.11052933472066617
aF-0.6550838511101106
aF0.33774990102597047
aF2.020214230112615
aF0.5599252980562175
aF0.0
aF-1.518175146108187
aF-0.34862669996304935
aF0.0
aF0.0
aF0.0
aF0.0
aF0.0
aF0.0
aF0.0
aF0.0
aF0.0
aF0.0
aF0.0
aF0.0
aF0.0
aF-0.76
aF0.0
aF1.98
aF0.0
aF0.0
aF0.3
aF0.0
aF0.0
aF0.0
aF0.0
aF0.0
aF0.0
aF0.0
aF0.0
aF0.0
aF0.0
aF0.0
aF0.0
aF0.0
aF0.0
aF0.0
aF0.0
aF0.0
aF2.4e-322
aF0.0
aI0
tp162
a((lp163
F0.0
aF0.0
aF0.0
aF0.0
aF0.0
aF0.0
aF0.0
aF0.0
aF0.0
aF0.0
aF0.0
aF0.0
aF0.0
aF0.0
aF0.0
aF0.0995958058260122
aF-0.6498076910833825
aF0.35082994590002076
aF2.016551737209831
aF0.5552753013049534
aF0.0
aF-1.5219826337332765
aF-0.3579720837270794
aF0.0
aF0.0
aF0.0
aF0.0
aF0.0
aF0.0
aF0.0
aF0.0
aF0.0
aF0.0
aF0.0
aF0.0
aF0.0
aF-0.76
aF0.0
aF1.98
aF0.0
aF0.0
aF0.3
aF0.0
aF0.0
aF0.0
aF0.0
aF0.0
aF0.0
aF0.0
aF0.0
aF0.0
aF0.0
aF0.0
aF0.0
aF0.0
aF0.0
aF0.0
aF0.0
aF0.0
aF2.4e-322
aF0.0
aI0
tp164
a((lp165
F0.0
aF0.0
aF0.0
aF0.0
aF0.0
aF0.0
aF0.0
aF0.0
aF0.0
aF0.0
aF0.0
aF0.0
aF0.0
aF0.0
aF0.0
aF0.07778890810637783
aF-0.6429506497525731
aF0.37739550945676253
aF2.0183284951355094
aF0.5452059733139917
aF0.0
aF-1.5344061077647018
aF-0.3744373246552023
aF0.0
aF0.0
aF0.0
aF0.0
aF0.0
aF0.0
aF0.0
aF0.0
aF0.0
aF0.0
aF0.0
aF0.0
aF0.0
aF-0.76
aF0.0
aF1.98
aF0.0
aF0.0
aF0.3
aF0.0
aF0.0
aF0.0
aF0.0
aF0.0
aF0.0
aF0.0
aF0.0
aF0.0
aF0.0
aF0.0
aF0.0
aF0.0
aF0.0
aF0.0
aF0.0
aF0.0
aF2.4e-322
aF0.0
aI0
tp166
a((lp167
F0.0
aF0.0
aF0.0
aF0.0
aF0.0
aF0.0
aF0.0
aF0.0
aF0.0
aF0.0
aF0.0
aF0.0
aF0.0
aF0.0
aF0.0
aF0.07671913631787787
aF-0.6424915137855403
aF0.3786630528827207
aF2.0181493118824316
aF0.5446221426487898
aF0.0
aF-1.5348536259225403
aF-0.3753043703394841
aF0.0
aF0.0
aF0.0
aF0.0
aF0.0
aF0.0
aF0.0
aF0.0
aF0.0
aF0.0
aF0.0
aF0.0
aF0.0
aF-0.76
aF0.0
aF1.98
aF0.0
aF0.0
aF0.3
aF0.0
aF0.0
aF0.0
aF0.0
aF0.0
aF0.0
aF0.0
aF0.0
aF0.0
aF0.0
aF0.0
aF0.0
aF0.0
aF0.0
aF0.0
aF0.0
aF0.0
aF2.4e-322
aF0.0
aI0
tp168
a((lp169
F0.0
aF0.0
aF0.0
aF0.0
aF0.0
aF0.0
aF0.0
aF0.0
aF0.0
aF0.0
aF0.0
aF0.0
aF0.0
aF0.0
aF0.0
aF0.06640011595376319
aF-0.6373285412170384
aF0.39044595834603646
aF2.0153823432295312
aF0.53779786748225
aF0.0
aF-1.5380524710019496
aF-0.38275390672758175
aF0.0
aF0.0
aF0.0
aF0.0
aF0.0
aF0.0
aF0.0
aF0.0
aF0.0
aF0.0
aF0.0
aF0.0
aF0.0
aF-0.76
aF0.0
aF1.98
aF0.0
aF0.0
aF0.3
aF0.0
aF0.0
aF0.0
aF0.0
aF0.0
aF0.0
aF0.0
aF0.0
aF0.0
aF0.0
aF0.0
aF0.0
aF0.0
aF0.0
aF0.0
aF0.0
aF0.0
aF2.4e-322
aF0.0
aI0
tp170
a((lp171
F0.0
aF0.0
aF0.0
aF0.0
aF0.0
aF0.0
aF0.0
aF0.0
aF0.0
aF0.0
aF0.0
aF0.0
aF0.0
aF0.0
aF0.0
aF0.0673337975582488
aF-0.6371869824945783
aF0.3895349567913224
aF2.013832789026464
aF0.5387853232696982
aF0.0
aF-1.5372158725173124
aF-0.383572544277775
aF0.0
aF0.0
aF0.0
aF0.0
aF0.0
aF0.0
aF0.0
aF0.0
aF0.0
aF0.0
aF0.0
aF0.0
aF0.0
aF-0.76
aF0.0
aF1.98
aF0.0
aF0.0
aF0.3
aF0.0
aF0.0
aF0.0
aF0.0
aF0.0
aF0.0
aF0.0
aF0.0
aF0.0
aF0.0
aF0.0
aF0.0
aF0.0
aF0.0
aF0.0
aF0.0
aF0.0
aF2.4e-322
aF0.0
aI0
tp172
a((lp173
F0.0
aF0.0
aF0.0
aF0.0
aF0.0
aF0.0
aF0.0
aF0.0
aF0.0
aF0.0
aF0.0
aF0.0
aF0.0
aF0.0
aF0.0
aF0.06599570190993657
aF-0.6374574474464708
aF0.3909607360601877
aF2.0155627513605188
aF0.5377811603945182
aF0.0
aF-1.5382307488229774
aF-0.383314553930302
aF0.0
aF0.0
aF0.0
aF0.0
aF0.0
aF0.0
aF0.0
aF0.0
aF0.0
aF0.0
aF0.0
aF0.0
aF0.0
aF-0.76
aF0.0
aF1.98
aF0.0
aF0.0
aF0.3
aF0.0
aF0.0
aF0.0
aF0.0
aF0.0
aF0.0
aF0.0
aF0.0
aF0.0
aF0.0
aF0.0
aF0.0
aF0.0
aF0.0
aF0.0
aF0.0
aF0.0
aF2.4e-322
aF0.0
aI0
tp174
a((lp175
F0.0
aF0.0
aF0.0
aF0.0
aF0.0
aF0.0
aF0.0
aF0.0
aF0.0
aF0.0
aF0.0
aF0.0
aF0.0
aF0.0
aF0.0
aF0.05952172564684962
aF-0.6346918013039354
aF0.39875704236146386
aF2.0148686377655904
aF0.5344504486189439
aF0.0
aF-1.5413029400015812
aF-0.38875181483467264
aF0.0
aF0.0
aF0.0
aF0.0
aF0.0
aF0.0
aF0.0
aF0.0
aF0.0
aF0.0
aF0.0
aF0.0
aF0.0
aF-0.76
aF0.0
aF1.98
aF0.0
aF0.0
aF0.3
aF0.0
aF0.0
aF0.0
aF0.0
aF0.0
aF0.0
aF0.0
aF0.0
aF0.0
aF0.0
aF0.0
aF0.0
aF0.0
aF0.0
aF0.0
aF0.0
aF0.0
aF2.4e-322
aF0.0
aI0
tp176
a((lp177
F0.0
aF0.0
aF0.0
aF0.0
aF0.0
aF0.0
aF0.0
aF0.0
aF0.0
aF0.0
aF0.0
aF0.0
aF0.0
aF0.0
aF0.0
aF0.011733040567146202
aF-0.6118042582961271
aF0.4565724965990686
aF2.00870357313748
aF0.5078131094926246
aF0.0
aF-1.563415522354976
aF-0.4299055202626032
aF0.0
aF0.0
aF0.0
aF0.0
aF0.0
aF0.0
aF0.0
aF0.0
aF0.0
aF0.0
aF0.0
aF0.0
aF0.0
aF-0.76
aF0.0
aF1.98
aF0.0
aF0.0
aF0.3
aF0.0
aF0.0
aF0.0
aF0.0
aF0.0
aF0.0
aF0.0
aF0.0
aF0.0
aF0.0
aF0.0
aF0.0
aF0.0
aF0.0
aF0.0
aF0.0
aF0.0
aF2.4e-322
aF0.0
aI0
tp178
a((lp179
F0.0
aF0.0
aF0.0
aF0.0
aF0.0
aF0.0
aF0.0
aF0.0
aF0.0
aF0.0
aF0.0
aF0.0
aF0.0
aF0.0
aF0.0
aF0.008726762027652197
aF-0.610319871738361
aF0.46018908160324706
aF2.008402874566598
aF0.5060468206994861
aF0.0
aF-1.5647688980257601
aF-0.4325101336910999
aF0.0
aF0.0
aF0.0
aF0.0
aF0.0
aF0.0
aF0.0
aF0.0
aF0.0
aF0.0
aF0.0
aF0.0
aF0.0
aF-0.76
aF0.0
aF1.98
aF0.0
aF0.0
aF0.3
aF0.0
aF0.0
aF0.0
aF0.0
aF0.0
aF0.0
aF0.0
aF0.0
aF0.0
aF0.0
aF0.0
aF0.0
aF0.0
aF0.0
aF0.0
aF0.0
aF0.0
aF2.4e-322
aF0.0
aI0
tp180
a((lp181
F0.0
aF0.0
aF0.0
aF0.0
aF0.0
aF0.0
aF0.0
aF0.0
aF0.0
aF0.0
aF0.0
aF0.0
aF0.0
aF0.0
aF0.0
aF0.007844146412768357
aF-0.6098919936691761
aF0.46124753937240653
aF2.0083310383173467
aF0.5055272354376973
aF0.0
aF-1.5651679624689376
aF-0.43326816333341395
aF0.0
aF0.0
aF0.0
aF0.0
aF0.0
aF0.0
aF0.0
aF0.0
aF0.0
aF0.0
aF0.0
aF0.0
aF0.0
aF-0.76
aF0.0
aF1.98
aF0.0
aF0.0
aF0.3
aF0.0
aF0.0
aF0.0
aF0.0
aF0.0
aF0.0
aF0.0
aF0.0
aF0.0
aF0.0
aF0.0
aF0.0
aF0.0
aF0.0
aF0.0
aF0.0
aF0.0
aF2.4e-322
aF0.0
aI0
tp182
a((lp183
F0.0
aF0.0
aF0.0
aF0.0
aF0.0
aF0.0
aF0.0
aF0.0
aF0.0
aF0.0
aF0.0
aF0.0
aF0.0
aF0.0
aF0.0
aF0.006814385083981649
aF-0.6093747526307336
aF0.46248627409115967
aF2.0082262321667024
aF0.5049136209647505
aF0.0
aF-1.5656330526219135
aF-0.4341577839426383
aF0.0
aF0.0
aF0.0
aF0.0
aF0.0
aF0.0
aF0.0
aF0.0
aF0.0
aF0.0
aF0.0
aF0.0
aF0.0
aF-0.76
aF0.0
aF1.98
aF0.0
aF0.0
aF0.3
aF0.0
aF0.0
aF0.0
aF0.0
aF0.0
aF0.0
aF0.0
aF0.0
aF0.0
aF0.0
aF0.0
aF0.0
aF0.0
aF0.0
aF0.0
aF0.0
aF0.0
aF2.4e-322
aF0.0
aI0
tp184
a((lp185
F0.0
aF0.0
aF0.0
aF0.0
aF0.0
aF0.0
aF0.0
aF0.0
aF0.0
aF0.0
aF0.0
aF0.0
aF0.0
aF0.0
aF0.0
aF0.0067599276000610085
aF-0.6094269122591155
aF0.4625275891306285
aF2.008333723643369
aF0.5048988021303752
aF0.0
aF-1.5656663706353453
aF-0.43416049580151234
aF0.0
aF0.0
aF0.0
aF0.0
aF0.0
aF0.0
aF0.0
aF0.0
aF0.0
aF0.0
aF0.0
aF0.0
aF0.0
aF-0.76
aF0.0
aF1.98
aF0.0
aF0.0
aF0.3
aF0.0
aF0.0
aF0.0
aF0.0
aF0.0
aF0.0
aF0.0
aF0.0
aF0.0
aF0.0
aF0.0
aF0.0
aF0.0
aF0.0
aF0.0
aF0.0
aF0.0
aF2.4e-322
aF0.0
aI0
tp186
a((lp187
F0.0
aF0.0
aF0.0
aF0.0
aF0.0
aF0.0
aF0.0
aF0.0
aF0.0
aF0.0
aF0.0
aF0.0
aF0.0
aF0.0
aF0.0
aF0.006237847900893076
aF-0.6092069473726324
aF0.46313923190386513
aF2.008348337156062
aF0.5045909675399596
aF0.0
aF-1.5659096822521987
aF-0.43457767713548195
aF0.0
aF0.0
aF0.0
aF0.0
aF0.0
aF0.0
aF0.0
aF0.0
aF0.0
aF0.0
aF0.0
aF0.0
aF0.0
aF-0.76
aF0.0
aF1.98
aF0.0
aF0.0
aF0.3
aF0.0
aF0.0
aF0.0
aF0.0
aF0.0
aF0.0
aF0.0
aF0.0
aF0.0
aF0.0
aF0.0
aF0.0
aF0.0
aF0.0
aF0.0
aF0.0
aF0.0
aF2.4e-322
aF0.0
aI0
tp188
a((lp189
F0.0
aF0.0
aF0.0
aF0.0
aF0.0
aF0.0
aF0.0
aF0.0
aF0.0
aF0.0
aF0.0
aF0.0
aF0.0
aF0.0
aF0.0
aF0.005926811458064098
aF-0.6089739115448876
aF0.46353943929351454
aF2.008203105159171
aF0.5043928495225262
aF0.0
aF-1.5660395342832818
aF-0.43489734137205077
aF0.0
aF0.0
aF0.0
aF0.0
aF0.0
aF0.0
aF0.0
aF0.0
aF0.0
aF0.0
aF0.0
aF0.0
aF0.0
aF-0.76
aF0.0
aF1.98
aF0.0
aF0.0
aF0.3
aF0.0
aF0.0
aF0.0
aF0.0
aF0.0
aF0.0
aF0.0
aF0.0
aF0.0
aF0.0
aF0.0
aF0.0
aF0.0
aF0.0
aF0.0
aF0.0
aF0.0
aF2.4e-322
aF0.0
aI0
tp190
a((lp191
F0.0
aF0.0
aF0.0
aF0.0
aF0.0
aF0.0
aF0.0
aF0.0
aF0.0
aF0.0
aF0.0
aF0.0
aF0.0
aF0.0
aF0.0
aF0.005212074176400315
aF-0.6086221144601853
aF0.46439592057871104
aF2.0081376974086846
aF0.5039684103359089
aF0.0
aF-1.5663619548506327
aF-0.4355111863148794
aF0.0
aF0.0
aF0.0
aF0.0
aF0.0
aF0.0
aF0.0
aF0.0
aF0.0
aF0.0
aF0.0
aF0.0
aF0.0
aF-0.76
aF0.0
aF1.98
aF0.0
aF0.0
aF0.3
aF0.0
aF0.0
aF0.0
aF0.0
aF0.0
aF0.0
aF0.0
aF0.0
aF0.0
aF0.0
aF0.0
aF0.0
aF0.0
aF0.0
aF0.0
aF0.0
aF0.0
aF2.4e-322
aF0.0
aI0
tp192
a((lp193
F0.0
aF0.0
aF0.0
aF0.0
aF0.0
aF0.0
aF0.0
aF0.0
aF0.0
aF0.0
aF0.0
aF0.0
aF0.0
aF0.0
aF0.0
aF-0.002375414973234208
aF-0.605194831412717
aF0.4733763883457569
aF2.008732250121356
aF0.4999222611888937
aF0.0
aF-1.5708
aF-0.4413226447525985
aF0.0
aF0.0
aF0.0
aF0.0
aF0.0
aF0.0
aF0.0
aF0.0
aF0.0
aF0.0
aF0.0
aF0.0
aF0.0
aF-0.76
aF0.0
aF1.98
aF0.0
aF0.0
aF0.3
aF0.0
aF0.0
aF0.0
aF0.0
aF0.0
aF0.0
aF0.0
aF0.0
aF0.0
aF0.0
aF0.0
aF0.0
aF0.0
aF0.0
aF0.0
aF0.0
aF0.0
aF2.4e-322
aF0.0
aI0
tp194
a((lp195
F0.0
aF0.0
aF0.0
aF0.0
aF0.0
aF0.0
aF0.0
aF0.0
aF0.0
aF0.0
aF0.0
aF0.0
aF0.0
aF0.0
aF0.0
aF-0.0024266677342989294
aF-0.6051450360811078
aF0.47345113913818315
aF2.008677519827322
aF0.49986961707708377
aF0.0
aF-1.5708
aF-0.4414005850205617
aF0.0
aF0.0
aF0.0
aF0.0
aF0.0
aF0.0
aF0.0
aF0.0
aF0.0
aF0.0
aF0.0
aF0.0
aF0.0
aF-0.76
aF0.0
aF1.98
aF0.0
aF0.0
aF0.3
aF0.0
aF0.0
aF0.0
aF0.0
aF0.0
aF0.0
aF0.0
aF0.0
aF0.0
aF0.0
aF0.0
aF0.0
aF0.0
aF0.0
aF0.0
aF0.0
aF0.0
aF2.4e-322
aF0.0
aI0
tp196
a((lp197
F0.0
aF0.0
aF0.0
aF0.0
aF0.0
aF0.0
aF0.0
aF0.0
aF0.0
aF0.0
aF0.0
aF0.0
aF0.0
aF0.0
aF0.0
aF-0.0026263944591511552
aF-0.6049434070967878
aF0.473742190240294
aF2.008458250561732
aF0.49966034464659215
aF0.0
aF-1.5708
aF-0.44170143678112084
aF0.0
aF0.0
aF0.0
aF0.0
aF0.0
aF0.0
aF0.0
aF0.0
aF0.0
aF0.0
aF0.0
aF0.0
aF0.0
aF-0.76
aF0.0
aF1.98
aF0.0
aF0.0
aF0.3
aF0.0
aF0.0
aF0.0
aF0.0
aF0.0
aF0.0
aF0.0
aF0.0
aF0.0
aF0.0
aF0.0
aF0.0
aF0.0
aF0.0
aF0.0
aF0.0
aF0.0
aF2.4e-322
aF0.0
aI0
tp198
a((lp199
F0.0
aF0.0
aF0.0
aF0.0
aF0.0
aF0.0
aF0.0
aF0.0
aF0.0
aF0.0
aF0.0
aF0.0
aF0.0
aF0.0
aF0.0
aF-0.002965905972901737
aF-0.604605178084514
aF0.47423944594551387
aF2.008075625707803
aF0.4993270023314525
aF0.0
aF-1.5708
aF-0.44221469718366013
aF0.0
aF0.0
aF0.0
aF0.0
aF0.0
aF0.0
aF0.0
aF0.0
aF0.0
aF0.0
aF0.0
aF0.0
aF0.0
aF-0.76
aF0.0
aF1.98
aF0.0
aF0.0
aF0.3
aF0.0
aF0.0
aF0.0
aF0.0
aF0.0
aF0.0
aF0.0
aF0.0
aF0.0
aF0.0
aF0.0
aF0.0
aF0.0
aF0.0
aF0.0
aF0.0
aF0.0
aF2.4e-322
aF0.0
aI0
tp200
a.