(lp0
((lp1
F0.0
aF0.0
aF0.0
aF0.0
aF0.0
aF0.0
aF0.0
aF0.0
aF0.0
aF0.0
aF0.0
aF0.0
aF0.0
aF0.0
aF0.0
aF-0.05235197578111324
aF0.9986306268773448
aF-1.2256234252877412
aF1.3775156404251945
aF-2.1361827768806063
aF0.0
aF1.5501241908596022
aF-1.91916713792615
aF0.0
aF0.0
aF0.0
aF0.0
aF0.0
aF0.0
aF0.0
aF0.0
aF0.0
aF0.0
aF0.0
aF0.0
aF-0.09743232426297727
aF-0.06395408774257588
aF0.6947213196471855
aF1.1738063698988135
aF-1.058452056805614
aF0.0
aF0.8197631123141698
aF0.06433378511636345
aF0.0
aF0.0
aF0.0
aF0.0
aF0.0
aF0.0
aF0.0
aF0.0
aF0.0
aF0.0
aF0.0
aF0.0
aF0.0
aF0.0
aF0.0
aF0.0
aF0.03
aF-0.03
aI0
tp2
a.