(lp0
((lp1
F0.0
aF0.0
aF0.0
aF0.0
aF0.0
aF0.0
aF0.0
aF0.0
aF0.0
aF0.0
aF0.0
aF0.0
aF0.0
aF0.0
aF0.0
aF0.25644946003306657
aF-0.9084290044136298
aF-0.18136522985086417
aF1.9283524770676006
aF0.46380942074763987
aF0.0
aF-0.8849561706655928
aF-0.13835161362911857
aF0.0
aF0.0
aF0.0
aF0.0
aF0.0
aF0.0
aF0.0
aF0.0
aF0.0
aF0.0
aF0.0
aF0.0
aF0.01325771936960867
aF-0.1461841156171971
aF0.5013258665504222
aF1.1793318746004045
aF-0.7865538919924908
aF0.0
aF0.7303410515468349
aF0.2910849369897922
aF0.0
aF0.0
aF0.0
aF0.0
aF0.0
aF0.0
aF0.0
aF0.0
aF0.0
aF0.0
aF0.0
aF0.0
aF0.0
aF0.0
aF0.0
aF0.0
aF0.03
aF-0.03
aI0
tp2
a((lp3
F0.0
aF0.0
aF0.0
aF0.0
aF0.0
aF0.0
aF0.0
aF0.0
aF0.0
aF0.0
aF0.0
aF0.0
aF0.0
aF0.0
aF0.0
aF0.25598150986436563
aF-0.9083975525288559
aF-0.18078677658207437
aF1.928237491946986
aF0.46382030177185896
aF0.0
aF-0.885059627502921
aF-0.138655467982513
aF0.0
aF0.0
aF0.0
aF0.0
aF0.0
aF0.0
aF0.0
aF0.0
aF0.0
aF0.0
aF0.0
aF0.0
aF0.01325771936960867
aF-0.1461841156171971
aF0.5013258665504222
aF1.1793318746004045
aF-0.7865538919924908
aF0.0
aF0.7303410515468349
aF0.2910849369897922
aF0.0
aF0.0
aF0.0
aF0.0
aF0.0
aF0.0
aF0.0
aF0.0
aF0.0
aF0.0
aF0.0
aF0.0
aF0.0
aF0.0
aF0.0
aF0.0
aF0.03
aF-0.03
aI0
tp4
a((lp5
F0.0
aF0.0
aF0.0
aF0.0
aF0.0
aF0.0
aF0.0
aF0.0
aF0.0
aF0.0
aF0.0
aF0.0
aF0.0
aF0.0
aF0.0
aF0.2514221369491325
aF-0.9090598679123061
aF-0.17488920684859594
aF1.928479451267079
aF0.4642315219986436
aF0.0
aF-0.8865548691420349
aF-0.14229392366585444
aF0.0
aF0.0
aF0.0
aF0.0
aF0.0
aF0.0
aF0.0
aF0.0
aF0.0
aF0.0
aF0.0
aF0.0
aF0.01325771936960867
aF-0.1461841156171971
aF0.5013258665504222
aF1.1793318746004045
aF-0.7865538919924908
aF0.0
aF0.7303410515468349
aF0.2910849369897922
aF0.0
aF0.0
aF0.0
aF0.0
aF0.0
aF0.0
aF0.0
aF0.0
aF0.0
aF0.0
aF0.0
aF0.0
aF0.0
aF0.0
aF0.0
aF0.0
aF0.03
aF-0.03
aI0
tp6
a((lp7
F0.0
aF0.0
aF0.0
aF0.0
aF0.0
aF0.0
aF0.0
aF0.0
aF0.0
aF0.0
aF0.0
aF0.0
aF0.0
aF0.0
aF0.0
aF0.2685142200046744
aF-0.9065703076934294
aF-0.19685242945222697
aF1.9278213741230532
aF0.4629298349355287
aF0.0
aF-0.8812683598716115
aF-0.1289484115239324
aF0.0
aF0.0
aF0.0
aF0.0
aF0.0
aF0.0
aF0.0
aF0.0
aF0.0
aF0.0
aF0.0
aF0.0
aF0.01325771936960867
aF-0.1461841156171971
aF0.5013258665504222
aF1.1793318746004045
aF-0.7865538919924908
aF0.0
aF0.7303410515468349
aF0.2910849369897922
aF0.0
aF0.0
aF0.0
aF0.0
aF0.0
aF0.0
aF0.0
aF0.0
aF0.0
aF0.0
aF0.0
aF0.0
aF0.0
aF0.0
aF0.0
aF0.0
aF0.03
aF-0.03
aI0
tp8
a((lp9
F0.0
aF0.0
aF0.0
aF0.0
aF0.0
aF0.0
aF0.0
aF0.0
aF0.0
aF0.0
aF0.0
aF0.0
aF0.0
aF0.0
aF0.0
aF0.24995481513712212
aF-0.9091940222260413
aF-0.17299644878043763
aF1.9284636968348396
aF0.4643695249730127
aF0.0
aF-0.8870252463011397
aF-0.14344936881098638
aF0.0
aF0.0
aF0.0
aF0.0
aF0.0
aF0.0
aF0.0
aF0.0
aF0.0
aF0.0
aF0.0
aF0.0
aF0.01325771936960867
aF-0.1461841156171971
aF0.5013258665504222
aF1.1793318746004045
aF-0.7865538919924908
aF0.0
aF0.7303410515468349
aF0.2910849369897922
aF0.0
aF0.0
aF0.0
aF0.0
aF0.0
aF0.0
aF0.0
aF0.0
aF0.0
aF0.0
aF0.0
aF0.0
aF0.0
aF0.0
aF0.0
aF0.0
aF0.03
aF-0.03
aI0
tp10
a((lp11
F0.0
aF0.0
aF0.0
aF0.0
aF0.0
aF0.0
aF0.0
aF0.0
aF0.0
aF0.0
aF0.0
aF0.0
aF0.0
aF0.0
aF0.0
aF0.2453765814816558
aF-0.9098292832674834
aF-0.16707403929819792
aF1.9286735932287813
aF0.46478595793328487
aF0.0
aF-0.888494452687685
aF-0.14709576161185195
aF0.0
aF0.0
aF0.0
aF0.0
aF0.0
aF0.0
aF0.0
aF0.0
aF0.0
aF0.0
aF0.0
aF0.0
aF0.01325771936960867
aF-0.1461841156171971
aF0.5013258665504222
aF1.1793318746004045
aF-0.7865538919924908
aF0.0
aF0.7303410515468349
aF0.2910849369897922
aF0.0
aF0.0
aF0.0
aF0.0
aF0.0
aF0.0
aF0.0
aF0.0
aF0.0
aF0.0
aF0.0
aF0.0
aF0.0
aF0.0
aF0.0
aF0.0
aF0.03
aF-0.03
aI0
tp12
a((lp13
F0.0
aF0.0
aF0.0
aF0.0
aF0.0
aF0.0
aF0.0
aF0.0
aF0.0
aF0.0
aF0.0
aF0.0
aF0.0
aF0.0
aF0.0
aF0.2759764961803841
aF-0.9053760319378894
aF-0.20655080300469067
aF1.92748400186052
aF0.46210983072960143
aF0.0
aF-0.8788427975202058
aF-0.12279768384443823
aF0.0
aF0.0
aF0.0
aF0.0
aF0.0
aF0.0
aF0.0
aF0.0
aF0.0
aF0.0
aF0.0
aF0.0
aF0.01325771936960867
aF-0.1461841156171971
aF0.5013258665504222
aF1.1793318746004045
aF-0.7865538919924908
aF0.0
aF0.7303410515468349
aF0.2910849369897922
aF0.0
aF0.0
aF0.0
aF0.0
aF0.0
aF0.0
aF0.0
aF0.0
aF0.0
aF0.0
aF0.0
aF0.0
aF0.0
aF0.0
aF0.0
aF0.0
aF0.03
aF-0.03
aI0
tp14
a((lp15
F0.0
aF0.0
aF0.0
aF0.0
aF0.0
aF0.0
aF0.0
aF0.0
aF0.0
aF0.0
aF0.0
aF0.0
aF0.0
aF0.0
aF0.0
aF0.2784371134501152
aF-0.9051065691849833
aF-0.2097017925093245
aF1.9275464007473422
aF0.4619285913205747
aF0.0
aF-0.8781128728493743
aF-0.1209348335013945
aF0.0
aF0.0
aF0.0
aF0.0
aF0.0
aF0.0
aF0.0
aF0.0
aF0.0
aF0.0
aF0.0
aF0.0
aF0.01325771936960867
aF-0.1461841156171971
aF0.5013258665504222
aF1.1793318746004045
aF-0.7865538919924908
aF0.0
aF0.7303410515468349
aF0.2910849369897922
aF0.0
aF0.0
aF0.0
aF0.0
aF0.0
aF0.0
aF0.0
aF0.0
aF0.0
aF0.0
aF0.0
aF0.0
aF0.0
aF0.0
aF0.0
aF0.0
aF0.03
aF-0.03
aI0
tp16
a((lp17
F0.0
aF0.0
aF0.0
aF0.0
aF0.0
aF0.0
aF0.0
aF0.0
aF0.0
aF0.0
aF0.0
aF0.0
aF0.0
aF0.0
aF0.0
aF0.27873461596722365
aF-0.9050609825144507
aF-0.2100891038253414
aF1.9275376315287793
aF0.4618920807630488
aF0.0
aF-0.8780167114618753
aF-0.12068707371349893
aF0.0
aF0.0
aF0.0
aF0.0
aF0.0
aF0.0
aF0.0
aF0.0
aF0.0
aF0.0
aF0.0
aF0.0
aF0.01325771936960867
aF-0.1461841156171971
aF0.5013258665504222
aF1.1793318746004045
aF-0.7865538919924908
aF0.0
aF0.7303410515468349
aF0.2910849369897922
aF0.0
aF0.0
aF0.0
aF0.0
aF0.0
aF0.0
aF0.0
aF0.0
aF0.0
aF0.0
aF0.0
aF0.0
aF0.0
aF0.0
aF0.0
aF0.0
aF0.03
aF-0.03
aI0
tp18
a((lp19
F0.0
aF0.0
aF0.0
aF0.0
aF0.0
aF0.0
aF0.0
aF0.0
aF0.0
aF0.0
aF0.0
aF0.0
aF0.0
aF0.0
aF0.0
aF0.2788904907920555
aF-0.9050317365509676
aF-0.210287680033249
aF1.9275295905251877
aF0.4618829938105288
aF0.0
aF-0.8779735841363748
aF-0.12056664897404375
aF0.0
aF0.0
aF0.0
aF0.0
aF0.0
aF0.0
aF0.0
aF0.0
aF0.0
aF0.0
aF0.0
aF0.0
aF0.01325771936960867
aF-0.1461841156171971
aF0.5013258665504222
aF1.1793318746004045
aF-0.7865538919924908
aF0.0
aF0.7303410515468349
aF0.2910849369897922
aF0.0
aF0.0
aF0.0
aF0.0
aF0.0
aF0.0
aF0.0
aF0.0
aF0.0
aF0.0
aF0.0
aF0.0
aF0.0
aF0.0
aF0.0
aF0.0
aF0.03
aF-0.03
aI0
tp20
a((lp21
F0.0
aF0.0
aF0.0
aF0.0
aF0.0
aF0.0
aF0.0
aF0.0
aF0.0
aF0.0
aF0.0
aF0.0
aF0.0
aF0.0
aF0.0
aF0.26499414392361365
aF-0.9066994355005584
aF-0.1924544608443157
aF1.9273344340395835
aF0.46307842038079017
aF0.0
aF-0.8820526092902139
aF-0.13143587120305392
aF0.0
aF0.0
aF0.0
aF0.0
aF0.0
aF0.0
aF0.0
aF0.0
aF0.0
aF0.0
aF0.0
aF0.0
aF0.01325771936960867
aF-0.1461841156171971
aF0.5013258665504222
aF1.1793318746004045
aF-0.7865538919924908
aF0.0
aF0.7303410515468349
aF0.2910849369897922
aF0.0
aF0.0
aF0.0
aF0.0
aF0.0
aF0.0
aF0.0
aF0.0
aF0.0
aF0.0
aF0.0
aF0.0
aF0.0
aF0.0
aF0.0
aF0.0
aF0.03
aF-0.03
aI0
tp22
a((lp23
F0.0
aF0.0
aF0.0
aF0.0
aF0.0
aF0.0
aF0.0
aF0.0
aF0.0
aF0.0
aF0.0
aF0.0
aF0.0
aF0.0
aF0.0
aF0.277843144843995
aF-0.905124986840388
aF-0.20893986058711178
aF1.9274695880691994
aF0.46197847858700375
aF0.0
aF-0.878277387490756
aF-0.12136532609472934
aF0.0
aF0.0
aF0.0
aF0.0
aF0.0
aF0.0
aF0.0
aF0.0
aF0.0
aF0.0
aF0.0
aF0.0
aF0.01325771936960867
aF-0.1461841156171971
aF0.5013258665504222
aF1.1793318746004045
aF-0.7865538919924908
aF0.0
aF0.7303410515468349
aF0.2910849369897922
aF0.0
aF0.0
aF0.0
aF0.0
aF0.0
aF0.0
aF0.0
aF0.0
aF0.0
aF0.0
aF0.0
aF0.0
aF0.0
aF0.0
aF0.0
aF0.0
aF0.03
aF-0.03
aI0
tp24
a((lp25
F0.0
aF0.0
aF0.0
aF0.0
aF0.0
aF0.0
aF0.0
aF0.0
aF0.0
aF0.0
aF0.0
aF0.0
aF0.0
aF0.0
aF0.0
aF0.27735553189576173
aF-0.9051797925184552
aF-0.20832777983690076
aF1.9274413947837588
aF0.4619951451455956
aF0.0
aF-0.8783882772353019
aF-0.12171356242805524
aF0.0
aF0.0
aF0.0
aF0.0
aF0.0
aF0.0
aF0.0
aF0.0
aF0.0
aF0.0
aF0.0
aF0.0
aF0.01325771936960867
aF-0.1461841156171971
aF0.5013258665504222
aF1.1793318746004045
aF-0.7865538919924908
aF0.0
aF0.7303410515468349
aF0.2910849369897922
aF0.0
aF0.0
aF0.0
aF0.0
aF0.0
aF0.0
aF0.0
aF0.0
aF0.0
aF0.0
aF0.0
aF0.0
aF0.0
aF0.0
aF0.0
aF0.0
aF0.03
aF-0.03
aI0
tp26
a((lp27
F0.0
aF0.0
aF0.0
aF0.0
aF0.0
aF0.0
aF0.0
aF0.0
aF0.0
aF0.0
aF0.0
aF0.0
aF0.0
aF0.0
aF0.0
aF0.27855850107856583
aF-0.9050466423251481
aF-0.20985226291664116
aF1.9274739735926059
aF0.46194518654324224
aF0.0
aF-0.8780466900496927
aF-0.12084169428628033
aF0.0
aF0.0
aF0.0
aF0.0
aF0.0
aF0.0
aF0.0
aF0.0
aF0.0
aF0.0
aF0.0
aF0.0
aF0.01325771936960867
aF-0.1461841156171971
aF0.5013258665504222
aF1.1793318746004045
aF-0.7865538919924908
aF0.0
aF0.7303410515468349
aF0.2910849369897922
aF0.0
aF0.0
aF0.0
aF0.0
aF0.0
aF0.0
aF0.0
aF0.0
aF0.0
aF0.0
aF0.0
aF0.0
aF0.0
aF0.0
aF0.0
aF0.0
aF0.03
aF-0.03
aI0
tp28
a((lp29
F0.0
aF0.0
aF0.0
aF0.0
aF0.0
aF0.0
aF0.0
aF0.0
aF0.0
aF0.0
aF0.0
aF0.0
aF0.0
aF0.0
aF0.0
aF0.24168275496813557
aF-0.9101820326801372
aF-0.16236416294419337
aF1.9286704596082158
aF0.4650091428662426
aF0.0
aF-0.889616557371493
aF-0.14986817846701242
aF0.0
aF0.0
aF0.0
aF0.0
aF0.0
aF0.0
aF0.0
aF0.0
aF0.0
aF0.0
aF0.0
aF0.0
aF0.01325771936960867
aF-0.1461841156171971
aF0.5013258665504222
aF1.1793318746004045
aF-0.7865538919924908
aF0.0
aF0.7303410515468349
aF0.2910849369897922
aF0.0
aF0.0
aF0.0
aF0.0
aF0.0
aF0.0
aF0.0
aF0.0
aF0.0
aF0.0
aF0.0
aF0.0
aF0.0
aF0.0
aF0.0
aF0.0
aF0.03
aF-0.03
aI0
tp30
a((lp31
F0.0
aF0.0
aF0.0
aF0.0
aF0.0
aF0.0
aF0.0
aF0.0
aF0.0
aF0.0
aF0.0
aF0.0
aF0.0
aF0.0
aF0.0
aF0.2792786393420297
aF-0.9049608751532268
aF-0.21079119308570865
aF1.9274964223508142
aF0.4618471645530501
aF0.0
aF-0.8778357829594883
aF-0.1202500173579653
aF0.0
aF0.0
aF0.0
aF0.0
aF0.0
aF0.0
aF0.0
aF0.0
aF0.0
aF0.0
aF0.0
aF0.0
aF0.01325771936960867
aF-0.1461841156171971
aF0.5013258665504222
aF1.1793318746004045
aF-0.7865538919924908
aF0.0
aF0.7303410515468349
aF0.2910849369897922
aF0.0
aF0.0
aF0.0
aF0.0
aF0.0
aF0.0
aF0.0
aF0.0
aF0.0
aF0.0
aF0.0
aF0.0
aF0.0
aF0.0
aF0.0
aF0.0
aF0.03
aF-0.03
aI0
tp32
a((lp33
F0.0
aF0.0
aF0.0
aF0.0
aF0.0
aF0.0
aF0.0
aF0.0
aF0.0
aF0.0
aF0.0
aF0.0
aF0.0
aF0.0
aF0.0
aF0.27689706573310185
aF-0.9052186498941829
aF-0.20773311333371625
aF1.9274011113749345
aF0.46206376738712507
aF0.0
aF-0.8785082163335762
aF-0.12209778254449101
aF0.0
aF0.0
aF0.0
aF0.0
aF0.0
aF0.0
aF0.0
aF0.0
aF0.0
aF0.0
aF0.0
aF0.0
aF0.01325771936960867
aF-0.1461841156171971
aF0.5013258665504222
aF1.1793318746004045
aF-0.7865538919924908
aF0.0
aF0.7303410515468349
aF0.2910849369897922
aF0.0
aF0.0
aF0.0
aF0.0
aF0.0
aF0.0
aF0.0
aF0.0
aF0.0
aF0.0
aF0.0
aF0.0
aF0.0
aF0.0
aF0.0
aF0.0
aF0.03
aF-0.03
aI0
tp34
a((lp35
F0.0
aF0.0
aF0.0
aF0.0
aF0.0
aF0.0
aF0.0
aF0.0
aF0.0
aF0.0
aF0.0
aF0.0
aF0.0
aF0.0
aF0.0
aF0.27957317473796434
aF-0.9049162573762798
aF-0.211175675062144
aF1.9274835339469458
aF0.4618125412522027
aF0.0
aF-0.8777318571813965
aF-0.12000531416535301
aF0.0
aF0.0
aF0.0
aF0.0
aF0.0
aF0.0
aF0.0
aF0.0
aF0.0
aF0.0
aF0.0
aF0.0
aF0.01325771936960867
aF-0.1461841156171971
aF0.5013258665504222
aF1.1793318746004045
aF-0.7865538919924908
aF0.0
aF0.7303410515468349
aF0.2910849369897922
aF0.0
aF0.0
aF0.0
aF0.0
aF0.0
aF0.0
aF0.0
aF0.0
aF0.0
aF0.0
aF0.0
aF0.0
aF0.0
aF0.0
aF0.0
aF0.0
aF0.03
aF-0.03
aI0
tp36
a((lp37
F0.0
aF0.0
aF0.0
aF0.0
aF0.0
aF0.0
aF0.0
aF0.0
aF0.0
aF0.0
aF0.0
aF0.0
aF0.0
aF0.0
aF0.0
aF0.2753317455555769
aF-0.9054151922287959
aF-0.20568308905019894
aF1.927337074826493
aF0.4623136552181626
aF0.0
aF-0.8789342485488114
aF-0.1234480447061505
aF0.0
aF0.0
aF0.0
aF0.0
aF0.0
aF0.0
aF0.0
aF0.0
aF0.0
aF0.0
aF0.0
aF0.0
aF0.01325771936960867
aF-0.1461841156171971
aF0.5013258665504222
aF1.1793318746004045
aF-0.7865538919924908
aF0.0
aF0.7303410515468349
aF0.2910849369897922
aF0.0
aF0.0
aF0.0
aF0.0
aF0.0
aF0.0
aF0.0
aF0.0
aF0.0
aF0.0
aF0.0
aF0.0
aF0.0
aF0.0
aF0.0
aF0.0
aF0.03
aF-0.03
aI0
tp38
a((lp39
F0.0
aF0.0
aF0.0
aF0.0
aF0.0
aF0.0
aF0.0
aF0.0
aF0.0
aF0.0
aF0.0
aF0.0
aF0.0
aF0.0
aF0.0
aF0.27342189381536147
aF-0.9056357703643895
aF-0.20328322295830836
aF1.9273005420142988
aF0.46235811011511674
aF0.0
aF-0.879467165185208
aF-0.12481075381160175
aF0.0
aF0.0
aF0.0
aF0.0
aF0.0
aF0.0
aF0.0
aF0.0
aF0.0
aF0.0
aF0.0
aF0.0
aF0.01325771936960867
aF-0.1461841156171971
aF0.5013258665504222
aF1.1793318746004045
aF-0.7865538919924908
aF0.0
aF0.7303410515468349
aF0.2910849369897922
aF0.0
aF0.0
aF0.0
aF0.0
aF0.0
aF0.0
aF0.0
aF0.0
aF0.0
aF0.0
aF0.0
aF0.0
aF0.0
aF0.0
aF0.0
aF0.0
aF0.03
aF-0.03
aI0
tp40
a((lp41
F0.0
aF0.0
aF0.0
aF0.0
aF0.0
aF0.0
aF0.0
aF0.0
aF0.0
aF0.0
aF0.0
aF0.0
aF0.0
aF0.0
aF0.0
aF0.2794374586462541
aF-0.9049210055720475
aF-0.21100219065144568
aF1.9274646732521779
aF0.46182559997795997
aF0.0
aF-0.8777663723857753
aF-0.12010732433725446
aF0.0
aF0.0
aF0.0
aF0.0
aF0.0
aF0.0
aF0.0
aF0.0
aF0.0
aF0.0
aF0.0
aF0.0
aF0.01325771936960867
aF-0.1461841156171971
aF0.5013258665504222
aF1.1793318746004045
aF-0.7865538919924908
aF0.0
aF0.7303410515468349
aF0.2910849369897922
aF0.0
aF0.0
aF0.0
aF0.0
aF0.0
aF0.0
aF0.0
aF0.0
aF0.0
aF0.0
aF0.0
aF0.0
aF0.0
aF0.0
aF0.0
aF0.0
aF0.03
aF-0.03
aI0
tp42
a((lp43
F0.0
aF0.0
aF0.0
aF0.0
aF0.0
aF0.0
aF0.0
aF0.0
aF0.0
aF0.0
aF0.0
aF0.0
aF0.0
aF0.0
aF0.0
aF0.2733371340401665
aF-0.9056318580711301
aF-0.20316341859374656
aF1.927279383525899
aF0.4623942486122725
aF0.0
aF-0.8794959361534262
aF-0.12490602602940658
aF0.0
aF0.0
aF0.0
aF0.0
aF0.0
aF0.0
aF0.0
aF0.0
aF0.0
aF0.0
aF0.0
aF0.0
aF0.01325771936960867
aF-0.1461841156171971
aF0.5013258665504222
aF1.1793318746004045
aF-0.7865538919924908
aF0.0
aF0.7303410515468349
aF0.2910849369897922
aF0.0
aF0.0
aF0.0
aF0.0
aF0.0
aF0.0
aF0.0
aF0.0
aF0.0
aF0.0
aF0.0
aF0.0
aF0.0
aF0.0
aF0.0
aF0.0
aF0.03
aF-0.03
aI0
tp44
a((lp45
F0.0
aF0.0
aF0.0
aF0.0
aF0.0
aF0.0
aF0.0
aF0.0
aF0.0
aF0.0
aF0.0
aF0.0
aF0.0
aF0.0
aF0.0
aF0.27997100182441664
aF-0.9048465703494136
aF-0.21168383322128476
aF1.927464748338313
aF0.4617873572101984
aF0.0
aF-0.8776146305420011
aF-0.1196972002824539
aF0.0
aF0.0
aF0.0
aF0.0
aF0.0
aF0.0
aF0.0
aF0.0
aF0.0
aF0.0
aF0.0
aF0.0
aF0.01325771936960867
aF-0.1461841156171971
aF0.5013258665504222
aF1.1793318746004045
aF-0.7865538919924908
aF0.0
aF0.7303410515468349
aF0.2910849369897922
aF0.0
aF0.0
aF0.0
aF0.0
aF0.0
aF0.0
aF0.0
aF0.0
aF0.0
aF0.0
aF0.0
aF0.0
aF0.0
aF0.0
aF0.0
aF0.0
aF0.03
aF-0.03
aI0
tp46
a((lp47
F0.0
aF0.0
aF0.0
aF0.0
aF0.0
aF0.0
aF0.0
aF0.0
aF0.0
aF0.0
aF0.0
aF0.0
aF0.0
aF0.0
aF0.0
aF0.2644365479333045
aF-0.9067425327476574
aF-0.19178484944695426
aF1.9272575318046619
aF0.4630623622698939
aF0.0
aF-0.8821280396495077
aF-0.13179880090833557
aF0.0
aF0.0
aF0.0
aF0.0
aF0.0
aF0.0
aF0.0
aF0.0
aF0.0
aF0.0
aF0.0
aF0.0
aF0.01325771936960867
aF-0.1461841156171971
aF0.5013258665504222
aF1.1793318746004045
aF-0.7865538919924908
aF0.0
aF0.7303410515468349
aF0.2910849369897922
aF0.0
aF0.0
aF0.0
aF0.0
aF0.0
aF0.0
aF0.0
aF0.0
aF0.0
aF0.0
aF0.0
aF0.0
aF0.0
aF0.0
aF0.0
aF0.0
aF0.03
aF-0.03
aI0
tp48
a((lp49
F0.0
aF0.0
aF0.0
aF0.0
aF0.0
aF0.0
aF0.0
aF0.0
aF0.0
aF0.0
aF0.0
aF0.0
aF0.0
aF0.0
aF0.0
aF0.27976882852390955
aF-0.9048618783533569
aF-0.21142665728722607
aF1.927447465456181
aF0.46180160732278314
aF0.0
aF-0.8776673535723034
aF-0.1198466451343265
aF0.0
aF0.0
aF0.0
aF0.0
aF0.0
aF0.0
aF0.0
aF0.0
aF0.0
aF0.0
aF0.0
aF0.0
aF0.01325771936960867
aF-0.1461841156171971
aF0.5013258665504222
aF1.1793318746004045
aF-0.7865538919924908
aF0.0
aF0.7303410515468349
aF0.2910849369897922
aF0.0
aF0.0
aF0.0
aF0.0
aF0.0
aF0.0
aF0.0
aF0.0
aF0.0
aF0.0
aF0.0
aF0.0
aF0.0
aF0.0
aF0.0
aF0.0
aF0.03
aF-0.03
aI0
tp50
a((lp51
F0.0
aF0.0
aF0.0
aF0.0
aF0.0
aF0.0
aF0.0
aF0.0
aF0.0
aF0.0
aF0.0
aF0.0
aF0.0
aF0.0
aF0.0
aF0.25808628371445963
aF-0.9075689084919488
aF-0.18360329190736535
aF1.927386503735497
aF0.4636183737984939
aF0.0
aF-0.8841260236777977
aF-0.13682063389461538
aF0.0
aF0.0
aF0.0
aF0.0
aF0.0
aF0.0
aF0.0
aF0.0
aF0.0
aF0.0
aF0.0
aF0.0
aF0.01325771936960867
aF-0.1461841156171971
aF0.5013258665504222
aF1.1793318746004045
aF-0.7865538919924908
aF0.0
aF0.7303410515468349
aF0.2910849369897922
aF0.0
aF0.0
aF0.0
aF0.0
aF0.0
aF0.0
aF0.0
aF0.0
aF0.0
aF0.0
aF0.0
aF0.0
aF0.0
aF0.0
aF0.0
aF0.0
aF0.03
aF-0.03
aI0
tp52
a((lp53
F0.0
aF0.0
aF0.0
aF0.0
aF0.0
aF0.0
aF0.0
aF0.0
aF0.0
aF0.0
aF0.0
aF0.0
aF0.0
aF0.0
aF0.0
aF0.28070683589332535
aF-0.9047467731129425
aF-0.21263299944328112
aF1.9274605652803714
aF0.46171999497855265
aF0.0
aF-0.8773855769903521
aF-0.11911597725787763
aF0.0
aF0.0
aF0.0
aF0.0
aF0.0
aF0.0
aF0.0
aF0.0
aF0.0
aF0.0
aF0.0
aF0.0
aF0.01325771936960867
aF-0.1461841156171971
aF0.5013258665504222
aF1.1793318746004045
aF-0.7865538919924908
aF0.0
aF0.7303410515468349
aF0.2910849369897922
aF0.0
aF0.0
aF0.0
aF0.0
aF0.0
aF0.0
aF0.0
aF0.0
aF0.0
aF0.0
aF0.0
aF0.0
aF0.0
aF0.0
aF0.0
aF0.0
aF0.03
aF-0.03
aI0
tp54
a((lp55
F0.0
aF0.0
aF0.0
aF0.0
aF0.0
aF0.0
aF0.0
aF0.0
aF0.0
aF0.0
aF0.0
aF0.0
aF0.0
aF0.0
aF0.0
aF0.28046985876693603
aF-0.9047688254862992
aF-0.2123281482940435
aF1.9274407847713737
aF0.461745283234769
aF0.0
aF-0.8774442506460733
aF-0.11930028630095589
aF0.0
aF0.0
aF0.0
aF0.0
aF0.0
aF0.0
aF0.0
aF0.0
aF0.0
aF0.0
aF0.0
aF0.0
aF0.01325771936960867
aF-0.1461841156171971
aF0.5013258665504222
aF1.1793318746004045
aF-0.7865538919924908
aF0.0
aF0.7303410515468349
aF0.2910849369897922
aF0.0
aF0.0
aF0.0
aF0.0
aF0.0
aF0.0
aF0.0
aF0.0
aF0.0
aF0.0
aF0.0
aF0.0
aF0.0
aF0.0
aF0.0
aF0.0
aF0.03
aF-0.03
aI0
tp56
a((lp57
F0.0
aF0.0
aF0.0
aF0.0
aF0.0
aF0.0
aF0.0
aF0.0
aF0.0
aF0.0
aF0.0
aF0.0
aF0.0
aF0.0
aF0.0
aF0.280625460628694
aF-0.9047266348547636
aF-0.21253044442394597
aF1.927416395118949
aF0.46172872691242
aF0.0
aF-0.8773951418218351
aF-0.11916695261010919
aF0.0
aF0.0
aF0.0
aF0.0
aF0.0
aF0.0
aF0.0
aF0.0
aF0.0
aF0.0
aF0.0
aF0.0
aF0.01325771936960867
aF-0.1461841156171971
aF0.5013258665504222
aF1.1793318746004045
aF-0.7865538919924908
aF0.0
aF0.7303410515468349
aF0.2910849369897922
aF0.0
aF0.0
aF0.0
aF0.0
aF0.0
aF0.0
aF0.0
aF0.0
aF0.0
aF0.0
aF0.0
aF0.0
aF0.0
aF0.0
aF0.0
aF0.0
aF0.03
aF-0.03
aI0
tp58
a((lp59
F0.0
aF0.0
aF0.0
aF0.0
aF0.0
aF0.0
aF0.0
aF0.0
aF0.0
aF0.0
aF0.0
aF0.0
aF0.0
aF0.0
aF0.0
aF0.2808733817711591
aF-0.9047054868652121
aF-0.21284467285877617
aF1.9274291635033522
aF0.4617169419187201
aF0.0
aF-0.8773228677967686
aF-0.11898849353772767
aF0.0
aF0.0
aF0.0
aF0.0
aF0.0
aF0.0
aF0.0
aF0.0
aF0.0
aF0.0
aF0.0
aF0.0
aF0.01325771936960867
aF-0.1461841156171971
aF0.5013258665504222
aF1.1793318746004045
aF-0.7865538919924908
aF0.0
aF0.7303410515468349
aF0.2910849369897922
aF0.0
aF0.0
aF0.0
aF0.0
aF0.0
aF0.0
aF0.0
aF0.0
aF0.0
aF0.0
aF0.0
aF0.0
aF0.0
aF0.0
aF0.0
aF0.0
aF0.03
aF-0.03
aI0
tp60
a((lp61
F0.0
aF0.0
aF0.0
aF0.0
aF0.0
aF0.0
aF0.0
aF0.0
aF0.0
aF0.0
aF0.0
aF0.0
aF0.0
aF0.0
aF0.0
aF0.2526597284030222
aF-0.9083103908364049
aF-0.1766070351366424
aF1.9275885969354098
aF0.46407328353941313
aF0.0
aF-0.8858590895843531
aF-0.1410998113598356
aF0.0
aF0.0
aF0.0
aF0.0
aF0.0
aF0.0
aF0.0
aF0.0
aF0.0
aF0.0
aF0.0
aF0.0
aF0.01325771936960867
aF-0.1461841156171971
aF0.5013258665504222
aF1.1793318746004045
aF-0.7865538919924908
aF0.0
aF0.7303410515468349
aF0.2910849369897922
aF0.0
aF0.0
aF0.0
aF0.0
aF0.0
aF0.0
aF0.0
aF0.0
aF0.0
aF0.0
aF0.0
aF0.0
aF0.0
aF0.0
aF0.0
aF0.0
aF0.03
aF-0.03
aI0
tp62
a((lp63
F0.0
aF0.0
aF0.0
aF0.0
aF0.0
aF0.0
aF0.0
aF0.0
aF0.0
aF0.0
aF0.0
aF0.0
aF0.0
aF0.0
aF0.0
aF0.2812011478722283
aF-0.9046622196006984
aF-0.2132737465628787
aF1.9274313536208485
aF0.461671042876224
aF0.0
aF-0.8772190626461198
aF-0.11871260235248782
aF0.0
aF0.0
aF0.0
aF0.0
aF0.0
aF0.0
aF0.0
aF0.0
aF0.0
aF0.0
aF0.0
aF0.0
aF0.01325771936960867
aF-0.1461841156171971
aF0.5013258665504222
aF1.1793318746004045
aF-0.7865538919924908
aF0.0
aF0.7303410515468349
aF0.2910849369897922
aF0.0
aF0.0
aF0.0
aF0.0
aF0.0
aF0.0
aF0.0
aF0.0
aF0.0
aF0.0
aF0.0
aF0.0
aF0.0
aF0.0
aF0.0
aF0.0
aF0.03
aF-0.03
aI0
tp64
a((lp65
F0.0
aF0.0
aF0.0
aF0.0
aF0.0
aF0.0
aF0.0
aF0.0
aF0.0
aF0.0
aF0.0
aF0.0
aF0.0
aF0.0
aF0.0
aF0.2809769681608618
aF-0.9046741270761461
aF-0.21298389427664502
aF1.927408413369534
aF0.4616963492907177
aF0.0
aF-0.877284799858257
aF-0.11888676718861761
aF0.0
aF0.0
aF0.0
aF0.0
aF0.0
aF0.0
aF0.0
aF0.0
aF0.0
aF0.0
aF0.0
aF0.0
aF0.01325771936960867
aF-0.1461841156171971
aF0.5013258665504222
aF1.1793318746004045
aF-0.7865538919924908
aF0.0
aF0.7303410515468349
aF0.2910849369897922
aF0.0
aF0.0
aF0.0
aF0.0
aF0.0
aF0.0
aF0.0
aF0.0
aF0.0
aF0.0
aF0.0
aF0.0
aF0.0
aF0.0
aF0.0
aF0.0
aF0.03
aF-0.03
aI0
tp66
a((lp67
F0.0
aF0.0
aF0.0
aF0.0
aF0.0
aF0.0
aF0.0
aF0.0
aF0.0
aF0.0
aF0.0
aF0.0
aF0.0
aF0.0
aF0.0
aF0.27768822873155136
aF-0.9050618177442874
aF-0.20874361326081892
aF1.9272782301233993
aF0.4620423304514034
aF0.0
aF-0.8781891901879967
aF-0.12150809755763203
aF0.0
aF0.0
aF0.0
aF0.0
aF0.0
aF0.0
aF0.0
aF0.0
aF0.0
aF0.0
aF0.0
aF0.0
aF0.01325771936960867
aF-0.1461841156171971
aF0.5013258665504222
aF1.1793318746004045
aF-0.7865538919924908
aF0.0
aF0.7303410515468349
aF0.2910849369897922
aF0.0
aF0.0
aF0.0
aF0.0
aF0.0
aF0.0
aF0.0
aF0.0
aF0.0
aF0.0
aF0.0
aF0.0
aF0.0
aF0.0
aF0.0
aF0.0
aF0.03
aF-0.03
aI0
tp68
a((lp69
F0.0
aF0.0
aF0.0
aF0.0
aF0.0
aF0.0
aF0.0
aF0.0
aF0.0
aF0.0
aF0.0
aF0.0
aF0.0
aF0.0
aF0.0
aF0.2810083131466791
aF-0.9046678867398402
aF-0.21302524801634337
aF1.9274045484690245
aF0.46169303939397055
aF0.0
aF-0.8772719731543053
aF-0.11886055025327281
aF0.0
aF0.0
aF0.0
aF0.0
aF0.0
aF0.0
aF0.0
aF0.0
aF0.0
aF0.0
aF0.0
aF0.0
aF0.01325771936960867
aF-0.1461841156171971
aF0.5013258665504222
aF1.1793318746004045
aF-0.7865538919924908
aF0.0
aF0.7303410515468349
aF0.2910849369897922
aF0.0
aF0.0
aF0.0
aF0.0
aF0.0
aF0.0
aF0.0
aF0.0
aF0.0
aF0.0
aF0.0
aF0.0
aF0.0
aF0.0
aF0.0
aF0.0
aF0.03
aF-0.03
aI0
tp70
a((lp71
F0.0
aF0.0
aF0.0
aF0.0
aF0.0
aF0.0
aF0.0
aF0.0
aF0.0
aF0.0
aF0.0
aF0.0
aF0.0
aF0.0
aF0.0
aF0.28101079305087523
aF-0.904666236869216
aF-0.21302882639029713
aF1.9274022192775346
aF0.4616925402366328
aF0.0
aF-0.8772696303497968
aF-0.11885752876853845
aF0.0
aF0.0
aF0.0
aF0.0
aF0.0
aF0.0
aF0.0
aF0.0
aF0.0
aF0.0
aF0.0
aF0.0
aF0.01325771936960867
aF-0.1461841156171971
aF0.5013258665504222
aF1.1793318746004045
aF-0.7865538919924908
aF0.0
aF0.7303410515468349
aF0.2910849369897922
aF0.0
aF0.0
aF0.0
aF0.0
aF0.0
aF0.0
aF0.0
aF0.0
aF0.0
aF0.0
aF0.0
aF0.0
aF0.0
aF0.0
aF0.0
aF0.0
aF0.03
aF-0.03
aI0
tp72
a((lp73
F0.0
aF0.0
aF0.0
aF0.0
aF0.0
aF0.0
aF0.0
aF0.0
aF0.0
aF0.0
aF0.0
aF0.0
aF0.0
aF0.0
aF0.0
aF0.28103269111442314
aF-0.904663069334643
aF-0.21305691918914746
aF1.9274018500006238
aF0.46169085547484995
aF0.0
aF-0.8772629027636495
aF-0.1188404960906626
aF0.0
aF0.0
aF0.0
aF0.0
aF0.0
aF0.0
aF0.0
aF0.0
aF0.0
aF0.0
aF0.0
aF0.0
aF0.01325771936960867
aF-0.1461841156171971
aF0.5013258665504222
aF1.1793318746004045
aF-0.7865538919924908
aF0.0
aF0.7303410515468349
aF0.2910849369897922
aF0.0
aF0.0
aF0.0
aF0.0
aF0.0
aF0.0
aF0.0
aF0.0
aF0.0
aF0.0
aF0.0
aF0.0
aF0.0
aF0.0
aF0.0
aF0.0
aF0.03
aF-0.03
aI0
tp74
a((lp75
F0.0
aF0.0
aF0.0
aF0.0
aF0.0
aF0.0
aF0.0
aF0.0
aF0.0
aF0.0
aF0.0
aF0.0
aF0.0
aF0.0
aF0.0
aF0.27742717613004036
aF-0.9050352191324558
aF-0.20844186838307105
aF1.9272341293053248
aF0.46199534148144855
aF0.0
aF-0.8782735484454144
aF-0.12160786001006713
aF0.0
aF0.0
aF0.0
aF0.0
aF0.0
aF0.0
aF0.0
aF0.0
aF0.0
aF0.0
aF0.0
aF0.0
aF0.01325771936960867
aF-0.1461841156171971
aF0.5013258665504222
aF1.1793318746004045
aF-0.7865538919924908
aF0.0
aF0.7303410515468349
aF0.2910849369897922
aF0.0
aF0.0
aF0.0
aF0.0
aF0.0
aF0.0
aF0.0
aF0.0
aF0.0
aF0.0
aF0.0
aF0.0
aF0.0
aF0.0
aF0.0
aF0.0
aF0.03
aF-0.03
aI0
tp76
a((lp77
F0.0
aF0.0
aF0.0
aF0.0
aF0.0
aF0.0
aF0.0
aF0.0
aF0.0
aF0.0
aF0.0
aF0.0
aF0.0
aF0.0
aF0.0
aF0.2811516854803219
aF-0.9046425723657773
aF-0.21321029413571077
aF1.9273957939377067
aF0.46168038321916705
aF0.0
aF-0.877225268351428
aF-0.11874512870554127
aF0.0
aF0.0
aF0.0
aF0.0
aF0.0
aF0.0
aF0.0
aF0.0
aF0.0
aF0.0
aF0.0
aF0.0
aF0.01325771936960867
aF-0.1461841156171971
aF0.5013258665504222
aF1.1793318746004045
aF-0.7865538919924908
aF0.0
aF0.7303410515468349
aF0.2910849369897922
aF0.0
aF0.0
aF0.0
aF0.0
aF0.0
aF0.0
aF0.0
aF0.0
aF0.0
aF0.0
aF0.0
aF0.0
aF0.0
aF0.0
aF0.0
aF0.0
aF0.03
aF-0.03
aI0
tp78
a((lp79
F0.0
aF0.0
aF0.0
aF0.0
aF0.0
aF0.0
aF0.0
aF0.0
aF0.0
aF0.0
aF0.0
aF0.0
aF0.0
aF0.0
aF0.0
aF0.2643909853168547
aF-0.9066726329009204
aF-0.1917518171880184
aF1.9271322568591809
aF0.46305417476994915
aF0.0
aF-0.8820780857974868
aF-0.13180293298959736
aF0.0
aF0.0
aF0.0
aF0.0
aF0.0
aF0.0
aF0.0
aF0.0
aF0.0
aF0.0
aF0.0
aF0.0
aF0.01325771936960867
aF-0.1461841156171971
aF0.5013258665504222
aF1.1793318746004045
aF-0.7865538919924908
aF0.0
aF0.7303410515468349
aF0.2910849369897922
aF0.0
aF0.0
aF0.0
aF0.0
aF0.0
aF0.0
aF0.0
aF0.0
aF0.0
aF0.0
aF0.0
aF0.0
aF0.0
aF0.0
aF0.0
aF0.0
aF0.03
aF-0.03
aI0
tp80
a((lp81
F0.0
aF0.0
aF0.0
aF0.0
aF0.0
aF0.0
aF0.0
aF0.0
aF0.0
aF0.0
aF0.0
aF0.0
aF0.0
aF0.0
aF0.0
aF0.28128281713153663
aF-0.904620319244036
aF-0.21337973251722325
aF1.9273896269274575
aF0.4616678865441216
aF0.0
aF-0.8771835497027127
aF-0.11863897559412791
aF0.0
aF0.0
aF0.0
aF0.0
aF0.0
aF0.0
aF0.0
aF0.0
aF0.0
aF0.0
aF0.0
aF0.0
aF0.01325771936960867
aF-0.1461841156171971
aF0.5013258665504222
aF1.1793318746004045
aF-0.7865538919924908
aF0.0
aF0.7303410515468349
aF0.2910849369897922
aF0.0
aF0.0
aF0.0
aF0.0
aF0.0
aF0.0
aF0.0
aF0.0
aF0.0
aF0.0
aF0.0
aF0.0
aF0.0
aF0.0
aF0.0
aF0.0
aF0.03
aF-0.03
aI0
tp82
a((lp83
F0.0
aF0.0
aF0.0
aF0.0
aF0.0
aF0.0
aF0.0
aF0.0
aF0.0
aF0.0
aF0.0
aF0.0
aF0.0
aF0.0
aF0.0
aF0.27245014150490443
aF-0.9056345306716699
aF-0.20206658107939904
aF1.927111746454527
aF0.46242632343044876
aF0.0
aF-0.8796804326371196
aF-0.1255187804550209
aF0.0
aF0.0
aF0.0
aF0.0
aF0.0
aF0.0
aF0.0
aF0.0
aF0.0
aF0.0
aF0.0
aF0.0
aF0.01325771936960867
aF-0.1461841156171971
aF0.5013258665504222
aF1.1793318746004045
aF-0.7865538919924908
aF0.0
aF0.7303410515468349
aF0.2910849369897922
aF0.0
aF0.0
aF0.0
aF0.0
aF0.0
aF0.0
aF0.0
aF0.0
aF0.0
aF0.0
aF0.0
aF0.0
aF0.0
aF0.0
aF0.0
aF0.0
aF0.03
aF-0.03
aI0
tp84
a((lp85
F0.0
aF0.0
aF0.0
aF0.0
aF0.0
aF0.0
aF0.0
aF0.0
aF0.0
aF0.0
aF0.0
aF0.0
aF0.0
aF0.0
aF0.0
aF0.2811838024218815
aF-0.904618837640059
aF-0.21326088709149593
aF1.9273581387303553
aF0.46166486733095324
aF0.0
aF-0.8771848607112122
aF-0.11869409807293899
aF0.0
aF0.0
aF0.0
aF0.0
aF0.0
aF0.0
aF0.0
aF0.0
aF0.0
aF0.0
aF0.0
aF0.0
aF0.01325771936960867
aF-0.1461841156171971
aF0.5013258665504222
aF1.1793318746004045
aF-0.7865538919924908
aF0.0
aF0.7303410515468349
aF0.2910849369897922
aF0.0
aF0.0
aF0.0
aF0.0
aF0.0
aF0.0
aF0.0
aF0.0
aF0.0
aF0.0
aF0.0
aF0.0
aF0.0
aF0.0
aF0.0
aF0.0
aF0.03
aF-0.03
aI0
tp86
a((lp87
F0.0
aF0.0
aF0.0
aF0.0
aF0.0
aF0.0
aF0.0
aF0.0
aF0.0
aF0.0
aF0.0
aF0.0
aF0.0
aF0.0
aF0.0
aF0.2675387837801779
aF-0.9062503111498439
aF-0.19578803624507668
aF1.9270699809602856
aF0.46281331013503313
aF0.0
aF-0.8811022920852298
aF-0.12934599471320474
aF0.0
aF0.0
aF0.0
aF0.0
aF0.0
aF0.0
aF0.0
aF0.0
aF0.0
aF0.0
aF0.0
aF0.0
aF0.01325771936960867
aF-0.1461841156171971
aF0.5013258665504222
aF1.1793318746004045
aF-0.7865538919924908
aF0.0
aF0.7303410515468349
aF0.2910849369897922
aF0.0
aF0.0
aF0.0
aF0.0
aF0.0
aF0.0
aF0.0
aF0.0
aF0.0
aF0.0
aF0.0
aF0.0
aF0.0
aF0.0
aF0.0
aF0.0
aF0.03
aF-0.03
aI0
tp88
a((lp89
F0.0
aF0.0
aF0.0
aF0.0
aF0.0
aF0.0
aF0.0
aF0.0
aF0.0
aF0.0
aF0.0
aF0.0
aF0.0
aF0.0
aF0.0
aF0.279683556487608
aF-0.9047450339380734
aF-0.21132610242952266
aF1.927259388385853
aF0.4618212945985274
aF0.0
aF-0.8776240239265438
aF-0.11986522990031007
aF0.0
aF0.0
aF0.0
aF0.0
aF0.0
aF0.0
aF0.0
aF0.0
aF0.0
aF0.0
aF0.0
aF0.0
aF0.01325771936960867
aF-0.1461841156171971
aF0.5013258665504222
aF1.1793318746004045
aF-0.7865538919924908
aF0.0
aF0.7303410515468349
aF0.2910849369897922
aF0.0
aF0.0
aF0.0
aF0.0
aF0.0
aF0.0
aF0.0
aF0.0
aF0.0
aF0.0
aF0.0
aF0.0
aF0.0
aF0.0
aF0.0
aF0.0
aF0.03
aF-0.03
aI0
tp90
a((lp91
F0.0
aF0.0
aF0.0
aF0.0
aF0.0
aF0.0
aF0.0
aF0.0
aF0.0
aF0.0
aF0.0
aF0.0
aF0.0
aF0.0
aF0.0
aF0.2486184929842112
aF-0.9088718044681824
aF-0.17139985191793344
aF1.9277518651720955
aF0.4644067731325014
aF0.0
aF-0.8871270624547265
aF-0.14428167783198403
aF0.0
aF0.0
aF0.0
aF0.0
aF0.0
aF0.0
aF0.0
aF0.0
aF0.0
aF0.0
aF0.0
aF0.0
aF0.01325771936960867
aF-0.1461841156171971
aF0.5013258665504222
aF1.1793318746004045
aF-0.7865538919924908
aF0.0
aF0.7303410515468349
aF0.2910849369897922
aF0.0
aF0.0
aF0.0
aF0.0
aF0.0
aF0.0
aF0.0
aF0.0
aF0.0
aF0.0
aF0.0
aF0.0
aF0.0
aF0.0
aF0.0
aF0.0
aF0.03
aF-0.03
aI0
tp92
a((lp93
F0.0
aF0.0
aF0.0
aF0.0
aF0.0
aF0.0
aF0.0
aF0.0
aF0.0
aF0.0
aF0.0
aF0.0
aF0.0
aF0.0
aF0.0
aF0.2821208685336753
aF-0.9044604347639892
aF-0.21445068323693586
aF1.9273078912468056
aF0.4616263288963893
aF0.0
aF-0.8768927609599695
aF-0.11798394889081462
aF0.0
aF0.0
aF0.0
aF0.0
aF0.0
aF0.0
aF0.0
aF0.0
aF0.0
aF0.0
aF0.0
aF0.0
aF0.01325771936960867
aF-0.1461841156171971
aF0.5013258665504222
aF1.1793318746004045
aF-0.7865538919924908
aF0.0
aF0.7303410515468349
aF0.2910849369897922
aF0.0
aF0.0
aF0.0
aF0.0
aF0.0
aF0.0
aF0.0
aF0.0
aF0.0
aF0.0
aF0.0
aF0.0
aF0.0
aF0.0
aF0.0
aF0.0
aF0.03
aF-0.03
aI0
tp94
a((lp95
F0.0
aF0.0
aF0.0
aF0.0
aF0.0
aF0.0
aF0.0
aF0.0
aF0.0
aF0.0
aF0.0
aF0.0
aF0.0
aF0.0
aF0.0
aF0.24959906517751584
aF-0.9086919793270529
aF-0.17267672294983746
aF1.927635904674828
aF0.46432226816798033
aF0.0
aF-0.8867824955187479
aF-0.14349737695901618
aF0.0
aF0.0
aF0.0
aF0.0
aF0.0
aF0.0
aF0.0
aF0.0
aF0.0
aF0.0
aF0.0
aF0.0
aF0.01325771936960867
aF-0.1461841156171971
aF0.5013258665504222
aF1.1793318746004045
aF-0.7865538919924908
aF0.0
aF0.7303410515468349
aF0.2910849369897922
aF0.0
aF0.0
aF0.0
aF0.0
aF0.0
aF0.0
aF0.0
aF0.0
aF0.0
aF0.0
aF0.0
aF0.0
aF0.0
aF0.0
aF0.0
aF0.0
aF0.03
aF-0.03
aI0
tp96
a((lp97
F0.0
aF0.0
aF0.0
aF0.0
aF0.0
aF0.0
aF0.0
aF0.0
aF0.0
aF0.0
aF0.0
aF0.0
aF0.0
aF0.0
aF0.0
aF0.24053079208675768
aF-0.9101282474424313
aF-0.16090797309007468
aF1.9284323632214426
aF0.46509881568819467
aF0.0
aF-0.8898972073458223
aF-0.15070911811458354
aF0.0
aF0.0
aF0.0
aF0.0
aF0.0
aF0.0
aF0.0
aF0.0
aF0.0
aF0.0
aF0.0
aF0.0
aF0.01325771936960867
aF-0.1461841156171971
aF0.5013258665504222
aF1.1793318746004045
aF-0.7865538919924908
aF0.0
aF0.7303410515468349
aF0.2910849369897922
aF0.0
aF0.0
aF0.0
aF0.0
aF0.0
aF0.0
aF0.0
aF0.0
aF0.0
aF0.0
aF0.0
aF0.0
aF0.0
aF0.0
aF0.0
aF0.0
aF0.03
aF-0.03
aI0
tp98
a((lp99
F0.0
aF0.0
aF0.0
aF0.0
aF0.0
aF0.0
aF0.0
aF0.0
aF0.0
aF0.0
aF0.0
aF0.0
aF0.0
aF0.0
aF0.0
aF0.2371899567464449
aF-0.9106833461263583
aF-0.1565641055999891
aF1.9287800914613569
aF0.4654010831741837
aF0.0
aF-0.8910614427782435
aF-0.15339938896390531
aF0.0
aF0.0
aF0.0
aF0.0
aF0.0
aF0.0
aF0.0
aF0.0
aF0.0
aF0.0
aF0.0
aF0.0
aF0.01325771936960867
aF-0.1461841156171971
aF0.5013258665504222
aF1.1793318746004045
aF-0.7865538919924908
aF0.0
aF0.7303410515468349
aF0.2910849369897922
aF0.0
aF0.0
aF0.0
aF0.0
aF0.0
aF0.0
aF0.0
aF0.0
aF0.0
aF0.0
aF0.0
aF0.0
aF0.0
aF0.0
aF0.0
aF0.0
aF0.03
aF-0.03
aI0
tp100
a((lp101
F0.0
aF0.0
aF0.0
aF0.0
aF0.0
aF0.0
aF0.0
aF0.0
aF0.0
aF0.0
aF0.0
aF0.0
aF0.0
aF0.0
aF0.0
aF0.28342664891977964
aF-0.904238370718191
aF-0.21614744320749413
aF1.9272403930325661
aF0.4614910693166624
aF0.0
aF-0.8764574561383842
aF-0.11691664838758797
aF0.0
aF0.0
aF0.0
aF0.0
aF0.0
aF0.0
aF0.0
aF0.0
aF0.0
aF0.0
aF0.0
aF0.0
aF0.01325771936960867
aF-0.1461841156171971
aF0.5013258665504222
aF1.1793318746004045
aF-0.7865538919924908
aF0.0
aF0.7303410515468349
aF0.2910849369897922
aF0.0
aF0.0
aF0.0
aF0.0
aF0.0
aF0.0
aF0.0
aF0.0
aF0.0
aF0.0
aF0.0
aF0.0
aF0.0
aF0.0
aF0.0
aF0.0
aF0.03
aF-0.03
aI0
tp102
a((lp103
F0.0
aF0.0
aF0.0
aF0.0
aF0.0
aF0.0
aF0.0
aF0.0
aF0.0
aF0.0
aF0.0
aF0.0
aF0.0
aF0.0
aF0.0
aF0.2836499418412735
aF-0.9042104470376726
aF-0.2164464360276371
aF1.927243832736784
aF0.46144337355384746
aF0.0
aF-0.876381064521565
aF-0.11671451057436662
aF0.0
aF0.0
aF0.0
aF0.0
aF0.0
aF0.0
aF0.0
aF0.0
aF0.0
aF0.0
aF0.0
aF0.0
aF0.01325771936960867
aF-0.1461841156171971
aF0.5013258665504222
aF1.1793318746004045
aF-0.7865538919924908
aF0.0
aF0.7303410515468349
aF0.2910849369897922
aF0.0
aF0.0
aF0.0
aF0.0
aF0.0
aF0.0
aF0.0
aF0.0
aF0.0
aF0.0
aF0.0
aF0.0
aF0.0
aF0.0
aF0.0
aF0.0
aF0.03
aF-0.03
aI0
tp104
a((lp105
F0.0
aF0.0
aF0.0
aF0.0
aF0.0
aF0.0
aF0.0
aF0.0
aF0.0
aF0.0
aF0.0
aF0.0
aF0.0
aF0.0
aF0.0
aF0.28373770038136414
aF-0.9041952337303869
aF-0.21655681307314295
aF1.9272387566577167
aF0.46144029813713816
aF0.0
aF-0.8763552217300711
aF-0.11664982674587727
aF0.0
aF0.0
aF0.0
aF0.0
aF0.0
aF0.0
aF0.0
aF0.0
aF0.0
aF0.0
aF0.0
aF0.0
aF0.01325771936960867
aF-0.1461841156171971
aF0.5013258665504222
aF1.1793318746004045
aF-0.7865538919924908
aF0.0
aF0.7303410515468349
aF0.2910849369897922
aF0.0
aF0.0
aF0.0
aF0.0
aF0.0
aF0.0
aF0.0
aF0.0
aF0.0
aF0.0
aF0.0
aF0.0
aF0.0
aF0.0
aF0.0
aF0.0
aF0.03
aF-0.03
aI0
tp106
a((lp107
F0.0
aF0.0
aF0.0
aF0.0
aF0.0
aF0.0
aF0.0
aF0.0
aF0.0
aF0.0
aF0.0
aF0.0
aF0.0
aF0.0
aF0.0
aF0.24130766346171684
aF-0.9098628803904015
aF-0.1619787472180319
aF1.9281286682733971
aF0.46496956466827327
aF0.0
aF-0.8895024066426179
aF-0.14998739011800208
aF0.0
aF0.0
aF0.0
aF0.0
aF0.0
aF0.0
aF0.0
aF0.0
aF0.0
aF0.0
aF0.0
aF0.0
aF0.01325771936960867
aF-0.1461841156171971
aF0.5013258665504222
aF1.1793318746004045
aF-0.7865538919924908
aF0.0
aF0.7303410515468349
aF0.2910849369897922
aF0.0
aF0.0
aF0.0
aF0.0
aF0.0
aF0.0
aF0.0
aF0.0
aF0.0
aF0.0
aF0.0
aF0.0
aF0.0
aF0.0
aF0.0
aF0.0
aF0.03
aF-0.03
aI0
tp108
a((lp109
F0.0
aF0.0
aF0.0
aF0.0
aF0.0
aF0.0
aF0.0
aF0.0
aF0.0
aF0.0
aF0.0
aF0.0
aF0.0
aF0.0
aF0.0
aF0.24357280764460656
aF-0.9094778351861315
aF-0.16490967511520707
aF1.9278717968087162
aF0.464812507160036
aF0.0
aF-0.8887077501980627
aF-0.14822395841097005
aF0.0
aF0.0
aF0.0
aF0.0
aF0.0
aF0.0
aF0.0
aF0.0
aF0.0
aF0.0
aF0.0
aF0.0
aF0.01325771936960867
aF-0.1461841156171971
aF0.5013258665504222
aF1.1793318746004045
aF-0.7865538919924908
aF0.0
aF0.7303410515468349
aF0.2910849369897922
aF0.0
aF0.0
aF0.0
aF0.0
aF0.0
aF0.0
aF0.0
aF0.0
aF0.0
aF0.0
aF0.0
aF0.0
aF0.0
aF0.0
aF0.0
aF0.0
aF0.03
aF-0.03
aI0
tp110
a((lp111
F0.0
aF0.0
aF0.0
aF0.0
aF0.0
aF0.0
aF0.0
aF0.0
aF0.0
aF0.0
aF0.0
aF0.0
aF0.0
aF0.0
aF0.0
aF0.28410266690257585
aF-0.9040211017441339
aF-0.21704142505951177
aF1.9270904244916374
aF0.46139154797998083
aF0.0
aF-0.8762196527022429
aF-0.11628944449814768
aF0.0
aF0.0
aF0.0
aF0.0
aF0.0
aF0.0
aF0.0
aF0.0
aF0.0
aF0.0
aF0.0
aF0.0
aF0.01325771936960867
aF-0.1461841156171971
aF0.5013258665504222
aF1.1793318746004045
aF-0.7865538919924908
aF0.0
aF0.7303410515468349
aF0.2910849369897922
aF0.0
aF0.0
aF0.0
aF0.0
aF0.0
aF0.0
aF0.0
aF0.0
aF0.0
aF0.0
aF0.0
aF0.0
aF0.0
aF0.0
aF0.0
aF0.0
aF0.03
aF-0.03
aI0
tp112
a((lp113
F0.0
aF0.0
aF0.0
aF0.0
aF0.0
aF0.0
aF0.0
aF0.0
aF0.0
aF0.0
aF0.0
aF0.0
aF0.0
aF0.0
aF0.0
aF0.285180748575609
aF-0.9038813422532722
aF-0.21842133360424673
aF1.9271143943612747
aF0.4612955176680405
aF0.0
aF-0.8759181975040363
aF-0.11544272789989513
aF0.0
aF0.0
aF0.0
aF0.0
aF0.0
aF0.0
aF0.0
aF0.0
aF0.0
aF0.0
aF0.0
aF0.0
aF0.01325771936960867
aF-0.1461841156171971
aF0.5013258665504222
aF1.1793318746004045
aF-0.7865538919924908
aF0.0
aF0.7303410515468349
aF0.2910849369897922
aF0.0
aF0.0
aF0.0
aF0.0
aF0.0
aF0.0
aF0.0
aF0.0
aF0.0
aF0.0
aF0.0
aF0.0
aF0.0
aF0.0
aF0.0
aF0.0
aF0.03
aF-0.03
aI0
tp114
a((lp115
F0.0
aF0.0
aF0.0
aF0.0
aF0.0
aF0.0
aF0.0
aF0.0
aF0.0
aF0.0
aF0.0
aF0.0
aF0.0
aF0.0
aF0.0
aF0.2869362063532219
aF-0.9037118659901278
aF-0.22067368507518068
aF1.9271745109537304
aF0.4611639038543381
aF0.0
aF-0.8753584985150185
aF-0.11411742786412946
aF0.0
aF0.0
aF0.0
aF0.0
aF0.0
aF0.0
aF0.0
aF0.0
aF0.0
aF0.0
aF0.0
aF0.0
aF0.01325771936960867
aF-0.1461841156171971
aF0.5013258665504222
aF1.1793318746004045
aF-0.7865538919924908
aF0.0
aF0.7303410515468349
aF0.2910849369897922
aF0.0
aF0.0
aF0.0
aF0.0
aF0.0
aF0.0
aF0.0
aF0.0
aF0.0
aF0.0
aF0.0
aF0.0
aF0.0
aF0.0
aF0.0
aF0.0
aF0.03
aF-0.03
aI0
tp116
a((lp117
F0.0
aF0.0
aF0.0
aF0.0
aF0.0
aF0.0
aF0.0
aF0.0
aF0.0
aF0.0
aF0.0
aF0.0
aF0.0
aF0.0
aF0.0
aF0.2873763606696058
aF-0.9036462157173191
aF-0.22125017290387455
aF1.927178310283025
aF0.4610978881037034
aF0.0
aF-0.8752287456668681
aF-0.11373990648776541
aF0.0
aF0.0
aF0.0
aF0.0
aF0.0
aF0.0
aF0.0
aF0.0
aF0.0
aF0.0
aF0.0
aF0.0
aF0.01325771936960867
aF-0.1461841156171971
aF0.5013258665504222
aF1.1793318746004045
aF-0.7865538919924908
aF0.0
aF0.7303410515468349
aF0.2910849369897922
aF0.0
aF0.0
aF0.0
aF0.0
aF0.0
aF0.0
aF0.0
aF0.0
aF0.0
aF0.0
aF0.0
aF0.0
aF0.0
aF0.0
aF0.0
aF0.0
aF0.03
aF-0.03
aI0
tp118
a((lp119
F0.0
aF0.0
aF0.0
aF0.0
aF0.0
aF0.0
aF0.0
aF0.0
aF0.0
aF0.0
aF0.0
aF0.0
aF0.0
aF0.0
aF0.0
aF0.28733846038172806
aF-0.9036171123624317
aF-0.22119671421934625
aF1.9271297223863102
aF0.46112277437891874
aF0.0
aF-0.875230230342641
aF-0.11378150012684449
aF0.0
aF0.0
aF0.0
aF0.0
aF0.0
aF0.0
aF0.0
aF0.0
aF0.0
aF0.0
aF0.0
aF0.0
aF0.01325771936960867
aF-0.1461841156171971
aF0.5013258665504222
aF1.1793318746004045
aF-0.7865538919924908
aF0.0
aF0.7303410515468349
aF0.2910849369897922
aF0.0
aF0.0
aF0.0
aF0.0
aF0.0
aF0.0
aF0.0
aF0.0
aF0.0
aF0.0
aF0.0
aF0.0
aF0.0
aF0.0
aF0.0
aF0.0
aF0.03
aF-0.03
aI0
tp120
a((lp121
F0.0
aF0.0
aF0.0
aF0.0
aF0.0
aF0.0
aF0.0
aF0.0
aF0.0
aF0.0
aF0.0
aF0.0
aF0.0
aF0.0
aF0.0
aF0.2876758206042945
aF-0.903571461571578
aF-0.22163914313053482
aF1.9271255822441942
aF0.46107509858380785
aF0.0
aF-0.8751118380577706
aF-0.11349340597097277
aF0.0
aF0.0
aF0.0
aF0.0
aF0.0
aF0.0
aF0.0
aF0.0
aF0.0
aF0.0
aF0.0
aF0.0
aF0.01325771936960867
aF-0.1461841156171971
aF0.5013258665504222
aF1.1793318746004045
aF-0.7865538919924908
aF0.0
aF0.7303410515468349
aF0.2910849369897922
aF0.0
aF0.0
aF0.0
aF0.0
aF0.0
aF0.0
aF0.0
aF0.0
aF0.0
aF0.0
aF0.0
aF0.0
aF0.0
aF0.0
aF0.0
aF0.0
aF0.03
aF-0.03
aI0
tp122
a((lp123
F0.0
aF0.0
aF0.0
aF0.0
aF0.0
aF0.0
aF0.0
aF0.0
aF0.0
aF0.0
aF0.0
aF0.0
aF0.0
aF0.0
aF0.0
aF0.2843491081470256
aF-0.9038301322681167
aF-0.21740565830735134
aF1.9268580879091657
aF0.46131943920819674
aF0.0
aF-0.8760325005543593
aF-0.11597933351918457
aF0.0
aF0.0
aF0.0
aF0.0
aF0.0
aF0.0
aF0.0
aF0.0
aF0.0
aF0.0
aF0.0
aF0.0
aF0.01325771936960867
aF-0.1461841156171971
aF0.5013258665504222
aF1.1793318746004045
aF-0.7865538919924908
aF0.0
aF0.7303410515468349
aF0.2910849369897922
aF0.0
aF0.0
aF0.0
aF0.0
aF0.0
aF0.0
aF0.0
aF0.0
aF0.0
aF0.0
aF0.0
aF0.0
aF0.0
aF0.0
aF0.0
aF0.0
aF0.03
aF-0.03
aI0
tp124
a((lp125
F0.0
aF0.0
aF0.0
aF0.0
aF0.0
aF0.0
aF0.0
aF0.0
aF0.0
aF0.0
aF0.0
aF0.0
aF0.0
aF0.0
aF0.0
aF0.2882735114126111
aF-0.903455589950394
aF-0.22240649610144272
aF1.9270763289295278
aF0.461036659674466
aF0.0
aF-0.8749125666624766
aF-0.11302345849559693
aF0.0
aF0.0
aF0.0
aF0.0
aF0.0
aF0.0
aF0.0
aF0.0
aF0.0
aF0.0
aF0.0
aF0.0
aF0.01325771936960867
aF-0.1461841156171971
aF0.5013258665504222
aF1.1793318746004045
aF-0.7865538919924908
aF0.0
aF0.7303410515468349
aF0.2910849369897922
aF0.0
aF0.0
aF0.0
aF0.0
aF0.0
aF0.0
aF0.0
aF0.0
aF0.0
aF0.0
aF0.0
aF0.0
aF0.0
aF0.0
aF0.0
aF0.0
aF0.03
aF-0.03
aI0
tp126
a((lp127
F0.0
aF0.0
aF0.0
aF0.0
aF0.0
aF0.0
aF0.0
aF0.0
aF0.0
aF0.0
aF0.0
aF0.0
aF0.0
aF0.0
aF0.0
aF0.2839617117157857
aF-0.9038170202842526
aF-0.21695482063235577
aF1.9267567070690526
aF0.4612795436402688
aF0.0
aF-0.8760790429868199
aF-0.11617855413662026
aF0.0
aF0.0
aF0.0
aF0.0
aF0.0
aF0.0
aF0.0
aF0.0
aF0.0
aF0.0
aF0.0
aF0.0
aF0.01325771936960867
aF-0.1461841156171971
aF0.5013258665504222
aF1.1793318746004045
aF-0.7865538919924908
aF0.0
aF0.7303410515468349
aF0.2910849369897922
aF0.0
aF0.0
aF0.0
aF0.0
aF0.0
aF0.0
aF0.0
aF0.0
aF0.0
aF0.0
aF0.0
aF0.0
aF0.0
aF0.0
aF0.0
aF0.0
aF0.03
aF-0.03
aI0
tp128
a((lp129
F0.0
aF0.0
aF0.0
aF0.0
aF0.0
aF0.0
aF0.0
aF0.0
aF0.0
aF0.0
aF0.0
aF0.0
aF0.0
aF0.0
aF0.0
aF0.28407102159307107
aF-0.9039199062967819
aF-0.21700343602557237
aF1.9268060726887757
aF0.46148801117769006
aF0.0
aF-0.8760025913748851
aF-0.11636916010283674
aF0.0
aF0.0
aF0.0
aF0.0
aF0.0
aF0.0
aF0.0
aF0.0
aF0.0
aF0.0
aF0.0
aF0.0
aF0.01325771936960867
aF-0.1461841156171971
aF0.5013258665504222
aF1.1793318746004045
aF-0.7865538919924908
aF0.0
aF0.7303410515468349
aF0.2910849369897922
aF0.0
aF0.0
aF0.0
aF0.0
aF0.0
aF0.0
aF0.0
aF0.0
aF0.0
aF0.0
aF0.0
aF0.0
aF0.0
aF0.0
aF0.0
aF0.0
aF0.03
aF-0.03
aI0
tp130
a((lp131
F0.0
aF0.0
aF0.0
aF0.0
aF0.0
aF0.0
aF0.0
aF0.0
aF0.0
aF0.0
aF0.0
aF0.0
aF0.0
aF0.0
aF0.0
aF0.2867135126546486
aF-0.903622107984773
aF-0.22041578584305227
aF1.9269565413993783
aF0.4611711824155408
aF0.0
aF-0.8752870672109978
aF-0.11421566759516263
aF0.0
aF0.0
aF0.0
aF0.0
aF0.0
aF0.0
aF0.0
aF0.0
aF0.0
aF0.0
aF0.0
aF0.0
aF0.01325771936960867
aF-0.1461841156171971
aF0.5013258665504222
aF1.1793318746004045
aF-0.7865538919924908
aF0.0
aF0.7303410515468349
aF0.2910849369897922
aF0.0
aF0.0
aF0.0
aF0.0
aF0.0
aF0.0
aF0.0
aF0.0
aF0.0
aF0.0
aF0.0
aF0.0
aF0.0
aF0.0
aF0.0
aF0.0
aF0.03
aF-0.03
aI0
tp132
a((lp133
F0.0
aF0.0
aF0.0
aF0.0
aF0.0
aF0.0
aF0.0
aF0.0
aF0.0
aF0.0
aF0.0
aF0.0
aF0.0
aF0.0
aF0.0
aF0.2384260659355173
aF-0.9100488480618788
aF-0.15829236969889868
aF1.9279761019956518
aF0.4652154625457592
aF0.0
aF-0.8903300305982711
aF-0.1522250007445241
aF0.0
aF0.0
aF0.0
aF0.0
aF0.0
aF0.0
aF0.0
aF0.0
aF0.0
aF0.0
aF0.0
aF0.0
aF0.01325771936960867
aF-0.1461841156171971
aF0.5013258665504222
aF1.1793318746004045
aF-0.7865538919924908
aF0.0
aF0.7303410515468349
aF0.2910849369897922
aF0.0
aF0.0
aF0.0
aF0.0
aF0.0
aF0.0
aF0.0
aF0.0
aF0.0
aF0.0
aF0.0
aF0.0
aF0.0
aF0.0
aF0.0
aF0.0
aF0.03
aF-0.03
aI0
tp134
a((lp135
F0.0
aF0.0
aF0.0
aF0.0
aF0.0
aF0.0
aF0.0
aF0.0
aF0.0
aF0.0
aF0.0
aF0.0
aF0.0
aF0.0
aF0.0
aF0.28951585189329654
aF-0.9033198274794698
aF-0.22400567406068855
aF1.9271395822018709
aF0.4609123515462345
aF0.0
aF-0.8745627331460671
aF-0.11204950779138442
aF0.0
aF0.0
aF0.0
aF0.0
aF0.0
aF0.0
aF0.0
aF0.0
aF0.0
aF0.0
aF0.0
aF0.0
aF0.01325771936960867
aF-0.1461841156171971
aF0.5013258665504222
aF1.1793318746004045
aF-0.7865538919924908
aF0.0
aF0.7303410515468349
aF0.2910849369897922
aF0.0
aF0.0
aF0.0
aF0.0
aF0.0
aF0.0
aF0.0
aF0.0
aF0.0
aF0.0
aF0.0
aF0.0
aF0.0
aF0.0
aF0.0
aF0.0
aF0.03
aF-0.03
aI0
tp136
a((lp137
F0.0
aF0.0
aF0.0
aF0.0
aF0.0
aF0.0
aF0.0
aF0.0
aF0.0
aF0.0
aF0.0
aF0.0
aF0.0
aF0.0
aF0.0
aF0.23587718603158553
aF-0.9104866084758297
aF-0.1549428109703471
aF1.9282714843641964
aF0.4654915011826751
aF0.0
aF-0.8912470634492728
aF-0.1543173074808578
aF0.0
aF0.0
aF0.0
aF0.0
aF0.0
aF0.0
aF0.0
aF0.0
aF0.0
aF0.0
aF0.0
aF0.0
aF0.01325771936960867
aF-0.1461841156171971
aF0.5013258665504222
aF1.1793318746004045
aF-0.7865538919924908
aF0.0
aF0.7303410515468349
aF0.2910849369897922
aF0.0
aF0.0
aF0.0
aF0.0
aF0.0
aF0.0
aF0.0
aF0.0
aF0.0
aF0.0
aF0.0
aF0.0
aF0.0
aF0.0
aF0.0
aF0.0
aF0.03
aF-0.03
aI0
tp138
a((lp139
F0.0
aF0.0
aF0.0
aF0.0
aF0.0
aF0.0
aF0.0
aF0.0
aF0.0
aF0.0
aF0.0
aF0.0
aF0.0
aF0.0
aF0.0
aF0.28879939371811025
aF-0.9033612231453625
aF-0.22308791234607803
aF1.9270517640872078
aF0.46098169912141507
aF0.0
aF-0.874746661972874
aF-0.11259154866568741
aF0.0
aF0.0
aF0.0
aF0.0
aF0.0
aF0.0
aF0.0
aF0.0
aF0.0
aF0.0
aF0.0
aF0.0
aF0.01325771936960867
aF-0.1461841156171971
aF0.5013258665504222
aF1.1793318746004045
aF-0.7865538919924908
aF0.0
aF0.7303410515468349
aF0.2910849369897922
aF0.0
aF0.0
aF0.0
aF0.0
aF0.0
aF0.0
aF0.0
aF0.0
aF0.0
aF0.0
aF0.0
aF0.0
aF0.0
aF0.0
aF0.0
aF0.0
aF0.03
aF-0.03
aI0
tp140
a((lp141
F0.0
aF0.0
aF0.0
aF0.0
aF0.0
aF0.0
aF0.0
aF0.0
aF0.0
aF0.0
aF0.0
aF0.0
aF0.0
aF0.0
aF0.0
aF0.2887613713066097
aF-0.9033578158688914
aF-0.22305139888323947
aF1.9270373816720792
aF0.4609592488908847
aF0.0
aF-0.8747407086472015
aF-0.11258607664782942
aF0.0
aF0.0
aF0.0
aF0.0
aF0.0
aF0.0
aF0.0
aF0.0
aF0.0
aF0.0
aF0.0
aF0.0
aF0.01325771936960867
aF-0.1461841156171971
aF0.5013258665504222
aF1.1793318746004045
aF-0.7865538919924908
aF0.0
aF0.7303410515468349
aF0.2910849369897922
aF0.0
aF0.0
aF0.0
aF0.0
aF0.0
aF0.0
aF0.0
aF0.0
aF0.0
aF0.0
aF0.0
aF0.0
aF0.0
aF0.0
aF0.0
aF0.0
aF0.03
aF-0.03
aI0
tp142
a((lp143
F0.0
aF0.0
aF0.0
aF0.0
aF0.0
aF0.0
aF0.0
aF0.0
aF0.0
aF0.0
aF0.0
aF0.0
aF0.0
aF0.0
aF0.0
aF0.29021491249226516
aF-0.9032156570798623
aF-0.22489438292173133
aF1.927122022162074
aF0.46088062332084917
aF0.0
aF-0.8743423229112983
aF-0.11152829672165132
aF0.0
aF0.0
aF0.0
aF0.0
aF0.0
aF0.0
aF0.0
aF0.0
aF0.0
aF0.0
aF0.0
aF0.0
aF0.01325771936960867
aF-0.1461841156171971
aF0.5013258665504222
aF1.1793318746004045
aF-0.7865538919924908
aF0.0
aF0.7303410515468349
aF0.2910849369897922
aF0.0
aF0.0
aF0.0
aF0.0
aF0.0
aF0.0
aF0.0
aF0.0
aF0.0
aF0.0
aF0.0
aF0.0
aF0.0
aF0.0
aF0.0
aF0.0
aF0.03
aF-0.03
aI0
tp144
a((lp145
F0.0
aF0.0
aF0.0
aF0.0
aF0.0
aF0.0
aF0.0
aF0.0
aF0.0
aF0.0
aF0.0
aF0.0
aF0.0
aF0.0
aF0.0
aF0.28589415125198925
aF-0.9035959603298557
aF-0.21937398288057094
aF1.9266873742171795
aF0.46129884263538673
aF0.0
aF-0.8753793984926257
aF-0.11486699781299677
aF0.0
aF0.0
aF0.0
aF0.0
aF0.0
aF0.0
aF0.0
aF0.0
aF0.0
aF0.0
aF0.0
aF0.0
aF0.01325771936960867
aF-0.1461841156171971
aF0.5013258665504222
aF1.1793318746004045
aF-0.7865538919924908
aF0.0
aF0.7303410515468349
aF0.2910849369897922
aF0.0
aF0.0
aF0.0
aF0.0
aF0.0
aF0.0
aF0.0
aF0.0
aF0.0
aF0.0
aF0.0
aF0.0
aF0.0
aF0.0
aF0.0
aF0.0
aF0.03
aF-0.03
aI0
tp146
a((lp147
F0.0
aF0.0
aF0.0
aF0.0
aF0.0
aF0.0
aF0.0
aF0.0
aF0.0
aF0.0
aF0.0
aF0.0
aF0.0
aF0.0
aF0.0
aF0.28977697446992434
aF-0.903139079795951
aF-0.2243665544536167
aF1.9269342683661776
aF0.4608730659769127
aF0.0
aF-0.8743973107625163
aF-0.111753053357162
aF0.0
aF0.0
aF0.0
aF0.0
aF0.0
aF0.0
aF0.0
aF0.0
aF0.0
aF0.0
aF0.0
aF0.0
aF0.01325771936960867
aF-0.1461841156171971
aF0.5013258665504222
aF1.1793318746004045
aF-0.7865538919924908
aF0.0
aF0.7303410515468349
aF0.2910849369897922
aF0.0
aF0.0
aF0.0
aF0.0
aF0.0
aF0.0
aF0.0
aF0.0
aF0.0
aF0.0
aF0.0
aF0.0
aF0.0
aF0.0
aF0.0
aF0.0
aF0.03
aF-0.03
aI0
tp148
a((lp149
F0.0
aF0.0
aF0.0
aF0.0
aF0.0
aF0.0
aF0.0
aF0.0
aF0.0
aF0.0
aF0.0
aF0.0
aF0.0
aF0.0
aF0.0
aF0.23421373294766293
aF-0.9106445480196674
aF-0.15283784269268924
aF1.9282704320901707
aF0.4655659032957548
aF0.0
aF-0.8917315144702554
aF-0.155545034234654
aF0.0
aF0.0
aF0.0
aF0.0
aF0.0
aF0.0
aF0.0
aF0.0
aF0.0
aF0.0
aF0.0
aF0.0
aF0.01325771936960867
aF-0.1461841156171971
aF0.5013258665504222
aF1.1793318746004045
aF-0.7865538919924908
aF0.0
aF0.7303410515468349
aF0.2910849369897922
aF0.0
aF0.0
aF0.0
aF0.0
aF0.0
aF0.0
aF0.0
aF0.0
aF0.0
aF0.0
aF0.0
aF0.0
aF0.0
aF0.0
aF0.0
aF0.0
aF0.03
aF-0.03
aI0
tp150
a((lp151
F0.0
aF0.0
aF0.0
aF0.0
aF0.0
aF0.0
aF0.0
aF0.0
aF0.0
aF0.0
aF0.0
aF0.0
aF0.0
aF0.0
aF0.0
aF0.2874999758377806
aF-0.9033737565012593
aF-0.22142693443667327
aF1.9267132233577273
aF0.46117112308209013
aF0.0
aF-0.8749295263636607
aF-0.11361727394247739
aF0.0
aF0.0
aF0.0
aF0.0
aF0.0
aF0.0
aF0.0
aF0.0
aF0.0
aF0.0
aF0.0
aF0.0
aF0.01325771936960867
aF-0.1461841156171971
aF0.5013258665504222
aF1.1793318746004045
aF-0.7865538919924908
aF0.0
aF0.7303410515468349
aF0.2910849369897922
aF0.0
aF0.0
aF0.0
aF0.0
aF0.0
aF0.0
aF0.0
aF0.0
aF0.0
aF0.0
aF0.0
aF0.0
aF0.0
aF0.0
aF0.0
aF0.0
aF0.03
aF-0.03
aI0
tp152
a((lp153
F0.0
aF0.0
aF0.0
aF0.0
aF0.0
aF0.0
aF0.0
aF0.0
aF0.0
aF0.0
aF0.0
aF0.0
aF0.0
aF0.0
aF0.0
aF0.28608152484492055
aF-0.9034260239909958
aF-0.21969782626585846
aF1.9265764008116129
aF0.4611130911046723
aF0.0
aF-0.8753318674955193
aF-0.11449094948577457
aF0.0
aF0.0
aF0.0
aF0.0
aF0.0
aF0.0
aF0.0
aF0.0
aF0.0
aF0.0
aF0.0
aF0.0
aF0.01325771936960867
aF-0.1461841156171971
aF0.5013258665504222
aF1.1793318746004045
aF-0.7865538919924908
aF0.0
aF0.7303410515468349
aF0.2910849369897922
aF0.0
aF0.0
aF0.0
aF0.0
aF0.0
aF0.0
aF0.0
aF0.0
aF0.0
aF0.0
aF0.0
aF0.0
aF0.0
aF0.0
aF0.0
aF0.0
aF0.03
aF-0.03
aI0
tp154
a((lp155
F0.0
aF0.0
aF0.0
aF0.0
aF0.0
aF0.0
aF0.0
aF0.0
aF0.0
aF0.0
aF0.0
aF0.0
aF0.0
aF0.0
aF0.0
aF0.2913536963730616
aF-0.9029493359860454
aF-0.2263847547822203
aF1.9269833882134286
aF0.46074167114349635
aF0.0
aF-0.8739430490988798
aF-0.11053968359342557
aF0.0
aF0.0
aF0.0
aF0.0
aF0.0
aF0.0
aF0.0
aF0.0
aF0.0
aF0.0
aF0.0
aF0.0
aF0.01325771936960867
aF-0.1461841156171971
aF0.5013258665504222
aF1.1793318746004045
aF-0.7865538919924908
aF0.0
aF0.7303410515468349
aF0.2910849369897922
aF0.0
aF0.0
aF0.0
aF0.0
aF0.0
aF0.0
aF0.0
aF0.0
aF0.0
aF0.0
aF0.0
aF0.0
aF0.0
aF0.0
aF0.0
aF0.0
aF0.03
aF-0.03
aI0
tp156
a((lp157
F0.0
aF0.0
aF0.0
aF0.0
aF0.0
aF0.0
aF0.0
aF0.0
aF0.0
aF0.0
aF0.0
aF0.0
aF0.0
aF0.0
aF0.0
aF0.29224655573399705
aF-0.9028544041756339
aF-0.2275362854802973
aF1.9270510744310045
aF0.4606334262932715
aF0.0
aF-0.8737159558871397
aF-0.10982388053598581
aF0.0
aF0.0
aF0.0
aF0.0
aF0.0
aF0.0
aF0.0
aF0.0
aF0.0
aF0.0
aF0.0
aF0.0
aF0.01325771936960867
aF-0.1461841156171971
aF0.5013258665504222
aF1.1793318746004045
aF-0.7865538919924908
aF0.0
aF0.7303410515468349
aF0.2910849369897922
aF0.0
aF0.0
aF0.0
aF0.0
aF0.0
aF0.0
aF0.0
aF0.0
aF0.0
aF0.0
aF0.0
aF0.0
aF0.0
aF0.0
aF0.0
aF0.0
aF0.03
aF-0.03
aI0
tp158
a((lp159
F0.0
aF0.0
aF0.0
aF0.0
aF0.0
aF0.0
aF0.0
aF0.0
aF0.0
aF0.0
aF0.0
aF0.0
aF0.0
aF0.0
aF0.0
aF0.2879819739002721
aF-0.9032419369240142
aF-0.22210924997128448
aF1.9266885891198515
aF0.4609789046176513
aF0.0
aF-0.8748011530757841
aF-0.11304770841597289
aF0.0
aF0.0
aF0.0
aF0.0
aF0.0
aF0.0
aF0.0
aF0.0
aF0.0
aF0.0
aF0.0
aF0.0
aF0.01325771936960867
aF-0.1461841156171971
aF0.5013258665504222
aF1.1793318746004045
aF-0.7865538919924908
aF0.0
aF0.7303410515468349
aF0.2910849369897922
aF0.0
aF0.0
aF0.0
aF0.0
aF0.0
aF0.0
aF0.0
aF0.0
aF0.0
aF0.0
aF0.0
aF0.0
aF0.0
aF0.0
aF0.0
aF0.0
aF0.03
aF-0.03
aI0
tp160
a((lp161
F0.0
aF0.0
aF0.0
aF0.0
aF0.0
aF0.0
aF0.0
aF0.0
aF0.0
aF0.0
aF0.0
aF0.0
aF0.0
aF0.0
aF0.0
aF0.2899285819689187
aF-0.9029911901686595
aF-0.22458685668478873
aF1.9267984588256626
aF0.4607974319211436
aF0.0
aF-0.8743400959225948
aF-0.11152093377892855
aF0.0
aF0.0
aF0.0
aF0.0
aF0.0
aF0.0
aF0.0
aF0.0
aF0.0
aF0.0
aF0.0
aF0.0
aF0.01325771936960867
aF-0.1461841156171971
aF0.5013258665504222
aF1.1793318746004045
aF-0.7865538919924908
aF0.0
aF0.7303410515468349
aF0.2910849369897922
aF0.0
aF0.0
aF0.0
aF0.0
aF0.0
aF0.0
aF0.0
aF0.0
aF0.0
aF0.0
aF0.0
aF0.0
aF0.0
aF0.0
aF0.0
aF0.0
aF0.03
aF-0.03
aI0
tp162
a((lp163
F0.0
aF0.0
aF0.0
aF0.0
aF0.0
aF0.0
aF0.0
aF0.0
aF0.0
aF0.0
aF0.0
aF0.0
aF0.0
aF0.0
aF0.0
aF0.29303424914225773
aF-0.9027476039544802
aF-0.2285523783900441
aF1.9270791732853318
aF0.4605393954068458
aF0.0
aF-0.8735065372547525
aF-0.10918243107924924
aF0.0
aF0.0
aF0.0
aF0.0
aF0.0
aF0.0
aF0.0
aF0.0
aF0.0
aF0.0
aF0.0
aF0.0
aF0.01325771936960867
aF-0.1461841156171971
aF0.5013258665504222
aF1.1793318746004045
aF-0.7865538919924908
aF0.0
aF0.7303410515468349
aF0.2910849369897922
aF0.0
aF0.0
aF0.0
aF0.0
aF0.0
aF0.0
aF0.0
aF0.0
aF0.0
aF0.0
aF0.0
aF0.0
aF0.0
aF0.0
aF0.0
aF0.0
aF0.03
aF-0.03
aI0
tp164
a((lp165
F0.0
aF0.0
aF0.0
aF0.0
aF0.0
aF0.0
aF0.0
aF0.0
aF0.0
aF0.0
aF0.0
aF0.0
aF0.0
aF0.0
aF0.0
aF0.2920998789884806
aF-0.9028365732458941
aF-0.22734234642067813
aF1.9269745494397819
aF0.46068337329352615
aF0.0
aF-0.8737155129974035
aF-0.10995918964758679
aF0.0
aF0.0
aF0.0
aF0.0
aF0.0
aF0.0
aF0.0
aF0.0
aF0.0
aF0.0
aF0.0
aF0.0
aF0.01325771936960867
aF-0.1461841156171971
aF0.5013258665504222
aF1.1793318746004045
aF-0.7865538919924908
aF0.0
aF0.7303410515468349
aF0.2910849369897922
aF0.0
aF0.0
aF0.0
aF0.0
aF0.0
aF0.0
aF0.0
aF0.0
aF0.0
aF0.0
aF0.0
aF0.0
aF0.0
aF0.0
aF0.0
aF0.0
aF0.03
aF-0.03
aI0
tp166
a((lp167
F0.0
aF0.0
aF0.0
aF0.0
aF0.0
aF0.0
aF0.0
aF0.0
aF0.0
aF0.0
aF0.0
aF0.0
aF0.0
aF0.0
aF0.0
aF0.2880335894188509
aF-0.9031490984929381
aF-0.22220483696955737
aF1.9265991305376116
aF0.4609239506638747
aF0.0
aF-0.874772765117129
aF-0.11292502658494086
aF0.0
aF0.0
aF0.0
aF0.0
aF0.0
aF0.0
aF0.0
aF0.0
aF0.0
aF0.0
aF0.0
aF0.0
aF0.01325771936960867
aF-0.1461841156171971
aF0.5013258665504222
aF1.1793318746004045
aF-0.7865538919924908
aF0.0
aF0.7303410515468349
aF0.2910849369897922
aF0.0
aF0.0
aF0.0
aF0.0
aF0.0
aF0.0
aF0.0
aF0.0
aF0.0
aF0.0
aF0.0
aF0.0
aF0.0
aF0.0
aF0.0
aF0.0
aF0.03
aF-0.03
aI0
tp168
a((lp169
F0.0
aF0.0
aF0.0
aF0.0
aF0.0
aF0.0
aF0.0
aF0.0
aF0.0
aF0.0
aF0.0
aF0.0
aF0.0
aF0.0
aF0.0
aF0.29333439506310877
aF-0.9026911090235878
aF-0.22893654760509324
aF1.927033024379318
aF0.460543343452971
aF0.0
aF-0.8733689569165329
aF-0.10896820071616987
aF0.0
aF0.0
aF0.0
aF0.0
aF0.0
aF0.0
aF0.0
aF0.0
aF0.0
aF0.0
aF0.0
aF0.0
aF0.01325771936960867
aF-0.1461841156171971
aF0.5013258665504222
aF1.1793318746004045
aF-0.7865538919924908
aF0.0
aF0.7303410515468349
aF0.2910849369897922
aF0.0
aF0.0
aF0.0
aF0.0
aF0.0
aF0.0
aF0.0
aF0.0
aF0.0
aF0.0
aF0.0
aF0.0
aF0.0
aF0.0
aF0.0
aF0.0
aF0.03
aF-0.03
aI0
tp170
a((lp171
F0.0
aF0.0
aF0.0
aF0.0
aF0.0
aF0.0
aF0.0
aF0.0
aF0.0
aF0.0
aF0.0
aF0.0
aF0.0
aF0.0
aF0.0
aF0.28913929926985166
aF-0.9030836341174376
aF-0.22359168414935016
aF1.9266738847803793
aF0.4608973588612491
aF0.0
aF-0.8744250526947485
aF-0.11215414621531916
aF0.0
aF0.0
aF0.0
aF0.0
aF0.0
aF0.0
aF0.0
aF0.0
aF0.0
aF0.0
aF0.0
aF0.0
aF0.01325771936960867
aF-0.1461841156171971
aF0.5013258665504222
aF1.1793318746004045
aF-0.7865538919924908
aF0.0
aF0.7303410515468349
aF0.2910849369897922
aF0.0
aF0.0
aF0.0
aF0.0
aF0.0
aF0.0
aF0.0
aF0.0
aF0.0
aF0.0
aF0.0
aF0.0
aF0.0
aF0.0
aF0.0
aF0.0
aF0.03
aF-0.03
aI0
tp172
a((lp173
F0.0
aF0.0
aF0.0
aF0.0
aF0.0
aF0.0
aF0.0
aF0.0
aF0.0
aF0.0
aF0.0
aF0.0
aF0.0
aF0.0
aF0.0
aF0.29130598412202846
aF-0.9028218577836794
aF-0.2263358190320995
aF1.9268113826270306
aF0.46073733824427493
aF0.0
aF-0.8739167882436568
aF-0.11050903450143093
aF0.0
aF0.0
aF0.0
aF0.0
aF0.0
aF0.0
aF0.0
aF0.0
aF0.0
aF0.0
aF0.0
aF0.0
aF0.01325771936960867
aF-0.1461841156171971
aF0.5013258665504222
aF1.1793318746004045
aF-0.7865538919924908
aF0.0
aF0.7303410515468349
aF0.2910849369897922
aF0.0
aF0.0
aF0.0
aF0.0
aF0.0
aF0.0
aF0.0
aF0.0
aF0.0
aF0.0
aF0.0
aF0.0
aF0.0
aF0.0
aF0.0
aF0.0
aF0.03
aF-0.03
aI0
tp174
a((lp175
F0.0
aF0.0
aF0.0
aF0.0
aF0.0
aF0.0
aF0.0
aF0.0
aF0.0
aF0.0
aF0.0
aF0.0
aF0.0
aF0.0
aF0.0
aF0.2904815757885805
aF-0.9029831570343978
aF-0.2252472555394162
aF1.9267537017465752
aF0.46092321111010437
aF0.0
aF-0.8740376360464809
aF-0.11128593633745712
aF0.0
aF0.0
aF0.0
aF0.0
aF0.0
aF0.0
aF0.0
aF0.0
aF0.0
aF0.0
aF0.0
aF0.0
aF0.01325771936960867
aF-0.1461841156171971
aF0.5013258665504222
aF1.1793318746004045
aF-0.7865538919924908
aF0.0
aF0.7303410515468349
aF0.2910849369897922
aF0.0
aF0.0
aF0.0
aF0.0
aF0.0
aF0.0
aF0.0
aF0.0
aF0.0
aF0.0
aF0.0
aF0.0
aF0.0
aF0.0
aF0.0
aF0.0
aF0.03
aF-0.03
aI0
tp176
a((lp177
F0.0
aF0.0
aF0.0
aF0.0
aF0.0
aF0.0
aF0.0
aF0.0
aF0.0
aF0.0
aF0.0
aF0.0
aF0.0
aF0.0
aF0.0
aF0.29165533591040205
aF-0.9027368057630076
aF-0.22680013548101155
aF1.92677041852279
aF0.46066923103641055
aF0.0
aF-0.8737956187460372
aF-0.11017769680582998
aF0.0
aF0.0
aF0.0
aF0.0
aF0.0
aF0.0
aF0.0
aF0.0
aF0.0
aF0.0
aF0.0
aF0.0
aF0.01325771936960867
aF-0.1461841156171971
aF0.5013258665504222
aF1.1793318746004045
aF-0.7865538919924908
aF0.0
aF0.7303410515468349
aF0.2910849369897922
aF0.0
aF0.0
aF0.0
aF0.0
aF0.0
aF0.0
aF0.0
aF0.0
aF0.0
aF0.0
aF0.0
aF0.0
aF0.0
aF0.0
aF0.0
aF0.0
aF0.03
aF-0.03
aI0
tp178
a((lp179
F0.0
aF0.0
aF0.0
aF0.0
aF0.0
aF0.0
aF0.0
aF0.0
aF0.0
aF0.0
aF0.0
aF0.0
aF0.0
aF0.0
aF0.0
aF0.29222824701657674
aF-0.9027568321369633
aF-0.22750291376733628
aF1.9268235720574225
aF0.46071968429080695
aF0.0
aF-0.8735612593730717
aF-0.10986627801880845
aF0.0
aF0.0
aF0.0
aF0.0
aF0.0
aF0.0
aF0.0
aF0.0
aF0.0
aF0.0
aF0.0
aF0.0
aF0.01325771936960867
aF-0.1461841156171971
aF0.5013258665504222
aF1.1793318746004045
aF-0.7865538919924908
aF0.0
aF0.7303410515468349
aF0.2910849369897922
aF0.0
aF0.0
aF0.0
aF0.0
aF0.0
aF0.0
aF0.0
aF0.0
aF0.0
aF0.0
aF0.0
aF0.0
aF0.0
aF0.0
aF0.0
aF0.0
aF0.03
aF-0.03
aI0
tp180
a((lp181
F0.0
aF0.0
aF0.0
aF0.0
aF0.0
aF0.0
aF0.0
aF0.0
aF0.0
aF0.0
aF0.0
aF0.0
aF0.0
aF0.0
aF0.0
aF0.2894198786178786
aF-0.9030306770703519
aF-0.22393106747880082
aF1.926595388689505
aF0.4609502766648141
aF0.0
aF-0.8742709352357217
aF-0.11201172204719231
aF0.0
aF0.0
aF0.0
aF0.0
aF0.0
aF0.0
aF0.0
aF0.0
aF0.0
aF0.0
aF0.0
aF0.0
aF0.01325771936960867
aF-0.1461841156171971
aF0.5013258665504222
aF1.1793318746004045
aF-0.7865538919924908
aF0.0
aF0.7303410515468349
aF0.2910849369897922
aF0.0
aF0.0
aF0.0
aF0.0
aF0.0
aF0.0
aF0.0
aF0.0
aF0.0
aF0.0
aF0.0
aF0.0
aF0.0
aF0.0
aF0.0
aF0.0
aF0.03
aF-0.03
aI0
tp182
a((lp183
F0.0
aF0.0
aF0.0
aF0.0
aF0.0
aF0.0
aF0.0
aF0.0
aF0.0
aF0.0
aF0.0
aF0.0
aF0.0
aF0.0
aF0.0
aF0.29501243606196964
aF-0.9024029827998313
aF-0.23109972526605005
aF1.9269895078464456
aF0.4603804217192
aF0.0
aF-0.872866036407916
aF-0.10761063443529086
aF0.0
aF0.0
aF0.0
aF0.0
aF0.0
aF0.0
aF0.0
aF0.0
aF0.0
aF0.0
aF0.0
aF0.0
aF0.01325771936960867
aF-0.1461841156171971
aF0.5013258665504222
aF1.1793318746004045
aF-0.7865538919924908
aF0.0
aF0.7303410515468349
aF0.2910849369897922
aF0.0
aF0.0
aF0.0
aF0.0
aF0.0
aF0.0
aF0.0
aF0.0
aF0.0
aF0.0
aF0.0
aF0.0
aF0.0
aF0.0
aF0.0
aF0.0
aF0.03
aF-0.03
aI0
tp184
a((lp185
F0.0
aF0.0
aF0.0
aF0.0
aF0.0
aF0.0
aF0.0
aF0.0
aF0.0
aF0.0
aF0.0
aF0.0
aF0.0
aF0.0
aF0.0
aF0.2902092192132982
aF-0.9028223739724945
aF-0.22498662756120147
aF1.9265320575771108
aF0.46079003923351664
aF0.0
aF-0.8740622461286686
aF-0.11125610265738316
aF0.0
aF0.0
aF0.0
aF0.0
aF0.0
aF0.0
aF0.0
aF0.0
aF0.0
aF0.0
aF0.0
aF0.0
aF0.01325771936960867
aF-0.1461841156171971
aF0.5013258665504222
aF1.1793318746004045
aF-0.7865538919924908
aF0.0
aF0.7303410515468349
aF0.2910849369897922
aF0.0
aF0.0
aF0.0
aF0.0
aF0.0
aF0.0
aF0.0
aF0.0
aF0.0
aF0.0
aF0.0
aF0.0
aF0.0
aF0.0
aF0.0
aF0.0
aF0.03
aF-0.03
aI0
tp186
a((lp187
F0.0
aF0.0
aF0.0
aF0.0
aF0.0
aF0.0
aF0.0
aF0.0
aF0.0
aF0.0
aF0.0
aF0.0
aF0.0
aF0.0
aF0.0
aF0.2900620579020544
aF-0.9028806797158515
aF-0.2247663842792558
aF1.926509330264402
aF0.46089486721982603
aF0.0
aF-0.8740421286830165
aF-0.1114859367290878
aF0.0
aF0.0
aF0.0
aF0.0
aF0.0
aF0.0
aF0.0
aF0.0
aF0.0
aF0.0
aF0.0
aF0.0
aF0.01325771936960867
aF-0.1461841156171971
aF0.5013258665504222
aF1.1793318746004045
aF-0.7865538919924908
aF0.0
aF0.7303410515468349
aF0.2910849369897922
aF0.0
aF0.0
aF0.0
aF0.0
aF0.0
aF0.0
aF0.0
aF0.0
aF0.0
aF0.0
aF0.0
aF0.0
aF0.0
aF0.0
aF0.0
aF0.0
aF0.03
aF-0.03
aI0
tp188
a((lp189
F0.0
aF0.0
aF0.0
aF0.0
aF0.0
aF0.0
aF0.0
aF0.0
aF0.0
aF0.0
aF0.0
aF0.0
aF0.0
aF0.0
aF0.0
aF0.29483516447783353
aF-0.9023258291741134
aF-0.23088913924455992
aF1.9268309709435916
aF0.46039586092037266
aF0.0
aF-0.8728373934217483
aF-0.10769275380778781
aF0.0
aF0.0
aF0.0
aF0.0
aF0.0
aF0.0
aF0.0
aF0.0
aF0.0
aF0.0
aF0.0
aF0.0
aF0.01325771936960867
aF-0.1461841156171971
aF0.5013258665504222
aF1.1793318746004045
aF-0.7865538919924908
aF0.0
aF0.7303410515468349
aF0.2910849369897922
aF0.0
aF0.0
aF0.0
aF0.0
aF0.0
aF0.0
aF0.0
aF0.0
aF0.0
aF0.0
aF0.0
aF0.0
aF0.0
aF0.0
aF0.0
aF0.0
aF0.03
aF-0.03
aI0
tp190
a((lp191
F0.0
aF0.0
aF0.0
aF0.0
aF0.0
aF0.0
aF0.0
aF0.0
aF0.0
aF0.0
aF0.0
aF0.0
aF0.0
aF0.0
aF0.0
aF0.29234162531624447
aF-0.9024354713914733
aF-0.22775136278126945
aF1.9264088464933733
aF0.46058096598960213
aF0.0
aF-0.8733527460434989
aF-0.10951635710170166
aF0.0
aF0.0
aF0.0
aF0.0
aF0.0
aF0.0
aF0.0
aF0.0
aF0.0
aF0.0
aF0.0
aF0.0
aF0.01325771936960867
aF-0.1461841156171971
aF0.5013258665504222
aF1.1793318746004045
aF-0.7865538919924908
aF0.0
aF0.7303410515468349
aF0.2910849369897922
aF0.0
aF0.0
aF0.0
aF0.0
aF0.0
aF0.0
aF0.0
aF0.0
aF0.0
aF0.0
aF0.0
aF0.0
aF0.0
aF0.0
aF0.0
aF0.0
aF0.03
aF-0.03
aI0
tp192
a((lp193
F0.0
aF0.0
aF0.0
aF0.0
aF0.0
aF0.0
aF0.0
aF0.0
aF0.0
aF0.0
aF0.0
aF0.0
aF0.0
aF0.0
aF0.0
aF0.29139007630963815
aF-0.902491760574974
aF-0.2265706352377191
aF1.9262773078216127
aF0.46061786535362764
aF0.0
aF-0.8735617972402601
aF-0.11019362947956932
aF0.0
aF0.0
aF0.0
aF0.0
aF0.0
aF0.0
aF0.0
aF0.0
aF0.0
aF0.0
aF0.0
aF0.0
aF0.01325771936960867
aF-0.1461841156171971
aF0.5013258665504222
aF1.1793318746004045
aF-0.7865538919924908
aF0.0
aF0.7303410515468349
aF0.2910849369897922
aF0.0
aF0.0
aF0.0
aF0.0
aF0.0
aF0.0
aF0.0
aF0.0
aF0.0
aF0.0
aF0.0
aF0.0
aF0.0
aF0.0
aF0.0
aF0.0
aF0.03
aF-0.03
aI0
tp194
a((lp195
F0.0
aF0.0
aF0.0
aF0.0
aF0.0
aF0.0
aF0.0
aF0.0
aF0.0
aF0.0
aF0.0
aF0.0
aF0.0
aF0.0
aF0.0
aF0.2975903675664655
aF-0.9018765709209124
aF-0.23443721301119558
aF1.9267768586315142
aF0.46014993881109506
aF0.0
aF-0.8719905691428744
aF-0.10549735038478426
aF0.0
aF0.0
aF0.0
aF0.0
aF0.0
aF0.0
aF0.0
aF0.0
aF0.0
aF0.0
aF0.0
aF0.0
aF0.01325771936960867
aF-0.1461841156171971
aF0.5013258665504222
aF1.1793318746004045
aF-0.7865538919924908
aF0.0
aF0.7303410515468349
aF0.2910849369897922
aF0.0
aF0.0
aF0.0
aF0.0
aF0.0
aF0.0
aF0.0
aF0.0
aF0.0
aF0.0
aF0.0
aF0.0
aF0.0
aF0.0
aF0.0
aF0.0
aF0.03
aF-0.03
aI0
tp196
a((lp197
F0.0
aF0.0
aF0.0
aF0.0
aF0.0
aF0.0
aF0.0
aF0.0
aF0.0
aF0.0
aF0.0
aF0.0
aF0.0
aF0.0
aF0.0
aF0.29383004968663623
aF-0.9022290803736996
aF-0.22962967805577417
aF1.926327086224508
aF0.46056221869353264
aF0.0
aF-0.8728006640404644
aF-0.10845632791939354
aF0.0
aF0.0
aF0.0
aF0.0
aF0.0
aF0.0
aF0.0
aF0.0
aF0.0
aF0.0
aF0.0
aF0.0
aF0.01325771936960867
aF-0.1461841156171971
aF0.5013258665504222
aF1.1793318746004045
aF-0.7865538919924908
aF0.0
aF0.7303410515468349
aF0.2910849369897922
aF0.0
aF0.0
aF0.0
aF0.0
aF0.0
aF0.0
aF0.0
aF0.0
aF0.0
aF0.0
aF0.0
aF0.0
aF0.0
aF0.0
aF0.0
aF0.0
aF0.03
aF-0.03
aI0
tp198
a((lp199
F0.0
aF0.0
aF0.0
aF0.0
aF0.0
aF0.0
aF0.0
aF0.0
aF0.0
aF0.0
aF0.0
aF0.0
aF0.0
aF0.0
aF0.0
aF0.2981560191654496
aF-0.9017608661721069
aF-0.2351763755856003
aF1.9267142730990745
aF0.46008884935315153
aF0.0
aF-0.8717691551049468
aF-0.10502244636347319
aF0.0
aF0.0
aF0.0
aF0.0
aF0.0
aF0.0
aF0.0
aF0.0
aF0.0
aF0.0
aF0.0
aF0.0
aF0.01325771936960867
aF-0.1461841156171971
aF0.5013258665504222
aF1.1793318746004045
aF-0.7865538919924908
aF0.0
aF0.7303410515468349
aF0.2910849369897922
aF0.0
aF0.0
aF0.0
aF0.0
aF0.0
aF0.0
aF0.0
aF0.0
aF0.0
aF0.0
aF0.0
aF0.0
aF0.0
aF0.0
aF0.0
aF0.0
aF0.03
aF-0.03
aI0
tp200
a.