(lp0
((lp1
F0.0
aF0.0
aF0.0
aF0.0
aF0.0
aF0.0
aF0.0
aF0.0
aF0.0
aF0.0
aF0.0
aF0.0
aF0.0
aF0.0
aF0.0
aF0.665850705318492
aF-0.5670911459809651
aF-1.6543730521736604
aF2.5508454432168333
aF-0.3979478698457776
aF0.0
aF-1.5618757125997065
aF1.1518170832344694
aF0.0
aF0.0
aF0.0
aF0.0
aF0.0
aF0.0
aF0.0
aF0.0
aF0.0
aF0.0
aF0.0
aF0.0
aF0.0
aF-0.76
aF0.0
aF1.98
aF0.0
aF0.0
aF0.3
aF0.0
aF0.0
aF0.0
aF0.0
aF0.0
aF0.0
aF0.0
aF0.0
aF0.0
aF0.0
aF0.0
aF0.0
aF0.0
aF0.0
aF0.0
aF0.0
aF0.0
aF2.4e-322
aF0.0
aI0
tp2
a((lp3
F0.0
aF0.0
aF0.0
aF0.0
aF0.0
aF0.0
aF0.0
aF0.0
aF0.0
aF0.0
aF0.0
aF0.0
aF0.0
aF0.0
aF0.0
aF0.666837386176364
aF-0.5707431615824721
aF-1.6539912973808235
aF2.5514409121367128
aF-0.39900524488058736
aF0.0
aF-1.5606035209483038
aF1.1487386497715761
aF0.0
aF0.0
aF0.0
aF0.0
aF0.0
aF0.0
aF0.0
aF0.0
aF0.0
aF0.0
aF0.0
aF0.0
aF0.0
aF-0.76
aF0.0
aF1.98
aF0.0
aF0.0
aF0.3
aF0.0
aF0.0
aF0.0
aF0.0
aF0.0
aF0.0
aF0.0
aF0.0
aF0.0
aF0.0
aF0.0
aF0.0
aF0.0
aF0.0
aF0.0
aF0.0
aF0.0
aF2.4e-322
aF0.0
aI0
tp4
a((lp5
F0.0
aF0.0
aF0.0
aF0.0
aF0.0
aF0.0
aF0.0
aF0.0
aF0.0
aF0.0
aF0.0
aF0.0
aF0.0
aF0.0
aF0.0
aF0.6677210909307012
aF-0.5837868081525855
aF-1.6520398451764928
aF2.5510979775182396
aF-0.4041504663200371
aF0.0
aF-1.5558020562607764
aF1.137296983074481
aF0.0
aF0.0
aF0.0
aF0.0
aF0.0
aF0.0
aF0.0
aF0.0
aF0.0
aF0.0
aF0.0
aF0.0
aF0.0
aF-0.76
aF0.0
aF1.98
aF0.0
aF0.0
aF0.3
aF0.0
aF0.0
aF0.0
aF0.0
aF0.0
aF0.0
aF0.0
aF0.0
aF0.0
aF0.0
aF0.0
aF0.0
aF0.0
aF0.0
aF0.0
aF0.0
aF0.0
aF2.4e-322
aF0.0
aI0
tp6
a((lp7
F0.0
aF0.0
aF0.0
aF0.0
aF0.0
aF0.0
aF0.0
aF0.0
aF0.0
aF0.0
aF0.0
aF0.0
aF0.0
aF0.0
aF0.0
aF0.6681885744042304
aF-0.5875960287262914
aF-1.6515482682784681
aF2.551211743311071
aF-0.40555978398604736
aF0.0
aF-1.5544351752694698
aF1.1340074010151662
aF0.0
aF0.0
aF0.0
aF0.0
aF0.0
aF0.0
aF0.0
aF0.0
aF0.0
aF0.0
aF0.0
aF0.0
aF0.0
aF-0.76
aF0.0
aF1.98
aF0.0
aF0.0
aF0.3
aF0.0
aF0.0
aF0.0
aF0.0
aF0.0
aF0.0
aF0.0
aF0.0
aF0.0
aF0.0
aF0.0
aF0.0
aF0.0
aF0.0
aF0.0
aF0.0
aF0.0
aF2.4e-322
aF0.0
aI0
tp8
a.