((lp0
F0.0
aF0.0
aF0.0
aF0.0
aF0.0
aF0.0
aF0.0
aF0.0
aF0.0
aF0.0
aF0.0
aF0.0
aF0.0
aF0.0
aF0.0
aF-0.5343504531274147
aF-0.732874495663191
aF0.06110005712133437
aF2.290271000955171
aF-0.23106859387607365
aF0.0
aF-1.546484253429297
aF-0.041287060716427
aF0.0
aF0.0
aF0.0
aF0.0
aF0.0
aF0.0
aF0.0
aF0.0
aF0.0
aF0.0
aF0.0
aF0.0
aF-0.012839204326663634
aF-0.1102478188269238
aF0.5699501436065937
aF1.1494444162971922
aF-0.8806489716171404
aF0.0
aF0.7671168181591828
aF-0.012164084921415075
aF0.0
aF0.0
aF0.0
aF0.0
aF0.0
aF0.0
aF0.0
aF0.0
aF0.0
aF0.0
aF0.0
aF0.0
aF0.0
aF0.0
aF0.0
aF0.0
aF0.0
aF0.0
aI0
tp1
.