(lp0
((lp1
F0.0
aF0.0
aF0.0
aF0.0
aF0.0
aF0.0
aF0.0
aF0.0
aF0.0
aF0.0
aF0.0
aF0.0
aF0.0
aF0.0
aF0.0
aF1.4301094135113603
aF-1.1187143051087087
aF-2.386311440573972
aF2.1073609132507354
aF-1.0832024702386764
aF0.0
aF-0.8235961768083968
aF1.3132378920210435
aF0.0
aF0.0
aF0.0
aF0.0
aF0.0
aF0.0
aF0.0
aF0.0
aF0.0
aF0.0
aF0.0
aF0.0
aF0.1754492961067155
aF-0.21504903412717086
aF0.24057641901393367
aF1.191616620329574
aF-0.41203908969889
aF0.0
aF0.6389286438680453
aF0.6410491422982475
aF0.0
aF0.0
aF0.0
aF0.0
aF0.0
aF0.0
aF0.0
aF0.0
aF0.0
aF0.0
aF0.0
aF0.0
aF0.0
aF0.0
aF0.0
aF0.0
aF0.03
aF-0.03
aI0
tp2
a((lp3
F0.0
aF0.0
aF0.0
aF0.0
aF0.0
aF0.0
aF0.0
aF0.0
aF0.0
aF0.0
aF0.0
aF0.0
aF0.0
aF0.0
aF0.0
aF1.6987386724871067
aF-1.236507349220325
aF-2.5292170031580787
aF2.071929431709385
aF-1.0900351209491121
aF0.0
aF-0.670036492775061
aF1.2115445733506611
aF0.0
aF0.0
aF0.0
aF0.0
aF0.0
aF0.0
aF0.0
aF0.0
aF0.0
aF0.0
aF0.0
aF0.0
aF0.1754492961067155
aF-0.21504903412717086
aF0.24057641901393367
aF1.191616620329574
aF-0.41203908969889
aF0.0
aF0.6389286438680453
aF0.6410491422982475
aF0.0
aF0.0
aF0.0
aF0.0
aF0.0
aF0.0
aF0.0
aF0.0
aF0.0
aF0.0
aF0.0
aF0.0
aF0.0
aF0.0
aF0.0
aF0.0
aF0.03
aF-0.03
aI0
tp4
a.