(lp0
((lp1
F0.0
aF0.0
aF0.0
aF0.0
aF0.0
aF0.0
aF0.0
aF0.0
aF0.0
aF0.0
aF0.0
aF0.0
aF0.0
aF0.0
aF0.0
aF-0.33909913472765035
aF-1.0304450008615211
aF-1.081866033404942
aF2.132543551967834
aF-0.9123993021769866
aF0.0
aF-1.5619688206125142
aF0.8487143298386689
aF0.0
aF0.0
aF0.0
aF0.0
aF0.0
aF0.0
aF0.0
aF0.0
aF0.0
aF0.0
aF0.0
aF0.0
aF-0.352520118341713
aF0.5710396096266821
aF1.5247928684735472
aF1.106570881463667
aF1.0627861002719643
aF0.0
aF-1.2897911432205462
aF-2.6832816187973925
aF0.0
aF0.0
aF0.0
aF0.0
aF0.0
aF0.0
aF0.0
aF0.0
aF0.0
aF0.0
aF0.0
aF0.0
aF0.0
aF0.0
aF0.0
aF0.0
aF0.03
aF-0.03
aI0
tp2
a((lp3
F0.0
aF0.0
aF0.0
aF0.0
aF0.0
aF0.0
aF0.0
aF0.0
aF0.0
aF0.0
aF0.0
aF0.0
aF0.0
aF0.0
aF0.0
aF-0.5191866253302516
aF-1.193118351966662
aF-0.8257512081083104
aF2.16362992405032
aF-1.0028613027892825
aF0.0
aF-1.419186671384992
aF0.7450300207229773
aF0.0
aF0.0
aF0.0
aF0.0
aF0.0
aF0.0
aF0.0
aF0.0
aF0.0
aF0.0
aF0.0
aF0.0
aF-0.352520118341713
aF0.5710396096266821
aF1.5247928684735472
aF1.106570881463667
aF1.0627861002719643
aF0.0
aF-1.2897911432205462
aF-2.6832816187973925
aF0.0
aF0.0
aF0.0
aF0.0
aF0.0
aF0.0
aF0.0
aF0.0
aF0.0
aF0.0
aF0.0
aF0.0
aF0.0
aF0.0
aF0.0
aF0.0
aF0.03
aF-0.03
aI0
tp4
a.