(lp0
((lp1
F0.0
aF0.0
aF0.0
aF0.0
aF0.0
aF0.0
aF0.0
aF0.0
aF0.0
aF0.0
aF0.0
aF0.0
aF0.0
aF0.0
aF0.0
aF1.3403505918630256
aF0.6068740767566062
aF-1.9196272439423272
aF2.4596895643715952
aF-0.46843336587700435
aF0.0
aF-0.9170407741788198
aF2.466522809917029
aF0.0
aF0.0
aF0.0
aF0.0
aF0.0
aF0.0
aF0.0
aF0.0
aF0.0
aF0.0
aF0.0
aF0.0
aF0.17747143735588355
aF-0.19943752233156287
aF0.24250689674035794
aF1.1530926970565571
aF-0.39333553093800366
aF0.0
aF0.6608525918205914
aF1.1400213195576108
aF0.0
aF0.0
aF0.0
aF0.0
aF0.0
aF0.0
aF0.0
aF0.0
aF0.0
aF0.0
aF0.0
aF0.0
aF0.0
aF0.0
aF0.0
aF0.0
aF0.03
aF-0.03
aI0
tp2
a((lp3
F0.0
aF0.0
aF0.0
aF0.0
aF0.0
aF0.0
aF0.0
aF0.0
aF0.0
aF0.0
aF0.0
aF0.0
aF0.0
aF0.0
aF0.0
aF1.3369489197923667
aF0.6155012261139574
aF-1.9238714019853076
aF2.4603446589899796
aF-0.4701689206055895
aF0.0
aF-0.9211470158219606
aF2.475859365076317
aF0.0
aF0.0
aF0.0
aF0.0
aF0.0
aF0.0
aF0.0
aF0.0
aF0.0
aF0.0
aF0.0
aF0.0
aF0.17747143735588355
aF-0.19943752233156287
aF0.24250689674035794
aF1.1530926970565571
aF-0.39333553093800366
aF0.0
aF0.6608525918205914
aF1.1400213195576108
aF0.0
aF0.0
aF0.0
aF0.0
aF0.0
aF0.0
aF0.0
aF0.0
aF0.0
aF0.0
aF0.0
aF0.0
aF0.0
aF0.0
aF0.0
aF0.0
aF0.03
aF-0.03
aI0
tp4
a((lp5
F0.0
aF0.0
aF0.0
aF0.0
aF0.0
aF0.0
aF0.0
aF0.0
aF0.0
aF0.0
aF0.0
aF0.0
aF0.0
aF0.0
aF0.0
aF1.3233535735019786
aF0.6484898175290913
aF-1.9407613529480547
aF2.462935724300022
aF-0.4764808661413872
aF0.0
aF-0.9370520641792052
aF2.5113837703502333
aF0.0
aF0.0
aF0.0
aF0.0
aF0.0
aF0.0
aF0.0
aF0.0
aF0.0
aF0.0
aF0.0
aF0.0
aF0.17747143735588355
aF-0.19943752233156287
aF0.24250689674035794
aF1.1530926970565571
aF-0.39333553093800366
aF0.0
aF0.6608525918205914
aF1.1400213195576108
aF0.0
aF0.0
aF0.0
aF0.0
aF0.0
aF0.0
aF0.0
aF0.0
aF0.0
aF0.0
aF0.0
aF0.0
aF0.0
aF0.0
aF0.0
aF0.0
aF0.03
aF-0.03
aI0
tp6
a((lp7
F0.0
aF0.0
aF0.0
aF0.0
aF0.0
aF0.0
aF0.0
aF0.0
aF0.0
aF0.0
aF0.0
aF0.0
aF0.0
aF0.0
aF0.0
aF1.2780696004385683
aF0.7436338016032121
aF-1.9963306737192759
aF2.4713795647142947
aF-0.49192218356645956
aF0.0
aF-0.9847860875627682
aF2.6124920960499582
aF0.0
aF0.0
aF0.0
aF0.0
aF0.0
aF0.0
aF0.0
aF0.0
aF0.0
aF0.0
aF0.0
aF0.0
aF0.17747143735588355
aF-0.19943752233156287
aF0.24250689674035794
aF1.1530926970565571
aF-0.39333553093800366
aF0.0
aF0.6608525918205914
aF1.1400213195576108
aF0.0
aF0.0
aF0.0
aF0.0
aF0.0
aF0.0
aF0.0
aF0.0
aF0.0
aF0.0
aF0.0
aF0.0
aF0.0
aF0.0
aF0.0
aF0.0
aF0.03
aF-0.03
aI0
tp8
a((lp9
F0.0
aF0.0
aF0.0
aF0.0
aF0.0
aF0.0
aF0.0
aF0.0
aF0.0
aF0.0
aF0.0
aF0.0
aF0.0
aF0.0
aF0.0
aF1.2667830846845536
aF0.7643780881126985
aF-2.0100619163619355
aF2.4734552855780785
aF-0.49479743640469237
aF0.0
aF-0.9955728389435841
aF2.6343444588698786
aF0.0
aF0.0
aF0.0
aF0.0
aF0.0
aF0.0
aF0.0
aF0.0
aF0.0
aF0.0
aF0.0
aF0.0
aF0.17747143735588355
aF-0.19943752233156287
aF0.24250689674035794
aF1.1530926970565571
aF-0.39333553093800366
aF0.0
aF0.6608525918205914
aF1.1400213195576108
aF0.0
aF0.0
aF0.0
aF0.0
aF0.0
aF0.0
aF0.0
aF0.0
aF0.0
aF0.0
aF0.0
aF0.0
aF0.0
aF0.0
aF0.0
aF0.0
aF0.03
aF-0.03
aI0
tp10
a((lp11
F0.0
aF0.0
aF0.0
aF0.0
aF0.0
aF0.0
aF0.0
aF0.0
aF0.0
aF0.0
aF0.0
aF0.0
aF0.0
aF0.0
aF0.0
aF1.2487694562158138
aF0.7953320398242895
aF-2.0318975777722503
aF2.4767116094384662
aF-0.49882578079951634
aF0.0
aF-1.0119604394418402
aF2.6669132673913776
aF0.0
aF0.0
aF0.0
aF0.0
aF0.0
aF0.0
aF0.0
aF0.0
aF0.0
aF0.0
aF0.0
aF0.0
aF0.17747143735588355
aF-0.19943752233156287
aF0.24250689674035794
aF1.1530926970565571
aF-0.39333553093800366
aF0.0
aF0.6608525918205914
aF1.1400213195576108
aF0.0
aF0.0
aF0.0
aF0.0
aF0.0
aF0.0
aF0.0
aF0.0
aF0.0
aF0.0
aF0.0
aF0.0
aF0.0
aF0.0
aF0.0
aF0.0
aF0.03
aF-0.03
aI0
tp12
a((lp13
F0.0
aF0.0
aF0.0
aF0.0
aF0.0
aF0.0
aF0.0
aF0.0
aF0.0
aF0.0
aF0.0
aF0.0
aF0.0
aF0.0
aF0.0
aF1.2449813037383493
aF0.8015222073451226
aF-2.036471509592087
aF2.477384479682793
aF-0.4995888461387008
aF0.0
aF-1.015279103703269
aF2.6734205621937996
aF0.0
aF0.0
aF0.0
aF0.0
aF0.0
aF0.0
aF0.0
aF0.0
aF0.0
aF0.0
aF0.0
aF0.0
aF0.17747143735588355
aF-0.19943752233156287
aF0.24250689674035794
aF1.1530926970565571
aF-0.39333553093800366
aF0.0
aF0.6608525918205914
aF1.1400213195576108
aF0.0
aF0.0
aF0.0
aF0.0
aF0.0
aF0.0
aF0.0
aF0.0
aF0.0
aF0.0
aF0.0
aF0.0
aF0.0
aF0.0
aF0.0
aF0.0
aF0.03
aF-0.03
aI0
tp14
a((lp15
F0.0
aF0.0
aF0.0
aF0.0
aF0.0
aF0.0
aF0.0
aF0.0
aF0.0
aF0.0
aF0.0
aF0.0
aF0.0
aF0.0
aF0.0
aF1.2195553913561334
aF0.8405280568915082
aF-2.0670796251928216
aF2.4818436605541043
aF-0.5041416598029758
aF0.0
aF-1.0365579803526526
aF2.7144460199036766
aF0.0
aF0.0
aF0.0
aF0.0
aF0.0
aF0.0
aF0.0
aF0.0
aF0.0
aF0.0
aF0.0
aF0.0
aF0.17747143735588355
aF-0.19943752233156287
aF0.24250689674035794
aF1.1530926970565571
aF-0.39333553093800366
aF0.0
aF0.6608525918205914
aF1.1400213195576108
aF0.0
aF0.0
aF0.0
aF0.0
aF0.0
aF0.0
aF0.0
aF0.0
aF0.0
aF0.0
aF0.0
aF0.0
aF0.0
aF0.0
aF0.0
aF0.0
aF0.03
aF-0.03
aI0
tp16
a((lp17
F0.0
aF0.0
aF0.0
aF0.0
aF0.0
aF0.0
aF0.0
aF0.0
aF0.0
aF0.0
aF0.0
aF0.0
aF0.0
aF0.0
aF0.0
aF1.021209366056448
aF1.0420069715130282
aF-2.3036045232552884
aF2.513630672313047
aF-0.5246522609163426
aF0.0
aF-1.1602119664900021
aF2.9327766722227557
aF0.0
aF0.0
aF0.0
aF0.0
aF0.0
aF0.0
aF0.0
aF0.0
aF0.0
aF0.0
aF0.0
aF0.0
aF0.17747143735588355
aF-0.19943752233156287
aF0.24250689674035794
aF1.1530926970565571
aF-0.39333553093800366
aF0.0
aF0.6608525918205914
aF1.1400213195576108
aF0.0
aF0.0
aF0.0
aF0.0
aF0.0
aF0.0
aF0.0
aF0.0
aF0.0
aF0.0
aF0.0
aF0.0
aF0.0
aF0.0
aF0.0
aF0.0
aF0.03
aF-0.03
aI0
tp18
a((lp19
F0.0
aF0.0
aF0.0
aF0.0
aF0.0
aF0.0
aF0.0
aF0.0
aF0.0
aF0.0
aF0.0
aF0.0
aF0.0
aF0.0
aF0.0
aF1.0149709203779849
aF1.0461515158069459
aF-2.3110707967036777
aF2.5144062208371496
aF-0.5252574832801025
aF0.0
aF-1.163195593824625
aF2.937730978113147
aF0.0
aF0.0
aF0.0
aF0.0
aF0.0
aF0.0
aF0.0
aF0.0
aF0.0
aF0.0
aF0.0
aF0.0
aF0.17747143735588355
aF-0.19943752233156287
aF0.24250689674035794
aF1.1530926970565571
aF-0.39333553093800366
aF0.0
aF0.6608525918205914
aF1.1400213195576108
aF0.0
aF0.0
aF0.0
aF0.0
aF0.0
aF0.0
aF0.0
aF0.0
aF0.0
aF0.0
aF0.0
aF0.0
aF0.0
aF0.0
aF0.0
aF0.0
aF0.03
aF-0.03
aI0
tp20
a.