(lp0
((lp1
F0.0
aF0.0
aF0.0
aF0.0
aF0.0
aF0.0
aF0.0
aF0.0
aF0.0
aF0.0
aF0.0
aF0.0
aF0.0
aF0.0
aF0.0
aF-0.11195933353667019
aF0.80428727506528
aF-1.7826094440689644
aF1.4153309386780621
aF-2.1878605200818244
aF0.0
aF1.160182153145278
aF-1.5923418521102564
aF0.0
aF0.0
aF0.0
aF0.0
aF0.0
aF0.0
aF0.0
aF0.0
aF0.0
aF0.0
aF0.0
aF0.0
aF0.5575846958729246
aF-0.18301664957521926
aF-0.3503527801203711
aF1.2201777887801728
aF-2.5444446460404717
aF0.0
aF-0.6355131449294558
aF2.4021657270914827
aF0.0
aF0.0
aF0.0
aF0.0
aF0.0
aF0.0
aF0.0
aF0.0
aF0.0
aF0.0
aF0.0
aF0.0
aF0.0
aF0.385
aF0.0
aF0.0
aF0.03
aF-0.03
aI0
tp2
a((lp3
F0.0
aF0.0
aF0.0
aF0.0
aF0.0
aF0.0
aF0.0
aF0.0
aF0.0
aF0.0
aF0.0
aF0.0
aF0.0
aF0.0
aF0.0
aF-0.11216163345928877
aF0.805070755972397
aF-1.7835291044365424
aF1.4153680032690725
aF-2.187119397455307
aF0.0
aF1.159664027573712
aF-1.591929597083263
aF0.0
aF0.0
aF0.0
aF0.0
aF0.0
aF0.0
aF0.0
aF0.0
aF0.0
aF0.0
aF0.0
aF0.0
aF0.5575846958729246
aF-0.18301664957521926
aF-0.3503527801203711
aF1.2201777887801728
aF-2.5444446460404717
aF0.0
aF-0.6355131449294558
aF2.4021657270914827
aF0.0
aF0.0
aF0.0
aF0.0
aF0.0
aF0.0
aF0.0
aF0.0
aF0.0
aF0.0
aF0.0
aF0.0
aF0.0
aF0.385
aF0.0
aF0.0
aF0.03
aF-0.03
aI0
tp4
a((lp5
F0.0
aF0.0
aF0.0
aF0.0
aF0.0
aF0.0
aF0.0
aF0.0
aF0.0
aF0.0
aF0.0
aF0.0
aF0.0
aF0.0
aF0.0
aF-0.1123807582227664
aF0.8058797331415162
aF-1.7844892979610314
aF1.4153948339287254
aF-2.1863517798164454
aF0.0
aF1.1591237254057156
aF-1.5915063868241326
aF0.0
aF0.0
aF0.0
aF0.0
aF0.0
aF0.0
aF0.0
aF0.0
aF0.0
aF0.0
aF0.0
aF0.0
aF0.5575846958729246
aF-0.18301664957521926
aF-0.3503527801203711
aF1.2201777887801728
aF-2.5444446460404717
aF0.0
aF-0.6355131449294558
aF2.4021657270914827
aF0.0
aF0.0
aF0.0
aF0.0
aF0.0
aF0.0
aF0.0
aF0.0
aF0.0
aF0.0
aF0.0
aF0.0
aF0.0
aF0.385
aF0.0
aF0.0
aF0.03
aF-0.03
aI0
tp6
a((lp7
F0.0
aF0.0
aF0.0
aF0.0
aF0.0
aF0.0
aF0.0
aF0.0
aF0.0
aF0.0
aF0.0
aF0.0
aF0.0
aF0.0
aF0.0
aF-0.11249836877170859
aF0.8063211121348279
aF-1.785010054676094
aF1.415411198410318
aF-2.1859327179748775
aF0.0
aF1.1588299592172975
aF-1.591277138284217
aF0.0
aF0.0
aF0.0
aF0.0
aF0.0
aF0.0
aF0.0
aF0.0
aF0.0
aF0.0
aF0.0
aF0.0
aF0.5575846958729246
aF-0.18301664957521926
aF-0.3503527801203711
aF1.2201777887801728
aF-2.5444446460404717
aF0.0
aF-0.6355131449294558
aF2.4021657270914827
aF0.0
aF0.0
aF0.0
aF0.0
aF0.0
aF0.0
aF0.0
aF0.0
aF0.0
aF0.0
aF0.0
aF0.0
aF0.0
aF0.385
aF0.0
aF0.0
aF0.03
aF-0.03
aI0
tp8
a((lp9
F0.0
aF0.0
aF0.0
aF0.0
aF0.0
aF0.0
aF0.0
aF0.0
aF0.0
aF0.0
aF0.0
aF0.0
aF0.0
aF0.0
aF0.0
aF-0.11256960169262362
aF0.8065883606349876
aF-1.7853283339778843
aF1.4154242530254333
aF-2.185680899587454
aF0.0
aF1.1586513680320252
aF-1.5911331879630388
aF0.0
aF0.0
aF0.0
aF0.0
aF0.0
aF0.0
aF0.0
aF0.0
aF0.0
aF0.0
aF0.0
aF0.0
aF0.5575846958729246
aF-0.18301664957521926
aF-0.3503527801203711
aF1.2201777887801728
aF-2.5444446460404717
aF0.0
aF-0.6355131449294558
aF2.4021657270914827
aF0.0
aF0.0
aF0.0
aF0.0
aF0.0
aF0.0
aF0.0
aF0.0
aF0.0
aF0.0
aF0.0
aF0.0
aF0.0
aF0.385
aF0.0
aF0.0
aF0.03
aF-0.03
aI0
tp10
a((lp11
F0.0
aF0.0
aF0.0
aF0.0
aF0.0
aF0.0
aF0.0
aF0.0
aF0.0
aF0.0
aF0.0
aF0.0
aF0.0
aF0.0
aF0.0
aF-0.11267345287271259
aF0.8069859960120083
aF-1.7857948632437028
aF1.41544257969541
aF-2.185304138146183
aF0.0
aF1.1583886663776608
aF-1.5909263044338542
aF0.0
aF0.0
aF0.0
aF0.0
aF0.0
aF0.0
aF0.0
aF0.0
aF0.0
aF0.0
aF0.0
aF0.0
aF0.5575846958729246
aF-0.18301664957521926
aF-0.3503527801203711
aF1.2201777887801728
aF-2.5444446460404717
aF0.0
aF-0.6355131449294558
aF2.4021657270914827
aF0.0
aF0.0
aF0.0
aF0.0
aF0.0
aF0.0
aF0.0
aF0.0
aF0.0
aF0.0
aF0.0
aF0.0
aF0.0
aF0.385
aF0.0
aF0.0
aF0.03
aF-0.03
aI0
tp12
a((lp13
F0.0
aF0.0
aF0.0
aF0.0
aF0.0
aF0.0
aF0.0
aF0.0
aF0.0
aF0.0
aF0.0
aF0.0
aF0.0
aF0.0
aF0.0
aF-0.11274818521006592
aF0.8072535894401114
aF-1.786114850625339
aF1.4154491315485003
aF-2.1850494178765323
aF0.0
aF1.1582082544098329
aF-1.5907873315122718
aF0.0
aF0.0
aF0.0
aF0.0
aF0.0
aF0.0
aF0.0
aF0.0
aF0.0
aF0.0
aF0.0
aF0.0
aF0.5575846958729246
aF-0.18301664957521926
aF-0.3503527801203711
aF1.2201777887801728
aF-2.5444446460404717
aF0.0
aF-0.6355131449294558
aF2.4021657270914827
aF0.0
aF0.0
aF0.0
aF0.0
aF0.0
aF0.0
aF0.0
aF0.0
aF0.0
aF0.0
aF0.0
aF0.0
aF0.0
aF0.385
aF0.0
aF0.0
aF0.03
aF-0.03
aI0
tp14
a((lp15
F0.0
aF0.0
aF0.0
aF0.0
aF0.0
aF0.0
aF0.0
aF0.0
aF0.0
aF0.0
aF0.0
aF0.0
aF0.0
aF0.0
aF0.0
aF-0.11292030914067004
aF0.8079092926196114
aF-1.786884483042692
aF1.415481006521964
aF-2.184429120606283
aF0.0
aF1.1577766685736712
aF-1.590445333461375
aF0.0
aF0.0
aF0.0
aF0.0
aF0.0
aF0.0
aF0.0
aF0.0
aF0.0
aF0.0
aF0.0
aF0.0
aF0.5575846958729246
aF-0.18301664957521926
aF-0.3503527801203711
aF1.2201777887801728
aF-2.5444446460404717
aF0.0
aF-0.6355131449294558
aF2.4021657270914827
aF0.0
aF0.0
aF0.0
aF0.0
aF0.0
aF0.0
aF0.0
aF0.0
aF0.0
aF0.0
aF0.0
aF0.0
aF0.0
aF0.385
aF0.0
aF0.0
aF0.03
aF-0.03
aI0
tp16
a((lp17
F0.0
aF0.0
aF0.0
aF0.0
aF0.0
aF0.0
aF0.0
aF0.0
aF0.0
aF0.0
aF0.0
aF0.0
aF0.0
aF0.0
aF0.0
aF-0.11295809481617525
aF0.8080470984496178
aF-1.7870478941795411
aF1.41548564354958
aF-2.1842982749325306
aF0.0
aF1.157684991978441
aF-1.590374008337348
aF0.0
aF0.0
aF0.0
aF0.0
aF0.0
aF0.0
aF0.0
aF0.0
aF0.0
aF0.0
aF0.0
aF0.0
aF0.5575846958729246
aF-0.18301664957521926
aF-0.3503527801203711
aF1.2201777887801728
aF-2.5444446460404717
aF0.0
aF-0.6355131449294558
aF2.4021657270914827
aF0.0
aF0.0
aF0.0
aF0.0
aF0.0
aF0.0
aF0.0
aF0.0
aF0.0
aF0.0
aF0.0
aF0.0
aF0.0
aF0.385
aF0.0
aF0.0
aF0.03
aF-0.03
aI0
tp18
a((lp19
F0.0
aF0.0
aF0.0
aF0.0
aF0.0
aF0.0
aF0.0
aF0.0
aF0.0
aF0.0
aF0.0
aF0.0
aF0.0
aF0.0
aF0.0
aF-0.1129827670129391
aF0.8081185478074512
aF-1.7871436274687886
aF1.4154829624143201
aF-2.184230116689548
aF0.0
aF1.1576291799854712
aF-1.5903321765224534
aF0.0
aF0.0
aF0.0
aF0.0
aF0.0
aF0.0
aF0.0
aF0.0
aF0.0
aF0.0
aF0.0
aF0.0
aF0.5575846958729246
aF-0.18301664957521926
aF-0.3503527801203711
aF1.2201777887801728
aF-2.5444446460404717
aF0.0
aF-0.6355131449294558
aF2.4021657270914827
aF0.0
aF0.0
aF0.0
aF0.0
aF0.0
aF0.0
aF0.0
aF0.0
aF0.0
aF0.0
aF0.0
aF0.0
aF0.0
aF0.385
aF0.0
aF0.0
aF0.03
aF-0.03
aI0
tp20
a((lp21
F0.0
aF0.0
aF0.0
aF0.0
aF0.0
aF0.0
aF0.0
aF0.0
aF0.0
aF0.0
aF0.0
aF0.0
aF0.0
aF0.0
aF0.0
aF-0.11301134409973289
aF0.8082183250986533
aF-1.7872620443879697
aF1.4154839222655842
aF-2.184134377761149
aF0.0
aF1.1575627613834554
aF-1.5902826951035283
aF0.0
aF0.0
aF0.0
aF0.0
aF0.0
aF0.0
aF0.0
aF0.0
aF0.0
aF0.0
aF0.0
aF0.0
aF0.5575846958729246
aF-0.18301664957521926
aF-0.3503527801203711
aF1.2201777887801728
aF-2.5444446460404717
aF0.0
aF-0.6355131449294558
aF2.4021657270914827
aF0.0
aF0.0
aF0.0
aF0.0
aF0.0
aF0.0
aF0.0
aF0.0
aF0.0
aF0.0
aF0.0
aF0.0
aF0.0
aF0.385
aF0.0
aF0.0
aF0.03
aF-0.03
aI0
tp22
a((lp23
F0.0
aF0.0
aF0.0
aF0.0
aF0.0
aF0.0
aF0.0
aF0.0
aF0.0
aF0.0
aF0.0
aF0.0
aF0.0
aF0.0
aF0.0
aF-0.11302315964844417
aF0.8082550482460519
aF-1.7873048900934048
aF1.4154821338135883
aF-2.184098692833237
aF0.0
aF1.1575396328483294
aF-1.5902667985663308
aF0.0
aF0.0
aF0.0
aF0.0
aF0.0
aF0.0
aF0.0
aF0.0
aF0.0
aF0.0
aF0.0
aF0.0
aF0.5575846958729246
aF-0.18301664957521926
aF-0.3503527801203711
aF1.2201777887801728
aF-2.5444446460404717
aF0.0
aF-0.6355131449294558
aF2.4021657270914827
aF0.0
aF0.0
aF0.0
aF0.0
aF0.0
aF0.0
aF0.0
aF0.0
aF0.0
aF0.0
aF0.0
aF0.0
aF0.0
aF0.385
aF0.0
aF0.0
aF0.03
aF-0.03
aI0
tp24
a((lp25
F0.0
aF0.0
aF0.0
aF0.0
aF0.0
aF0.0
aF0.0
aF0.0
aF0.0
aF0.0
aF0.0
aF0.0
aF0.0
aF0.0
aF0.0
aF-0.11307368853091485
aF0.8084034455394282
aF-1.7874901431117822
aF1.41547202052028
aF-2.1839528716062215
aF0.0
aF1.1574341343936738
aF-1.5901962500749491
aF0.0
aF0.0
aF0.0
aF0.0
aF0.0
aF0.0
aF0.0
aF0.0
aF0.0
aF0.0
aF0.0
aF0.0
aF0.5575846958729246
aF-0.18301664957521926
aF-0.3503527801203711
aF1.2201777887801728
aF-2.5444446460404717
aF0.0
aF-0.6355131449294558
aF2.4021657270914827
aF0.0
aF0.0
aF0.0
aF0.0
aF0.0
aF0.0
aF0.0
aF0.0
aF0.0
aF0.0
aF0.0
aF0.0
aF0.0
aF0.385
aF0.0
aF0.0
aF0.03
aF-0.03
aI0
tp26
a((lp27
F0.0
aF0.0
aF0.0
aF0.0
aF0.0
aF0.0
aF0.0
aF0.0
aF0.0
aF0.0
aF0.0
aF0.0
aF0.0
aF0.0
aF0.0
aF-0.11316043929006259
aF0.8087771419261482
aF-1.7879242789412293
aF1.4155101536796846
aF-2.1836059833982815
aF0.0
aF1.157190154661365
aF-1.5899880560234616
aF0.0
aF0.0
aF0.0
aF0.0
aF0.0
aF0.0
aF0.0
aF0.0
aF0.0
aF0.0
aF0.0
aF0.0
aF0.5575846958729246
aF-0.18301664957521926
aF-0.3503527801203711
aF1.2201777887801728
aF-2.5444446460404717
aF0.0
aF-0.6355131449294558
aF2.4021657270914827
aF0.0
aF0.0
aF0.0
aF0.0
aF0.0
aF0.0
aF0.0
aF0.0
aF0.0
aF0.0
aF0.0
aF0.0
aF0.0
aF0.385
aF0.0
aF0.0
aF0.03
aF-0.03
aI0
tp28
a((lp29
F0.0
aF0.0
aF0.0
aF0.0
aF0.0
aF0.0
aF0.0
aF0.0
aF0.0
aF0.0
aF0.0
aF0.0
aF0.0
aF0.0
aF0.0
aF-0.11315661875633727
aF0.8087875189199071
aF-1.7879243231562685
aF1.4155178743678263
aF-2.18359711669626
aF0.0
aF1.1571920079767237
aF-1.5899861942277318
aF0.0
aF0.0
aF0.0
aF0.0
aF0.0
aF0.0
aF0.0
aF0.0
aF0.0
aF0.0
aF0.0
aF0.0
aF0.5575846958729246
aF-0.18301664957521926
aF-0.3503527801203711
aF1.2201777887801728
aF-2.5444446460404717
aF0.0
aF-0.6355131449294558
aF2.4021657270914827
aF0.0
aF0.0
aF0.0
aF0.0
aF0.0
aF0.0
aF0.0
aF0.0
aF0.0
aF0.0
aF0.0
aF0.0
aF0.0
aF0.385
aF0.0
aF0.0
aF0.03
aF-0.03
aI0
tp30
a((lp31
F0.0
aF0.0
aF0.0
aF0.0
aF0.0
aF0.0
aF0.0
aF0.0
aF0.0
aF0.0
aF0.0
aF0.0
aF0.0
aF0.0
aF0.0
aF-0.1131825288746014
aF0.8088754265013658
aF-1.788031203664954
aF1.4155187947418226
aF-2.1835132547003497
aF0.0
aF1.157131705697964
aF-1.589940403749328
aF0.0
aF0.0
aF0.0
aF0.0
aF0.0
aF0.0
aF0.0
aF0.0
aF0.0
aF0.0
aF0.0
aF0.0
aF0.5575846958729246
aF-0.18301664957521926
aF-0.3503527801203711
aF1.2201777887801728
aF-2.5444446460404717
aF0.0
aF-0.6355131449294558
aF2.4021657270914827
aF0.0
aF0.0
aF0.0
aF0.0
aF0.0
aF0.0
aF0.0
aF0.0
aF0.0
aF0.0
aF0.0
aF0.0
aF0.0
aF0.385
aF0.0
aF0.0
aF0.03
aF-0.03
aI0
tp32
a((lp33
F0.0
aF0.0
aF0.0
aF0.0
aF0.0
aF0.0
aF0.0
aF0.0
aF0.0
aF0.0
aF0.0
aF0.0
aF0.0
aF0.0
aF0.0
aF-0.11323009928231689
aF0.8090395743888211
aF-1.7882297007853825
aF1.4155216330569287
aF-2.183357108459849
aF0.0
aF1.157019989225523
aF-1.589854779689495
aF0.0
aF0.0
aF0.0
aF0.0
aF0.0
aF0.0
aF0.0
aF0.0
aF0.0
aF0.0
aF0.0
aF0.0
aF0.5575846958729246
aF-0.18301664957521926
aF-0.3503527801203711
aF1.2201777887801728
aF-2.5444446460404717
aF0.0
aF-0.6355131449294558
aF2.4021657270914827
aF0.0
aF0.0
aF0.0
aF0.0
aF0.0
aF0.0
aF0.0
aF0.0
aF0.0
aF0.0
aF0.0
aF0.0
aF0.0
aF0.385
aF0.0
aF0.0
aF0.03
aF-0.03
aI0
tp34
a((lp35
F0.0
aF0.0
aF0.0
aF0.0
aF0.0
aF0.0
aF0.0
aF0.0
aF0.0
aF0.0
aF0.0
aF0.0
aF0.0
aF0.0
aF0.0
aF-0.11324628118773658
aF0.809045436762812
aF-1.7882518622747108
aF1.415501734446235
aF-2.1833463239131357
aF0.0
aF1.1570066759029036
aF-1.5898571890143247
aF0.0
aF0.0
aF0.0
aF0.0
aF0.0
aF0.0
aF0.0
aF0.0
aF0.0
aF0.0
aF0.0
aF0.0
aF0.5575846958729246
aF-0.18301664957521926
aF-0.3503527801203711
aF1.2201777887801728
aF-2.5444446460404717
aF0.0
aF-0.6355131449294558
aF2.4021657270914827
aF0.0
aF0.0
aF0.0
aF0.0
aF0.0
aF0.0
aF0.0
aF0.0
aF0.0
aF0.0
aF0.0
aF0.0
aF0.0
aF0.385
aF0.0
aF0.0
aF0.03
aF-0.03
aI0
tp36
a((lp37
F0.0
aF0.0
aF0.0
aF0.0
aF0.0
aF0.0
aF0.0
aF0.0
aF0.0
aF0.0
aF0.0
aF0.0
aF0.0
aF0.0
aF0.0
aF-0.11324941536867994
aF0.8091318988638595
aF-1.7883324273329162
aF1.4155327501839405
aF-2.183270977187084
aF0.0
aF1.1569625159332941
aF-1.589805910847307
aF0.0
aF0.0
aF0.0
aF0.0
aF0.0
aF0.0
aF0.0
aF0.0
aF0.0
aF0.0
aF0.0
aF0.0
aF0.5575846958729246
aF-0.18301664957521926
aF-0.3503527801203711
aF1.2201777887801728
aF-2.5444446460404717
aF0.0
aF-0.6355131449294558
aF2.4021657270914827
aF0.0
aF0.0
aF0.0
aF0.0
aF0.0
aF0.0
aF0.0
aF0.0
aF0.0
aF0.0
aF0.0
aF0.0
aF0.0
aF0.385
aF0.0
aF0.0
aF0.03
aF-0.03
aI0
tp38
a((lp39
F0.0
aF0.0
aF0.0
aF0.0
aF0.0
aF0.0
aF0.0
aF0.0
aF0.0
aF0.0
aF0.0
aF0.0
aF0.0
aF0.0
aF0.0
aF-0.11326446076651382
aF0.8091666215367437
aF-1.7883800274572592
aF1.4155263387665098
aF-2.1832362339885676
aF0.0
aF1.1569350680495856
aF-1.5897893174207518
aF0.0
aF0.0
aF0.0
aF0.0
aF0.0
aF0.0
aF0.0
aF0.0
aF0.0
aF0.0
aF0.0
aF0.0
aF0.5575846958729246
aF-0.18301664957521926
aF-0.3503527801203711
aF1.2201777887801728
aF-2.5444446460404717
aF0.0
aF-0.6355131449294558
aF2.4021657270914827
aF0.0
aF0.0
aF0.0
aF0.0
aF0.0
aF0.0
aF0.0
aF0.0
aF0.0
aF0.0
aF0.0
aF0.0
aF0.0
aF0.385
aF0.0
aF0.0
aF0.03
aF-0.03
aI0
tp40
a((lp41
F0.0
aF0.0
aF0.0
aF0.0
aF0.0
aF0.0
aF0.0
aF0.0
aF0.0
aF0.0
aF0.0
aF0.0
aF0.0
aF0.0
aF0.0
aF-0.11327607233926536
aF0.8091886158734058
aF-1.788416071321821
aF1.415521776790043
aF-2.1832150385305975
aF0.0
aF1.1569139825849675
aF-1.589774178819922
aF0.0
aF0.0
aF0.0
aF0.0
aF0.0
aF0.0
aF0.0
aF0.0
aF0.0
aF0.0
aF0.0
aF0.0
aF0.5575846958729246
aF-0.18301664957521926
aF-0.3503527801203711
aF1.2201777887801728
aF-2.5444446460404717
aF0.0
aF-0.6355131449294558
aF2.4021657270914827
aF0.0
aF0.0
aF0.0
aF0.0
aF0.0
aF0.0
aF0.0
aF0.0
aF0.0
aF0.0
aF0.0
aF0.0
aF0.0
aF0.385
aF0.0
aF0.0
aF0.03
aF-0.03
aI0
tp42
a((lp43
F0.0
aF0.0
aF0.0
aF0.0
aF0.0
aF0.0
aF0.0
aF0.0
aF0.0
aF0.0
aF0.0
aF0.0
aF0.0
aF0.0
aF0.0
aF-0.11329075433229431
aF0.8092687349941354
aF-1.7884997055971632
aF1.4155327839600924
aF-2.183140020758513
aF0.0
aF1.1568680414507941
aF-1.589735204238645
aF0.0
aF0.0
aF0.0
aF0.0
aF0.0
aF0.0
aF0.0
aF0.0
aF0.0
aF0.0
aF0.0
aF0.0
aF0.5575846958729246
aF-0.18301664957521926
aF-0.3503527801203711
aF1.2201777887801728
aF-2.5444446460404717
aF0.0
aF-0.6355131449294558
aF2.4021657270914827
aF0.0
aF0.0
aF0.0
aF0.0
aF0.0
aF0.0
aF0.0
aF0.0
aF0.0
aF0.0
aF0.0
aF0.0
aF0.0
aF0.385
aF0.0
aF0.0
aF0.03
aF-0.03
aI0
tp44
a((lp45
F0.0
aF0.0
aF0.0
aF0.0
aF0.0
aF0.0
aF0.0
aF0.0
aF0.0
aF0.0
aF0.0
aF0.0
aF0.0
aF0.0
aF0.0
aF-0.11330458656833453
aF0.8093149988993138
aF-1.7885558699049653
aF1.4155327364334915
aF-2.1830955831158554
aF0.0
aF1.156836220999793
aF-1.5897117092459314
aF0.0
aF0.0
aF0.0
aF0.0
aF0.0
aF0.0
aF0.0
aF0.0
aF0.0
aF0.0
aF0.0
aF0.0
aF0.5575846958729246
aF-0.18301664957521926
aF-0.3503527801203711
aF1.2201777887801728
aF-2.5444446460404717
aF0.0
aF-0.6355131449294558
aF2.4021657270914827
aF0.0
aF0.0
aF0.0
aF0.0
aF0.0
aF0.0
aF0.0
aF0.0
aF0.0
aF0.0
aF0.0
aF0.0
aF0.0
aF0.385
aF0.0
aF0.0
aF0.03
aF-0.03
aI0
tp46
a((lp47
F0.0
aF0.0
aF0.0
aF0.0
aF0.0
aF0.0
aF0.0
aF0.0
aF0.0
aF0.0
aF0.0
aF0.0
aF0.0
aF0.0
aF0.0
aF-0.11332816348856838
aF0.8094221221808163
aF-1.7886771587184767
aF1.4155447427905734
aF-2.1829959508184427
aF0.0
aF1.1567684624583088
aF-1.5896539691749387
aF0.0
aF0.0
aF0.0
aF0.0
aF0.0
aF0.0
aF0.0
aF0.0
aF0.0
aF0.0
aF0.0
aF0.0
aF0.5575846958729246
aF-0.18301664957521926
aF-0.3503527801203711
aF1.2201777887801728
aF-2.5444446460404717
aF0.0
aF-0.6355131449294558
aF2.4021657270914827
aF0.0
aF0.0
aF0.0
aF0.0
aF0.0
aF0.0
aF0.0
aF0.0
aF0.0
aF0.0
aF0.0
aF0.0
aF0.0
aF0.385
aF0.0
aF0.0
aF0.03
aF-0.03
aI0
tp48
a((lp49
F0.0
aF0.0
aF0.0
aF0.0
aF0.0
aF0.0
aF0.0
aF0.0
aF0.0
aF0.0
aF0.0
aF0.0
aF0.0
aF0.0
aF0.0
aF-0.11335349617820349
aF0.8094978115917083
aF-1.788771103839923
aF1.415540767422544
aF-2.182922133928184
aF0.0
aF1.1567153999612612
aF-1.5896174333029118
aF0.0
aF0.0
aF0.0
aF0.0
aF0.0
aF0.0
aF0.0
aF0.0
aF0.0
aF0.0
aF0.0
aF0.0
aF0.5575846958729246
aF-0.18301664957521926
aF-0.3503527801203711
aF1.2201777887801728
aF-2.5444446460404717
aF0.0
aF-0.6355131449294558
aF2.4021657270914827
aF0.0
aF0.0
aF0.0
aF0.0
aF0.0
aF0.0
aF0.0
aF0.0
aF0.0
aF0.0
aF0.0
aF0.0
aF0.0
aF0.385
aF0.0
aF0.0
aF0.03
aF-0.03
aI0
tp50
a((lp51
F0.0
aF0.0
aF0.0
aF0.0
aF0.0
aF0.0
aF0.0
aF0.0
aF0.0
aF0.0
aF0.0
aF0.0
aF0.0
aF0.0
aF0.0
aF-0.11336079134516229
aF0.8095245876046027
aF-1.7888027391804013
aF1.4155417985107672
aF-2.1828967126097023
aF0.0
aF1.156697678902415
aF-1.5896036438052934
aF0.0
aF0.0
aF0.0
aF0.0
aF0.0
aF0.0
aF0.0
aF0.0
aF0.0
aF0.0
aF0.0
aF0.0
aF0.5575846958729246
aF-0.18301664957521926
aF-0.3503527801203711
aF1.2201777887801728
aF-2.5444446460404717
aF0.0
aF-0.6355131449294558
aF2.4021657270914827
aF0.0
aF0.0
aF0.0
aF0.0
aF0.0
aF0.0
aF0.0
aF0.0
aF0.0
aF0.0
aF0.0
aF0.0
aF0.0
aF0.385
aF0.0
aF0.0
aF0.03
aF-0.03
aI0
tp52
a((lp53
F0.0
aF0.0
aF0.0
aF0.0
aF0.0
aF0.0
aF0.0
aF0.0
aF0.0
aF0.0
aF0.0
aF0.0
aF0.0
aF0.0
aF0.0
aF-0.11338388908199007
aF0.8096197430833424
aF-1.7889133480596318
aF1.4155494980065386
aF-2.1828074726014846
aF0.0
aF1.1566352714771075
aF-1.5895525255273777
aF0.0
aF0.0
aF0.0
aF0.0
aF0.0
aF0.0
aF0.0
aF0.0
aF0.0
aF0.0
aF0.0
aF0.0
aF0.5575846958729246
aF-0.18301664957521926
aF-0.3503527801203711
aF1.2201777887801728
aF-2.5444446460404717
aF0.0
aF-0.6355131449294558
aF2.4021657270914827
aF0.0
aF0.0
aF0.0
aF0.0
aF0.0
aF0.0
aF0.0
aF0.0
aF0.0
aF0.0
aF0.0
aF0.0
aF0.0
aF0.385
aF0.0
aF0.0
aF0.03
aF-0.03
aI0
tp54
a((lp55
F0.0
aF0.0
aF0.0
aF0.0
aF0.0
aF0.0
aF0.0
aF0.0
aF0.0
aF0.0
aF0.0
aF0.0
aF0.0
aF0.0
aF0.0
aF-0.113395711311928
aF0.8096579687876917
aF-1.7889595617756173
aF1.4155491548740888
aF-2.1827707537984558
aF0.0
aF1.1566096708162754
aF-1.5895336426071092
aF0.0
aF0.0
aF0.0
aF0.0
aF0.0
aF0.0
aF0.0
aF0.0
aF0.0
aF0.0
aF0.0
aF0.0
aF0.5575846958729246
aF-0.18301664957521926
aF-0.3503527801203711
aF1.2201777887801728
aF-2.5444446460404717
aF0.0
aF-0.6355131449294558
aF2.4021657270914827
aF0.0
aF0.0
aF0.0
aF0.0
aF0.0
aF0.0
aF0.0
aF0.0
aF0.0
aF0.0
aF0.0
aF0.0
aF0.0
aF0.385
aF0.0
aF0.0
aF0.03
aF-0.03
aI0
tp56
a((lp57
F0.0
aF0.0
aF0.0
aF0.0
aF0.0
aF0.0
aF0.0
aF0.0
aF0.0
aF0.0
aF0.0
aF0.0
aF0.0
aF0.0
aF0.0
aF-0.11339757804846072
aF0.8096645913065779
aF-1.788967495969716
aF1.4155493572608968
aF-2.1827644682365697
aF0.0
aF1.1566052210483662
aF-1.5895301865619145
aF0.0
aF0.0
aF0.0
aF0.0
aF0.0
aF0.0
aF0.0
aF0.0
aF0.0
aF0.0
aF0.0
aF0.0
aF0.5575846958729246
aF-0.18301664957521926
aF-0.3503527801203711
aF1.2201777887801728
aF-2.5444446460404717
aF0.0
aF-0.6355131449294558
aF2.4021657270914827
aF0.0
aF0.0
aF0.0
aF0.0
aF0.0
aF0.0
aF0.0
aF0.0
aF0.0
aF0.0
aF0.0
aF0.0
aF0.0
aF0.385
aF0.0
aF0.0
aF0.03
aF-0.03
aI0
tp58
a((lp59
F0.0
aF0.0
aF0.0
aF0.0
aF0.0
aF0.0
aF0.0
aF0.0
aF0.0
aF0.0
aF0.0
aF0.0
aF0.0
aF0.0
aF0.0
aF-0.11339798447059857
aF0.809664733348733
aF-1.7889679520178106
aF1.4155488271389567
aF-2.1827641882377846
aF0.0
aF1.1566049737096082
aF-1.5895303434498562
aF0.0
aF0.0
aF0.0
aF0.0
aF0.0
aF0.0
aF0.0
aF0.0
aF0.0
aF0.0
aF0.0
aF0.0
aF0.5575846958729246
aF-0.18301664957521926
aF-0.3503527801203711
aF1.2201777887801728
aF-2.5444446460404717
aF0.0
aF-0.6355131449294558
aF2.4021657270914827
aF0.0
aF0.0
aF0.0
aF0.0
aF0.0
aF0.0
aF0.0
aF0.0
aF0.0
aF0.0
aF0.0
aF0.0
aF0.0
aF0.385
aF0.0
aF0.0
aF0.03
aF-0.03
aI0
tp60
a((lp61
F0.0
aF0.0
aF0.0
aF0.0
aF0.0
aF0.0
aF0.0
aF0.0
aF0.0
aF0.0
aF0.0
aF0.0
aF0.0
aF0.0
aF0.0
aF-0.11340062206738546
aF0.8096743204332797
aF-1.7889793844604993
aF1.415549175482286
aF-2.1827550866018415
aF0.0
aF1.1565985252790847
aF-1.5895253422867646
aF0.0
aF0.0
aF0.0
aF0.0
aF0.0
aF0.0
aF0.0
aF0.0
aF0.0
aF0.0
aF0.0
aF0.0
aF0.5575846958729246
aF-0.18301664957521926
aF-0.3503527801203711
aF1.2201777887801728
aF-2.5444446460404717
aF0.0
aF-0.6355131449294558
aF2.4021657270914827
aF0.0
aF0.0
aF0.0
aF0.0
aF0.0
aF0.0
aF0.0
aF0.0
aF0.0
aF0.0
aF0.0
aF0.0
aF0.0
aF0.385
aF0.0
aF0.0
aF0.03
aF-0.03
aI0
tp62
a((lp63
F0.0
aF0.0
aF0.0
aF0.0
aF0.0
aF0.0
aF0.0
aF0.0
aF0.0
aF0.0
aF0.0
aF0.0
aF0.0
aF0.0
aF0.0
aF-0.11340070632461513
aF0.8096750541881079
aF-1.7889801989846799
aF1.4155494082907354
aF-2.1827544610996856
aF0.0
aF1.1565980757264582
aF-1.5895248235088921
aF0.0
aF0.0
aF0.0
aF0.0
aF0.0
aF0.0
aF0.0
aF0.0
aF0.0
aF0.0
aF0.0
aF0.0
aF0.5575846958729246
aF-0.18301664957521926
aF-0.3503527801203711
aF1.2201777887801728
aF-2.5444446460404717
aF0.0
aF-0.6355131449294558
aF2.4021657270914827
aF0.0
aF0.0
aF0.0
aF0.0
aF0.0
aF0.0
aF0.0
aF0.0
aF0.0
aF0.0
aF0.0
aF0.0
aF0.0
aF0.385
aF0.0
aF0.0
aF0.03
aF-0.03
aI0
tp64
a((lp65
F0.0
aF0.0
aF0.0
aF0.0
aF0.0
aF0.0
aF0.0
aF0.0
aF0.0
aF0.0
aF0.0
aF0.0
aF0.0
aF0.0
aF0.0
aF-0.11340737660098359
aF0.8097048888883074
aF-1.789015018118791
aF1.4155528208735568
aF-2.182726855429872
aF0.0
aF1.1565781760838365
aF-1.5895077167090537
aF0.0
aF0.0
aF0.0
aF0.0
aF0.0
aF0.0
aF0.0
aF0.0
aF0.0
aF0.0
aF0.0
aF0.0
aF0.5575846958729246
aF-0.18301664957521926
aF-0.3503527801203711
aF1.2201777887801728
aF-2.5444446460404717
aF0.0
aF-0.6355131449294558
aF2.4021657270914827
aF0.0
aF0.0
aF0.0
aF0.0
aF0.0
aF0.0
aF0.0
aF0.0
aF0.0
aF0.0
aF0.0
aF0.0
aF0.0
aF0.385
aF0.0
aF0.0
aF0.03
aF-0.03
aI0
tp66
a((lp67
F0.0
aF0.0
aF0.0
aF0.0
aF0.0
aF0.0
aF0.0
aF0.0
aF0.0
aF0.0
aF0.0
aF0.0
aF0.0
aF0.0
aF0.0
aF-0.11342435223692711
aF0.8097379189998951
aF-1.7890653143712776
aF1.4155443330488628
aF-2.1826938717844637
aF0.0
aF1.1565489618991167
aF-1.589489834343027
aF0.0
aF0.0
aF0.0
aF0.0
aF0.0
aF0.0
aF0.0
aF0.0
aF0.0
aF0.0
aF0.0
aF0.0
aF0.5575846958729246
aF-0.18301664957521926
aF-0.3503527801203711
aF1.2201777887801728
aF-2.5444446460404717
aF0.0
aF-0.6355131449294558
aF2.4021657270914827
aF0.0
aF0.0
aF0.0
aF0.0
aF0.0
aF0.0
aF0.0
aF0.0
aF0.0
aF0.0
aF0.0
aF0.0
aF0.0
aF0.385
aF0.0
aF0.0
aF0.03
aF-0.03
aI0
tp68
a((lp69
F0.0
aF0.0
aF0.0
aF0.0
aF0.0
aF0.0
aF0.0
aF0.0
aF0.0
aF0.0
aF0.0
aF0.0
aF0.0
aF0.0
aF0.0
aF-0.11341649988556665
aF0.8097312412177851
aF-1.7890473547355568
aF1.4155509968332716
aF-2.182701014063347
aF0.0
aF1.1565603085752676
aF-1.5894957612449847
aF0.0
aF0.0
aF0.0
aF0.0
aF0.0
aF0.0
aF0.0
aF0.0
aF0.0
aF0.0
aF0.0
aF0.0
aF0.5575846958729246
aF-0.18301664957521926
aF-0.3503527801203711
aF1.2201777887801728
aF-2.5444446460404717
aF0.0
aF-0.6355131449294558
aF2.4021657270914827
aF0.0
aF0.0
aF0.0
aF0.0
aF0.0
aF0.0
aF0.0
aF0.0
aF0.0
aF0.0
aF0.0
aF0.0
aF0.0
aF0.385
aF0.0
aF0.0
aF0.03
aF-0.03
aI0
tp70
a((lp71
F0.0
aF0.0
aF0.0
aF0.0
aF0.0
aF0.0
aF0.0
aF0.0
aF0.0
aF0.0
aF0.0
aF0.0
aF0.0
aF0.0
aF0.0
aF-0.11342809502407897
aF0.8097678226886887
aF-1.7890943908237944
aF1.4155516906757968
aF-2.1826671721499746
aF0.0
aF1.1565340497252787
aF-1.5894739422506199
aF0.0
aF0.0
aF0.0
aF0.0
aF0.0
aF0.0
aF0.0
aF0.0
aF0.0
aF0.0
aF0.0
aF0.0
aF0.5575846958729246
aF-0.18301664957521926
aF-0.3503527801203711
aF1.2201777887801728
aF-2.5444446460404717
aF0.0
aF-0.6355131449294558
aF2.4021657270914827
aF0.0
aF0.0
aF0.0
aF0.0
aF0.0
aF0.0
aF0.0
aF0.0
aF0.0
aF0.0
aF0.0
aF0.0
aF0.0
aF0.385
aF0.0
aF0.0
aF0.03
aF-0.03
aI0
tp72
a((lp73
F0.0
aF0.0
aF0.0
aF0.0
aF0.0
aF0.0
aF0.0
aF0.0
aF0.0
aF0.0
aF0.0
aF0.0
aF0.0
aF0.0
aF0.0
aF-0.11342682845086115
aF0.8097749978289261
aF-1.7890977082469863
aF1.4155549391883184
aF-2.1826600669547314
aF0.0
aF1.1565320302770352
aF-1.5894723405063609
aF0.0
aF0.0
aF0.0
aF0.0
aF0.0
aF0.0
aF0.0
aF0.0
aF0.0
aF0.0
aF0.0
aF0.0
aF0.5575846958729246
aF-0.18301664957521926
aF-0.3503527801203711
aF1.2201777887801728
aF-2.5444446460404717
aF0.0
aF-0.6355131449294558
aF2.4021657270914827
aF0.0
aF0.0
aF0.0
aF0.0
aF0.0
aF0.0
aF0.0
aF0.0
aF0.0
aF0.0
aF0.0
aF0.0
aF0.0
aF0.385
aF0.0
aF0.0
aF0.03
aF-0.03
aI0
tp74
a((lp75
F0.0
aF0.0
aF0.0
aF0.0
aF0.0
aF0.0
aF0.0
aF0.0
aF0.0
aF0.0
aF0.0
aF0.0
aF0.0
aF0.0
aF0.0
aF-0.11342883763141855
aF0.809780023296073
aF-1.7891048795341142
aF1.415554402215
aF-2.1826552022031973
aF0.0
aF1.1565277355680317
aF-1.5894693246667893
aF0.0
aF0.0
aF0.0
aF0.0
aF0.0
aF0.0
aF0.0
aF0.0
aF0.0
aF0.0
aF0.0
aF0.0
aF0.5575846958729246
aF-0.18301664957521926
aF-0.3503527801203711
aF1.2201777887801728
aF-2.5444446460404717
aF0.0
aF-0.6355131449294558
aF2.4021657270914827
aF0.0
aF0.0
aF0.0
aF0.0
aF0.0
aF0.0
aF0.0
aF0.0
aF0.0
aF0.0
aF0.0
aF0.0
aF0.0
aF0.385
aF0.0
aF0.0
aF0.03
aF-0.03
aI0
tp76
a((lp77
F0.0
aF0.0
aF0.0
aF0.0
aF0.0
aF0.0
aF0.0
aF0.0
aF0.0
aF0.0
aF0.0
aF0.0
aF0.0
aF0.0
aF0.0
aF-0.1134287995506554
aF0.8097824595457199
aF-1.7891066021032827
aF1.4155553351141454
aF-2.18265302936184
aF0.0
aF1.1565269801071143
aF-1.5894683218530288
aF0.0
aF0.0
aF0.0
aF0.0
aF0.0
aF0.0
aF0.0
aF0.0
aF0.0
aF0.0
aF0.0
aF0.0
aF0.5575846958729246
aF-0.18301664957521926
aF-0.3503527801203711
aF1.2201777887801728
aF-2.5444446460404717
aF0.0
aF-0.6355131449294558
aF2.4021657270914827
aF0.0
aF0.0
aF0.0
aF0.0
aF0.0
aF0.0
aF0.0
aF0.0
aF0.0
aF0.0
aF0.0
aF0.0
aF0.0
aF0.385
aF0.0
aF0.0
aF0.03
aF-0.03
aI0
tp78
a((lp79
F0.0
aF0.0
aF0.0
aF0.0
aF0.0
aF0.0
aF0.0
aF0.0
aF0.0
aF0.0
aF0.0
aF0.0
aF0.0
aF0.0
aF0.0
aF-0.11343008699631724
aF0.8097834448900217
aF-1.7891087798733458
aF1.4155540514726515
aF-2.1826517880379557
aF0.0
aF1.1565257985832422
aF-1.5894681592518538
aF0.0
aF0.0
aF0.0
aF0.0
aF0.0
aF0.0
aF0.0
aF0.0
aF0.0
aF0.0
aF0.0
aF0.0
aF0.5575846958729246
aF-0.18301664957521926
aF-0.3503527801203711
aF1.2201777887801728
aF-2.5444446460404717
aF0.0
aF-0.6355131449294558
aF2.4021657270914827
aF0.0
aF0.0
aF0.0
aF0.0
aF0.0
aF0.0
aF0.0
aF0.0
aF0.0
aF0.0
aF0.0
aF0.0
aF0.0
aF0.385
aF0.0
aF0.0
aF0.03
aF-0.03
aI0
tp80
a((lp81
F0.0
aF0.0
aF0.0
aF0.0
aF0.0
aF0.0
aF0.0
aF0.0
aF0.0
aF0.0
aF0.0
aF0.0
aF0.0
aF0.0
aF0.0
aF-0.11343256013447482
aF0.8097912360244678
aF-1.7891184835135399
aF1.4155539152908123
aF-2.182644320210463
aF0.0
aF1.1565202910750079
aF-1.5894640827713025
aF0.0
aF0.0
aF0.0
aF0.0
aF0.0
aF0.0
aF0.0
aF0.0
aF0.0
aF0.0
aF0.0
aF0.0
aF0.5575846958729246
aF-0.18301664957521926
aF-0.3503527801203711
aF1.2201777887801728
aF-2.5444446460404717
aF0.0
aF-0.6355131449294558
aF2.4021657270914827
aF0.0
aF0.0
aF0.0
aF0.0
aF0.0
aF0.0
aF0.0
aF0.0
aF0.0
aF0.0
aF0.0
aF0.0
aF0.0
aF0.385
aF0.0
aF0.0
aF0.03
aF-0.03
aI0
tp82
a((lp83
F0.0
aF0.0
aF0.0
aF0.0
aF0.0
aF0.0
aF0.0
aF0.0
aF0.0
aF0.0
aF0.0
aF0.0
aF0.0
aF0.0
aF0.0
aF-0.11345110284924048
aF0.8098650624644539
aF-1.789212485895433
aF1.415563120483736
aF-2.182577878389711
aF0.0
aF1.1564665302320973
aF-1.5894146671696192
aF0.0
aF0.0
aF0.0
aF0.0
aF0.0
aF0.0
aF0.0
aF0.0
aF0.0
aF0.0
aF0.0
aF0.0
aF0.5575846958729246
aF-0.18301664957521926
aF-0.3503527801203711
aF1.2201777887801728
aF-2.5444446460404717
aF0.0
aF-0.6355131449294558
aF2.4021657270914827
aF0.0
aF0.0
aF0.0
aF0.0
aF0.0
aF0.0
aF0.0
aF0.0
aF0.0
aF0.0
aF0.0
aF0.0
aF0.0
aF0.385
aF0.0
aF0.0
aF0.03
aF-0.03
aI0
tp84
a((lp85
F0.0
aF0.0
aF0.0
aF0.0
aF0.0
aF0.0
aF0.0
aF0.0
aF0.0
aF0.0
aF0.0
aF0.0
aF0.0
aF0.0
aF0.0
aF-0.11344471510831364
aF0.8098536288703364
aF-1.7891886543150755
aF1.4155635027345264
aF-2.182587171898812
aF0.0
aF1.1564807580952767
aF-1.5894284387774793
aF0.0
aF0.0
aF0.0
aF0.0
aF0.0
aF0.0
aF0.0
aF0.0
aF0.0
aF0.0
aF0.0
aF0.0
aF0.5575846958729246
aF-0.18301664957521926
aF-0.3503527801203711
aF1.2201777887801728
aF-2.5444446460404717
aF0.0
aF-0.6355131449294558
aF2.4021657270914827
aF0.0
aF0.0
aF0.0
aF0.0
aF0.0
aF0.0
aF0.0
aF0.0
aF0.0
aF0.0
aF0.0
aF0.0
aF0.0
aF0.385
aF0.0
aF0.0
aF0.03
aF-0.03
aI0
tp86
a((lp87
F0.0
aF0.0
aF0.0
aF0.0
aF0.0
aF0.0
aF0.0
aF0.0
aF0.0
aF0.0
aF0.0
aF0.0
aF0.0
aF0.0
aF0.0
aF-0.11347350961757156
aF0.8098993510169074
aF-1.789264583876234
aF1.4155466852139589
aF-2.182541043169091
aF0.0
aF1.1564377260781518
aF-1.589402763737728
aF0.0
aF0.0
aF0.0
aF0.0
aF0.0
aF0.0
aF0.0
aF0.0
aF0.0
aF0.0
aF0.0
aF0.0
aF0.5575846958729246
aF-0.18301664957521926
aF-0.3503527801203711
aF1.2201777887801728
aF-2.5444446460404717
aF0.0
aF-0.6355131449294558
aF2.4021657270914827
aF0.0
aF0.0
aF0.0
aF0.0
aF0.0
aF0.0
aF0.0
aF0.0
aF0.0
aF0.0
aF0.0
aF0.0
aF0.0
aF0.385
aF0.0
aF0.0
aF0.03
aF-0.03
aI0
tp88
a((lp89
F0.0
aF0.0
aF0.0
aF0.0
aF0.0
aF0.0
aF0.0
aF0.0
aF0.0
aF0.0
aF0.0
aF0.0
aF0.0
aF0.0
aF0.0
aF-0.11345954749326408
aF0.8099057219205263
aF-1.7892511241967222
aF1.415564666746297
aF-2.1825374741036763
aF0.0
aF1.1564455359356094
aF-1.5894016410914014
aF0.0
aF0.0
aF0.0
aF0.0
aF0.0
aF0.0
aF0.0
aF0.0
aF0.0
aF0.0
aF0.0
aF0.0
aF0.5575846958729246
aF-0.18301664957521926
aF-0.3503527801203711
aF1.2201777887801728
aF-2.5444446460404717
aF0.0
aF-0.6355131449294558
aF2.4021657270914827
aF0.0
aF0.0
aF0.0
aF0.0
aF0.0
aF0.0
aF0.0
aF0.0
aF0.0
aF0.0
aF0.0
aF0.0
aF0.0
aF0.385
aF0.0
aF0.0
aF0.03
aF-0.03
aI0
tp90
a((lp91
F0.0
aF0.0
aF0.0
aF0.0
aF0.0
aF0.0
aF0.0
aF0.0
aF0.0
aF0.0
aF0.0
aF0.0
aF0.0
aF0.0
aF0.0
aF-0.11346373396125745
aF0.8099074049001377
aF-1.789255939485194
aF1.4155594003372622
aF-2.182534399764882
aF0.0
aF1.156443097759106
aF-1.5894032624965515
aF0.0
aF0.0
aF0.0
aF0.0
aF0.0
aF0.0
aF0.0
aF0.0
aF0.0
aF0.0
aF0.0
aF0.0
aF0.5575846958729246
aF-0.18301664957521926
aF-0.3503527801203711
aF1.2201777887801728
aF-2.5444446460404717
aF0.0
aF-0.6355131449294558
aF2.4021657270914827
aF0.0
aF0.0
aF0.0
aF0.0
aF0.0
aF0.0
aF0.0
aF0.0
aF0.0
aF0.0
aF0.0
aF0.0
aF0.0
aF0.385
aF0.0
aF0.0
aF0.03
aF-0.03
aI0
tp92
a((lp93
F0.0
aF0.0
aF0.0
aF0.0
aF0.0
aF0.0
aF0.0
aF0.0
aF0.0
aF0.0
aF0.0
aF0.0
aF0.0
aF0.0
aF0.0
aF-0.11348367565280658
aF0.8099330937387856
aF-1.7893014064537593
aF1.4155430840225094
aF-2.182505942787448
aF0.0
aF1.1564163611896647
aF-1.5893927304591744
aF0.0
aF0.0
aF0.0
aF0.0
aF0.0
aF0.0
aF0.0
aF0.0
aF0.0
aF0.0
aF0.0
aF0.0
aF0.5575846958729246
aF-0.18301664957521926
aF-0.3503527801203711
aF1.2201777887801728
aF-2.5444446460404717
aF0.0
aF-0.6355131449294558
aF2.4021657270914827
aF0.0
aF0.0
aF0.0
aF0.0
aF0.0
aF0.0
aF0.0
aF0.0
aF0.0
aF0.0
aF0.0
aF0.0
aF0.0
aF0.385
aF0.0
aF0.0
aF0.03
aF-0.03
aI0
tp94
a((lp95
F0.0
aF0.0
aF0.0
aF0.0
aF0.0
aF0.0
aF0.0
aF0.0
aF0.0
aF0.0
aF0.0
aF0.0
aF0.0
aF0.0
aF0.0
aF-0.11348481766315108
aF0.8099714134148555
aF-1.789336719442346
aF1.41555737300558
aF-2.182472823413416
aF0.0
aF1.1563971258567771
aF-1.5893697924712857
aF0.0
aF0.0
aF0.0
aF0.0
aF0.0
aF0.0
aF0.0
aF0.0
aF0.0
aF0.0
aF0.0
aF0.0
aF0.5575846958729246
aF-0.18301664957521926
aF-0.3503527801203711
aF1.2201777887801728
aF-2.5444446460404717
aF0.0
aF-0.6355131449294558
aF2.4021657270914827
aF0.0
aF0.0
aF0.0
aF0.0
aF0.0
aF0.0
aF0.0
aF0.0
aF0.0
aF0.0
aF0.0
aF0.0
aF0.0
aF0.385
aF0.0
aF0.0
aF0.03
aF-0.03
aI0
tp96
a((lp97
F0.0
aF0.0
aF0.0
aF0.0
aF0.0
aF0.0
aF0.0
aF0.0
aF0.0
aF0.0
aF0.0
aF0.0
aF0.0
aF0.0
aF0.0
aF-0.11350953009083417
aF0.8100517054939769
aF-1.789435252320395
aF1.415555659707156
aF-2.1823949946032455
aF0.0
aF1.1563404287950254
aF-1.5893298026536407
aF0.0
aF0.0
aF0.0
aF0.0
aF0.0
aF0.0
aF0.0
aF0.0
aF0.0
aF0.0
aF0.0
aF0.0
aF0.5575846958729246
aF-0.18301664957521926
aF-0.3503527801203711
aF1.2201777887801728
aF-2.5444446460404717
aF0.0
aF-0.6355131449294558
aF2.4021657270914827
aF0.0
aF0.0
aF0.0
aF0.0
aF0.0
aF0.0
aF0.0
aF0.0
aF0.0
aF0.0
aF0.0
aF0.0
aF0.0
aF0.385
aF0.0
aF0.0
aF0.03
aF-0.03
aI0
tp98
a((lp99
F0.0
aF0.0
aF0.0
aF0.0
aF0.0
aF0.0
aF0.0
aF0.0
aF0.0
aF0.0
aF0.0
aF0.0
aF0.0
aF0.0
aF0.0
aF-0.11351225103674314
aF0.8100772615662215
aF-1.7894612692627831
aF1.4155642496458514
aF-2.182373531558493
aF0.0
aF1.156327623167169
aF-1.5893132093985676
aF0.0
aF0.0
aF0.0
aF0.0
aF0.0
aF0.0
aF0.0
aF0.0
aF0.0
aF0.0
aF0.0
aF0.0
aF0.5575846958729246
aF-0.18301664957521926
aF-0.3503527801203711
aF1.2201777887801728
aF-2.5444446460404717
aF0.0
aF-0.6355131449294558
aF2.4021657270914827
aF0.0
aF0.0
aF0.0
aF0.0
aF0.0
aF0.0
aF0.0
aF0.0
aF0.0
aF0.0
aF0.0
aF0.0
aF0.0
aF0.385
aF0.0
aF0.0
aF0.03
aF-0.03
aI0
tp100
a((lp101
F0.0
aF0.0
aF0.0
aF0.0
aF0.0
aF0.0
aF0.0
aF0.0
aF0.0
aF0.0
aF0.0
aF0.0
aF0.0
aF0.0
aF0.0
aF-0.11351131888458306
aF0.8100956789830759
aF-1.789477006047833
aF1.4155727629171193
aF-2.1823576252144368
aF0.0
aF1.1563186060298036
aF-1.5893020239343163
aF0.0
aF0.0
aF0.0
aF0.0
aF0.0
aF0.0
aF0.0
aF0.0
aF0.0
aF0.0
aF0.0
aF0.0
aF0.5575846958729246
aF-0.18301664957521926
aF-0.3503527801203711
aF1.2201777887801728
aF-2.5444446460404717
aF0.0
aF-0.6355131449294558
aF2.4021657270914827
aF0.0
aF0.0
aF0.0
aF0.0
aF0.0
aF0.0
aF0.0
aF0.0
aF0.0
aF0.0
aF0.0
aF0.0
aF0.0
aF0.385
aF0.0
aF0.0
aF0.03
aF-0.03
aI0
tp102
a((lp103
F0.0
aF0.0
aF0.0
aF0.0
aF0.0
aF0.0
aF0.0
aF0.0
aF0.0
aF0.0
aF0.0
aF0.0
aF0.0
aF0.0
aF0.0
aF-0.11355359189478946
aF0.8102235030569406
aF-1.789637370675222
aF1.4155673491507696
aF-2.1822336491675633
aF0.0
aF1.1562270416214184
aF-1.5892376391761374
aF0.0
aF0.0
aF0.0
aF0.0
aF0.0
aF0.0
aF0.0
aF0.0
aF0.0
aF0.0
aF0.0
aF0.0
aF0.5575846958729246
aF-0.18301664957521926
aF-0.3503527801203711
aF1.2201777887801728
aF-2.5444446460404717
aF0.0
aF-0.6355131449294558
aF2.4021657270914827
aF0.0
aF0.0
aF0.0
aF0.0
aF0.0
aF0.0
aF0.0
aF0.0
aF0.0
aF0.0
aF0.0
aF0.0
aF0.0
aF0.385
aF0.0
aF0.0
aF0.03
aF-0.03
aI0
tp104
a((lp105
F0.0
aF0.0
aF0.0
aF0.0
aF0.0
aF0.0
aF0.0
aF0.0
aF0.0
aF0.0
aF0.0
aF0.0
aF0.0
aF0.0
aF0.0
aF-0.11359731284381733
aF0.8103815166291708
aF-1.7898250014570725
aF1.4155742092332866
aF-2.182084433770437
aF0.0
aF1.15612292527565
aF-1.589154877116589
aF0.0
aF0.0
aF0.0
aF0.0
aF0.0
aF0.0
aF0.0
aF0.0
aF0.0
aF0.0
aF0.0
aF0.0
aF0.5575846958729246
aF-0.18301664957521926
aF-0.3503527801203711
aF1.2201777887801728
aF-2.5444446460404717
aF0.0
aF-0.6355131449294558
aF2.4021657270914827
aF0.0
aF0.0
aF0.0
aF0.0
aF0.0
aF0.0
aF0.0
aF0.0
aF0.0
aF0.0
aF0.0
aF0.0
aF0.0
aF0.385
aF0.0
aF0.0
aF0.03
aF-0.03
aI0
tp106
a((lp107
F0.0
aF0.0
aF0.0
aF0.0
aF0.0
aF0.0
aF0.0
aF0.0
aF0.0
aF0.0
aF0.0
aF0.0
aF0.0
aF0.0
aF0.0
aF-0.1135970025184576
aF0.8103844155898977
aF-1.7898267878683736
aF1.4155751856645389
aF-2.1820815528300113
aF0.0
aF1.1561217246208624
aF-1.5891541192196528
aF0.0
aF0.0
aF0.0
aF0.0
aF0.0
aF0.0
aF0.0
aF0.0
aF0.0
aF0.0
aF0.0
aF0.0
aF0.5575846958729246
aF-0.18301664957521926
aF-0.3503527801203711
aF1.2201777887801728
aF-2.5444446460404717
aF0.0
aF-0.6355131449294558
aF2.4021657270914827
aF0.0
aF0.0
aF0.0
aF0.0
aF0.0
aF0.0
aF0.0
aF0.0
aF0.0
aF0.0
aF0.0
aF0.0
aF0.0
aF0.385
aF0.0
aF0.0
aF0.03
aF-0.03
aI0
tp108
a((lp109
F0.0
aF0.0
aF0.0
aF0.0
aF0.0
aF0.0
aF0.0
aF0.0
aF0.0
aF0.0
aF0.0
aF0.0
aF0.0
aF0.0
aF0.0
aF-0.11365135796137497
aF0.8105818745556215
aF-1.7900635690154616
aF1.4155830037667487
aF-2.1818947354149523
aF0.0
aF1.1559878366552896
aF-1.5890493721691465
aF0.0
aF0.0
aF0.0
aF0.0
aF0.0
aF0.0
aF0.0
aF0.0
aF0.0
aF0.0
aF0.0
aF0.0
aF0.5575846958729246
aF-0.18301664957521926
aF-0.3503527801203711
aF1.2201777887801728
aF-2.5444446460404717
aF0.0
aF-0.6355131449294558
aF2.4021657270914827
aF0.0
aF0.0
aF0.0
aF0.0
aF0.0
aF0.0
aF0.0
aF0.0
aF0.0
aF0.0
aF0.0
aF0.0
aF0.0
aF0.385
aF0.0
aF0.0
aF0.03
aF-0.03
aI0
tp110
a((lp111
F0.0
aF0.0
aF0.0
aF0.0
aF0.0
aF0.0
aF0.0
aF0.0
aF0.0
aF0.0
aF0.0
aF0.0
aF0.0
aF0.0
aF0.0
aF-0.11365984004171291
aF0.8105627280708554
aF-1.7900544764718351
aF1.4155629916667727
aF-2.181907484340856
aF0.0
aF1.1559921542279241
aF-1.5890654152684969
aF0.0
aF0.0
aF0.0
aF0.0
aF0.0
aF0.0
aF0.0
aF0.0
aF0.0
aF0.0
aF0.0
aF0.0
aF0.5575846958729246
aF-0.18301664957521926
aF-0.3503527801203711
aF1.2201777887801728
aF-2.5444446460404717
aF0.0
aF-0.6355131449294558
aF2.4021657270914827
aF0.0
aF0.0
aF0.0
aF0.0
aF0.0
aF0.0
aF0.0
aF0.0
aF0.0
aF0.0
aF0.0
aF0.0
aF0.0
aF0.385
aF0.0
aF0.0
aF0.03
aF-0.03
aI0
tp112
a((lp113
F0.0
aF0.0
aF0.0
aF0.0
aF0.0
aF0.0
aF0.0
aF0.0
aF0.0
aF0.0
aF0.0
aF0.0
aF0.0
aF0.0
aF0.0
aF-0.11365697884797694
aF0.8105971842046369
aF-1.7900818721244216
aF1.4155820754997226
aF-2.1818797253475566
aF0.0
aF1.1559785474915352
aF-1.5890428369579068
aF0.0
aF0.0
aF0.0
aF0.0
aF0.0
aF0.0
aF0.0
aF0.0
aF0.0
aF0.0
aF0.0
aF0.0
aF0.5575846958729246
aF-0.18301664957521926
aF-0.3503527801203711
aF1.2201777887801728
aF-2.5444446460404717
aF0.0
aF-0.6355131449294558
aF2.4021657270914827
aF0.0
aF0.0
aF0.0
aF0.0
aF0.0
aF0.0
aF0.0
aF0.0
aF0.0
aF0.0
aF0.0
aF0.0
aF0.0
aF0.385
aF0.0
aF0.0
aF0.03
aF-0.03
aI0
tp114
a((lp115
F0.0
aF0.0
aF0.0
aF0.0
aF0.0
aF0.0
aF0.0
aF0.0
aF0.0
aF0.0
aF0.0
aF0.0
aF0.0
aF0.0
aF0.0
aF-0.11374134772743352
aF0.810888477467445
aF-1.7904377411919725
aF1.4155909854038204
aF-2.1816043129648945
aF0.0
aF1.1557783049790116
aF-1.5888856431075398
aF0.0
aF0.0
aF0.0
aF0.0
aF0.0
aF0.0
aF0.0
aF0.0
aF0.0
aF0.0
aF0.0
aF0.0
aF0.5575846958729246
aF-0.18301664957521926
aF-0.3503527801203711
aF1.2201777887801728
aF-2.5444446460404717
aF0.0
aF-0.6355131449294558
aF2.4021657270914827
aF0.0
aF0.0
aF0.0
aF0.0
aF0.0
aF0.0
aF0.0
aF0.0
aF0.0
aF0.0
aF0.0
aF0.0
aF0.0
aF0.385
aF0.0
aF0.0
aF0.03
aF-0.03
aI0
tp116
a((lp117
F0.0
aF0.0
aF0.0
aF0.0
aF0.0
aF0.0
aF0.0
aF0.0
aF0.0
aF0.0
aF0.0
aF0.0
aF0.0
aF0.0
aF0.0
aF-0.11373895315014039
aF0.8109333025952776
aF-1.7904764745299526
aF1.4156127216352665
aF-2.181566852662777
aF0.0
aF1.1557568959728037
aF-1.588856895914485
aF0.0
aF0.0
aF0.0
aF0.0
aF0.0
aF0.0
aF0.0
aF0.0
aF0.0
aF0.0
aF0.0
aF0.0
aF0.5575846958729246
aF-0.18301664957521926
aF-0.3503527801203711
aF1.2201777887801728
aF-2.5444446460404717
aF0.0
aF-0.6355131449294558
aF2.4021657270914827
aF0.0
aF0.0
aF0.0
aF0.0
aF0.0
aF0.0
aF0.0
aF0.0
aF0.0
aF0.0
aF0.0
aF0.0
aF0.0
aF0.385
aF0.0
aF0.0
aF0.03
aF-0.03
aI0
tp118
a((lp119
F0.0
aF0.0
aF0.0
aF0.0
aF0.0
aF0.0
aF0.0
aF0.0
aF0.0
aF0.0
aF0.0
aF0.0
aF0.0
aF0.0
aF0.0
aF-0.11374383045523298
aF0.8109201541178293
aF-1.7904647404989724
aF1.4155979057238839
aF-2.1815743193530954
aF0.0
aF1.1557633031574963
aF-1.5888731053914844
aF0.0
aF0.0
aF0.0
aF0.0
aF0.0
aF0.0
aF0.0
aF0.0
aF0.0
aF0.0
aF0.0
aF0.0
aF0.5575846958729246
aF-0.18301664957521926
aF-0.3503527801203711
aF1.2201777887801728
aF-2.5444446460404717
aF0.0
aF-0.6355131449294558
aF2.4021657270914827
aF0.0
aF0.0
aF0.0
aF0.0
aF0.0
aF0.0
aF0.0
aF0.0
aF0.0
aF0.0
aF0.0
aF0.0
aF0.0
aF0.385
aF0.0
aF0.0
aF0.03
aF-0.03
aI0
tp120
a((lp121
F0.0
aF0.0
aF0.0
aF0.0
aF0.0
aF0.0
aF0.0
aF0.0
aF0.0
aF0.0
aF0.0
aF0.0
aF0.0
aF0.0
aF0.0
aF-0.11380754649736591
aF0.8111767178601398
aF-1.7907681227974825
aF1.4156194889328317
aF-2.181334644786316
aF0.0
aF1.1555918796185631
aF-1.5887314555904961
aF0.0
aF0.0
aF0.0
aF0.0
aF0.0
aF0.0
aF0.0
aF0.0
aF0.0
aF0.0
aF0.0
aF0.0
aF0.5575846958729246
aF-0.18301664957521926
aF-0.3503527801203711
aF1.2201777887801728
aF-2.5444446460404717
aF0.0
aF-0.6355131449294558
aF2.4021657270914827
aF0.0
aF0.0
aF0.0
aF0.0
aF0.0
aF0.0
aF0.0
aF0.0
aF0.0
aF0.0
aF0.0
aF0.0
aF0.0
aF0.385
aF0.0
aF0.0
aF0.03
aF-0.03
aI0
tp122
a((lp123
F0.0
aF0.0
aF0.0
aF0.0
aF0.0
aF0.0
aF0.0
aF0.0
aF0.0
aF0.0
aF0.0
aF0.0
aF0.0
aF0.0
aF0.0
aF-0.11381348712197882
aF0.8111707619592397
aF-1.7907642489669047
aF1.4156070677897015
aF-2.181336426323399
aF0.0
aF1.1555945864535522
aF-1.5887423921585437
aF0.0
aF0.0
aF0.0
aF0.0
aF0.0
aF0.0
aF0.0
aF0.0
aF0.0
aF0.0
aF0.0
aF0.0
aF0.5575846958729246
aF-0.18301664957521926
aF-0.3503527801203711
aF1.2201777887801728
aF-2.5444446460404717
aF0.0
aF-0.6355131449294558
aF2.4021657270914827
aF0.0
aF0.0
aF0.0
aF0.0
aF0.0
aF0.0
aF0.0
aF0.0
aF0.0
aF0.0
aF0.0
aF0.0
aF0.0
aF0.385
aF0.0
aF0.0
aF0.03
aF-0.03
aI0
tp124
a((lp125
F0.0
aF0.0
aF0.0
aF0.0
aF0.0
aF0.0
aF0.0
aF0.0
aF0.0
aF0.0
aF0.0
aF0.0
aF0.0
aF0.0
aF0.0
aF-0.11388152930814233
aF0.811428060024349
aF-1.7910681399600257
aF1.41562134191218
aF-2.1810935829260027
aF0.0
aF1.1554237243190038
aF-1.5886068053852689
aF0.0
aF0.0
aF0.0
aF0.0
aF0.0
aF0.0
aF0.0
aF0.0
aF0.0
aF0.0
aF0.0
aF0.0
aF0.5575846958729246
aF-0.18301664957521926
aF-0.3503527801203711
aF1.2201777887801728
aF-2.5444446460404717
aF0.0
aF-0.6355131449294558
aF2.4021657270914827
aF0.0
aF0.0
aF0.0
aF0.0
aF0.0
aF0.0
aF0.0
aF0.0
aF0.0
aF0.0
aF0.0
aF0.0
aF0.0
aF0.385
aF0.0
aF0.0
aF0.03
aF-0.03
aI0
tp126
a((lp127
F0.0
aF0.0
aF0.0
aF0.0
aF0.0
aF0.0
aF0.0
aF0.0
aF0.0
aF0.0
aF0.0
aF0.0
aF0.0
aF0.0
aF0.0
aF-0.11393816782797055
aF0.8115941583814462
aF-1.7912750090360756
aF1.4156130894288583
aF-2.180932088303553
aF0.0
aF1.1553079177184815
aF-1.5885262960268618
aF0.0
aF0.0
aF0.0
aF0.0
aF0.0
aF0.0
aF0.0
aF0.0
aF0.0
aF0.0
aF0.0
aF0.0
aF0.5575846958729246
aF-0.18301664957521926
aF-0.3503527801203711
aF1.2201777887801728
aF-2.5444446460404717
aF0.0
aF-0.6355131449294558
aF2.4021657270914827
aF0.0
aF0.0
aF0.0
aF0.0
aF0.0
aF0.0
aF0.0
aF0.0
aF0.0
aF0.0
aF0.0
aF0.0
aF0.0
aF0.385
aF0.0
aF0.0
aF0.03
aF-0.03
aI0
tp128
a((lp129
F0.0
aF0.0
aF0.0
aF0.0
aF0.0
aF0.0
aF0.0
aF0.0
aF0.0
aF0.0
aF0.0
aF0.0
aF0.0
aF0.0
aF0.0
aF-0.11394773842004183
aF0.8116527750617935
aF-1.7913394237177807
aF1.415624998521266
aF-2.1808791864701798
aF0.0
aF1.1552716405942214
aF-1.5884916012910035
aF0.0
aF0.0
aF0.0
aF0.0
aF0.0
aF0.0
aF0.0
aF0.0
aF0.0
aF0.0
aF0.0
aF0.0
aF0.5575846958729246
aF-0.18301664957521926
aF-0.3503527801203711
aF1.2201777887801728
aF-2.5444446460404717
aF0.0
aF-0.6355131449294558
aF2.4021657270914827
aF0.0
aF0.0
aF0.0
aF0.0
aF0.0
aF0.0
aF0.0
aF0.0
aF0.0
aF0.0
aF0.0
aF0.0
aF0.0
aF0.385
aF0.0
aF0.0
aF0.03
aF-0.03
aI0
tp130
a((lp131
F0.0
aF0.0
aF0.0
aF0.0
aF0.0
aF0.0
aF0.0
aF0.0
aF0.0
aF0.0
aF0.0
aF0.0
aF0.0
aF0.0
aF0.0
aF-0.11395187112378734
aF0.8116857405594675
aF-1.791373772361341
aF1.415633098542085
aF-2.1808495532099537
aF0.0
aF1.1552524245647793
aF-1.5884725536813562
aF0.0
aF0.0
aF0.0
aF0.0
aF0.0
aF0.0
aF0.0
aF0.0
aF0.0
aF0.0
aF0.0
aF0.0
aF0.5575846958729246
aF-0.18301664957521926
aF-0.3503527801203711
aF1.2201777887801728
aF-2.5444446460404717
aF0.0
aF-0.6355131449294558
aF2.4021657270914827
aF0.0
aF0.0
aF0.0
aF0.0
aF0.0
aF0.0
aF0.0
aF0.0
aF0.0
aF0.0
aF0.0
aF0.0
aF0.0
aF0.385
aF0.0
aF0.0
aF0.03
aF-0.03
aI0
tp132
a((lp133
F0.0
aF0.0
aF0.0
aF0.0
aF0.0
aF0.0
aF0.0
aF0.0
aF0.0
aF0.0
aF0.0
aF0.0
aF0.0
aF0.0
aF0.0
aF-0.11397066227089961
aF0.8117488428400088
aF-1.7914496121579375
aF1.4156313179153979
aF-2.180787573696717
aF0.0
aF1.1552079913381246
aF-1.5884431341652427
aF0.0
aF0.0
aF0.0
aF0.0
aF0.0
aF0.0
aF0.0
aF0.0
aF0.0
aF0.0
aF0.0
aF0.0
aF0.5575846958729246
aF-0.18301664957521926
aF-0.3503527801203711
aF1.2201777887801728
aF-2.5444446460404717
aF0.0
aF-0.6355131449294558
aF2.4021657270914827
aF0.0
aF0.0
aF0.0
aF0.0
aF0.0
aF0.0
aF0.0
aF0.0
aF0.0
aF0.0
aF0.0
aF0.0
aF0.0
aF0.385
aF0.0
aF0.0
aF0.03
aF-0.03
aI0
tp134
a((lp135
F0.0
aF0.0
aF0.0
aF0.0
aF0.0
aF0.0
aF0.0
aF0.0
aF0.0
aF0.0
aF0.0
aF0.0
aF0.0
aF0.0
aF0.0
aF-0.11410983728889634
aF0.8122181843677633
aF-1.792018612902086
aF1.4156407518152634
aF-2.180341514178452
aF0.0
aF1.1548905142018602
aF-1.5881990877581134
aF0.0
aF0.0
aF0.0
aF0.0
aF0.0
aF0.0
aF0.0
aF0.0
aF0.0
aF0.0
aF0.0
aF0.0
aF0.5575846958729246
aF-0.18301664957521926
aF-0.3503527801203711
aF1.2201777887801728
aF-2.5444446460404717
aF0.0
aF-0.6355131449294558
aF2.4021657270914827
aF0.0
aF0.0
aF0.0
aF0.0
aF0.0
aF0.0
aF0.0
aF0.0
aF0.0
aF0.0
aF0.0
aF0.0
aF0.0
aF0.385
aF0.0
aF0.0
aF0.03
aF-0.03
aI0
tp136
a((lp137
F0.0
aF0.0
aF0.0
aF0.0
aF0.0
aF0.0
aF0.0
aF0.0
aF0.0
aF0.0
aF0.0
aF0.0
aF0.0
aF0.0
aF0.0
aF-0.11419535927951285
aF0.8125529439487033
aF-1.7924117187929605
aF1.4156647033634076
aF-2.1800268350593246
aF0.0
aF1.1546693417231844
aF-1.5880205737274644
aF0.0
aF0.0
aF0.0
aF0.0
aF0.0
aF0.0
aF0.0
aF0.0
aF0.0
aF0.0
aF0.0
aF0.0
aF0.5575846958729246
aF-0.18301664957521926
aF-0.3503527801203711
aF1.2201777887801728
aF-2.5444446460404717
aF0.0
aF-0.6355131449294558
aF2.4021657270914827
aF0.0
aF0.0
aF0.0
aF0.0
aF0.0
aF0.0
aF0.0
aF0.0
aF0.0
aF0.0
aF0.0
aF0.0
aF0.0
aF0.385
aF0.0
aF0.0
aF0.03
aF-0.03
aI0
tp138
a((lp139
F0.0
aF0.0
aF0.0
aF0.0
aF0.0
aF0.0
aF0.0
aF0.0
aF0.0
aF0.0
aF0.0
aF0.0
aF0.0
aF0.0
aF0.0
aF-0.11420088648266555
aF0.8125721171336789
aF-1.7924344765087354
aF1.4156650703700684
aF-2.1800084861511864
aF0.0
aF1.1546566376526277
aF-1.58801104767693
aF0.0
aF0.0
aF0.0
aF0.0
aF0.0
aF0.0
aF0.0
aF0.0
aF0.0
aF0.0
aF0.0
aF0.0
aF0.5575846958729246
aF-0.18301664957521926
aF-0.3503527801203711
aF1.2201777887801728
aF-2.5444446460404717
aF0.0
aF-0.6355131449294558
aF2.4021657270914827
aF0.0
aF0.0
aF0.0
aF0.0
aF0.0
aF0.0
aF0.0
aF0.0
aF0.0
aF0.0
aF0.0
aF0.0
aF0.0
aF0.385
aF0.0
aF0.0
aF0.03
aF-0.03
aI0
tp140
a((lp141
F0.0
aF0.0
aF0.0
aF0.0
aF0.0
aF0.0
aF0.0
aF0.0
aF0.0
aF0.0
aF0.0
aF0.0
aF0.0
aF0.0
aF0.0
aF-0.11423270997590358
aF0.8126621044963922
aF-1.7925495576578885
aF1.415659519401581
aF-2.179921043940882
aF0.0
aF1.1545917237628789
aF-1.5879662342173853
aF0.0
aF0.0
aF0.0
aF0.0
aF0.0
aF0.0
aF0.0
aF0.0
aF0.0
aF0.0
aF0.0
aF0.0
aF0.5575846958729246
aF-0.18301664957521926
aF-0.3503527801203711
aF1.2201777887801728
aF-2.5444446460404717
aF0.0
aF-0.6355131449294558
aF2.4021657270914827
aF0.0
aF0.0
aF0.0
aF0.0
aF0.0
aF0.0
aF0.0
aF0.0
aF0.0
aF0.0
aF0.0
aF0.0
aF0.0
aF0.385
aF0.0
aF0.0
aF0.03
aF-0.03
aI0
tp142
a((lp143
F0.0
aF0.0
aF0.0
aF0.0
aF0.0
aF0.0
aF0.0
aF0.0
aF0.0
aF0.0
aF0.0
aF0.0
aF0.0
aF0.0
aF0.0
aF-0.11424478233596681
aF0.8127196912277628
aF-1.7926120391423457
aF1.4156665186766986
aF-2.179867040391377
aF0.0
aF1.154557083749513
aF-1.5879373176237532
aF0.0
aF0.0
aF0.0
aF0.0
aF0.0
aF0.0
aF0.0
aF0.0
aF0.0
aF0.0
aF0.0
aF0.0
aF0.5575846958729246
aF-0.18301664957521926
aF-0.3503527801203711
aF1.2201777887801728
aF-2.5444446460404717
aF0.0
aF-0.6355131449294558
aF2.4021657270914827
aF0.0
aF0.0
aF0.0
aF0.0
aF0.0
aF0.0
aF0.0
aF0.0
aF0.0
aF0.0
aF0.0
aF0.0
aF0.0
aF0.385
aF0.0
aF0.0
aF0.03
aF-0.03
aI0
tp144
a((lp145
F0.0
aF0.0
aF0.0
aF0.0
aF0.0
aF0.0
aF0.0
aF0.0
aF0.0
aF0.0
aF0.0
aF0.0
aF0.0
aF0.0
aF0.0
aF-0.11429073679924141
aF0.8128838932244218
aF-1.792812216452841
aF1.415675276761841
aF-2.1797132738039604
aF0.0
aF1.1544448275479489
aF-1.587846257891927
aF0.0
aF0.0
aF0.0
aF0.0
aF0.0
aF0.0
aF0.0
aF0.0
aF0.0
aF0.0
aF0.0
aF0.0
aF0.5575846958729246
aF-0.18301664957521926
aF-0.3503527801203711
aF1.2201777887801728
aF-2.5444446460404717
aF0.0
aF-0.6355131449294558
aF2.4021657270914827
aF0.0
aF0.0
aF0.0
aF0.0
aF0.0
aF0.0
aF0.0
aF0.0
aF0.0
aF0.0
aF0.0
aF0.0
aF0.0
aF0.385
aF0.0
aF0.0
aF0.03
aF-0.03
aI0
tp146
a((lp147
F0.0
aF0.0
aF0.0
aF0.0
aF0.0
aF0.0
aF0.0
aF0.0
aF0.0
aF0.0
aF0.0
aF0.0
aF0.0
aF0.0
aF0.0
aF-0.11430649975789037
aF0.8129392525810575
aF-1.792876637427288
aF1.4156756564659188
aF-2.1796594714206394
aF0.0
aF1.154408158842823
aF-1.5878203809238893
aF0.0
aF0.0
aF0.0
aF0.0
aF0.0
aF0.0
aF0.0
aF0.0
aF0.0
aF0.0
aF0.0
aF0.0
aF0.5575846958729246
aF-0.18301664957521926
aF-0.3503527801203711
aF1.2201777887801728
aF-2.5444446460404717
aF0.0
aF-0.6355131449294558
aF2.4021657270914827
aF0.0
aF0.0
aF0.0
aF0.0
aF0.0
aF0.0
aF0.0
aF0.0
aF0.0
aF0.0
aF0.0
aF0.0
aF0.0
aF0.385
aF0.0
aF0.0
aF0.03
aF-0.03
aI0
tp148
a((lp149
F0.0
aF0.0
aF0.0
aF0.0
aF0.0
aF0.0
aF0.0
aF0.0
aF0.0
aF0.0
aF0.0
aF0.0
aF0.0
aF0.0
aF0.0
aF-0.11432160369961382
aF0.8130292466614775
aF-1.7929718580540053
aF1.4156901055984474
aF-2.1795756277639824
aF0.0
aF1.154353878828644
aF-1.5877742507587767
aF0.0
aF0.0
aF0.0
aF0.0
aF0.0
aF0.0
aF0.0
aF0.0
aF0.0
aF0.0
aF0.0
aF0.0
aF0.5575846958729246
aF-0.18301664957521926
aF-0.3503527801203711
aF1.2201777887801728
aF-2.5444446460404717
aF0.0
aF-0.6355131449294558
aF2.4021657270914827
aF0.0
aF0.0
aF0.0
aF0.0
aF0.0
aF0.0
aF0.0
aF0.0
aF0.0
aF0.0
aF0.0
aF0.0
aF0.0
aF0.385
aF0.0
aF0.0
aF0.03
aF-0.03
aI0
tp150
a((lp151
F0.0
aF0.0
aF0.0
aF0.0
aF0.0
aF0.0
aF0.0
aF0.0
aF0.0
aF0.0
aF0.0
aF0.0
aF0.0
aF0.0
aF0.0
aF-0.11434512245300613
aF0.8130678646714964
aF-1.7930321377590284
aF1.4156770089854123
aF-2.1795364852306895
aF0.0
aF1.154321178401337
aF-1.587755349159098
aF0.0
aF0.0
aF0.0
aF0.0
aF0.0
aF0.0
aF0.0
aF0.0
aF0.0
aF0.0
aF0.0
aF0.0
aF0.5575846958729246
aF-0.18301664957521926
aF-0.3503527801203711
aF1.2201777887801728
aF-2.5444446460404717
aF0.0
aF-0.6355131449294558
aF2.4021657270914827
aF0.0
aF0.0
aF0.0
aF0.0
aF0.0
aF0.0
aF0.0
aF0.0
aF0.0
aF0.0
aF0.0
aF0.0
aF0.0
aF0.385
aF0.0
aF0.0
aF0.03
aF-0.03
aI0
tp152
a((lp153
F0.0
aF0.0
aF0.0
aF0.0
aF0.0
aF0.0
aF0.0
aF0.0
aF0.0
aF0.0
aF0.0
aF0.0
aF0.0
aF0.0
aF0.0
aF-0.11434243126695905
aF0.8130642310120203
aF-1.7930252462945429
aF1.415678008988941
aF-2.1795395945989333
aF0.0
aF1.1543246555819373
aF-1.587758685274561
aF0.0
aF0.0
aF0.0
aF0.0
aF0.0
aF0.0
aF0.0
aF0.0
aF0.0
aF0.0
aF0.0
aF0.0
aF0.5575846958729246
aF-0.18301664957521926
aF-0.3503527801203711
aF1.2201777887801728
aF-2.5444446460404717
aF0.0
aF-0.6355131449294558
aF2.4021657270914827
aF0.0
aF0.0
aF0.0
aF0.0
aF0.0
aF0.0
aF0.0
aF0.0
aF0.0
aF0.0
aF0.0
aF0.0
aF0.0
aF0.385
aF0.0
aF0.0
aF0.03
aF-0.03
aI0
tp154
a((lp155
F0.0
aF0.0
aF0.0
aF0.0
aF0.0
aF0.0
aF0.0
aF0.0
aF0.0
aF0.0
aF0.0
aF0.0
aF0.0
aF0.0
aF0.0
aF-0.11434886759691279
aF0.8130956578308761
aF-1.7930596913058867
aF1.415682470448015
aF-2.1795106437093468
aF0.0
aF1.1543058050804733
aF-1.5877418998970183
aF0.0
aF0.0
aF0.0
aF0.0
aF0.0
aF0.0
aF0.0
aF0.0
aF0.0
aF0.0
aF0.0
aF0.0
aF0.5575846958729246
aF-0.18301664957521926
aF-0.3503527801203711
aF1.2201777887801728
aF-2.5444446460404717
aF0.0
aF-0.6355131449294558
aF2.4021657270914827
aF0.0
aF0.0
aF0.0
aF0.0
aF0.0
aF0.0
aF0.0
aF0.0
aF0.0
aF0.0
aF0.0
aF0.0
aF0.0
aF0.385
aF0.0
aF0.0
aF0.03
aF-0.03
aI0
tp156
a((lp157
F0.0
aF0.0
aF0.0
aF0.0
aF0.0
aF0.0
aF0.0
aF0.0
aF0.0
aF0.0
aF0.0
aF0.0
aF0.0
aF0.0
aF0.0
aF-0.11437177202784639
aF0.8131739423452938
aF-1.7931557873622948
aF1.4156853853883047
aF-2.1794369294614047
aF0.0
aF1.154251935514323
aF-1.5876990244644815
aF0.0
aF0.0
aF0.0
aF0.0
aF0.0
aF0.0
aF0.0
aF0.0
aF0.0
aF0.0
aF0.0
aF0.0
aF0.5575846958729246
aF-0.18301664957521926
aF-0.3503527801203711
aF1.2201777887801728
aF-2.5444446460404717
aF0.0
aF-0.6355131449294558
aF2.4021657270914827
aF0.0
aF0.0
aF0.0
aF0.0
aF0.0
aF0.0
aF0.0
aF0.0
aF0.0
aF0.0
aF0.0
aF0.0
aF0.0
aF0.385
aF0.0
aF0.0
aF0.03
aF-0.03
aI0
tp158
a((lp159
F0.0
aF0.0
aF0.0
aF0.0
aF0.0
aF0.0
aF0.0
aF0.0
aF0.0
aF0.0
aF0.0
aF0.0
aF0.0
aF0.0
aF0.0
aF-0.11439706258124738
aF0.8133128528994987
aF-1.7933061167765267
aF1.4157084608760833
aF-2.1793092241796015
aF0.0
aF1.154168326215412
aF-1.5876242796519981
aF0.0
aF0.0
aF0.0
aF0.0
aF0.0
aF0.0
aF0.0
aF0.0
aF0.0
aF0.0
aF0.0
aF0.0
aF0.5575846958729246
aF-0.18301664957521926
aF-0.3503527801203711
aF1.2201777887801728
aF-2.5444446460404717
aF0.0
aF-0.6355131449294558
aF2.4021657270914827
aF0.0
aF0.0
aF0.0
aF0.0
aF0.0
aF0.0
aF0.0
aF0.0
aF0.0
aF0.0
aF0.0
aF0.0
aF0.0
aF0.385
aF0.0
aF0.0
aF0.03
aF-0.03
aI0
tp160
a((lp161
F0.0
aF0.0
aF0.0
aF0.0
aF0.0
aF0.0
aF0.0
aF0.0
aF0.0
aF0.0
aF0.0
aF0.0
aF0.0
aF0.0
aF0.0
aF-0.11441731651928273
aF0.8133772997016576
aF-1.7933860824536363
aF1.4157077096010666
aF-2.1792470734947575
aF0.0
aF1.1541226393019604
aF-1.587591295298788
aF0.0
aF0.0
aF0.0
aF0.0
aF0.0
aF0.0
aF0.0
aF0.0
aF0.0
aF0.0
aF0.0
aF0.0
aF0.5575846958729246
aF-0.18301664957521926
aF-0.3503527801203711
aF1.2201777887801728
aF-2.5444446460404717
aF0.0
aF-0.6355131449294558
aF2.4021657270914827
aF0.0
aF0.0
aF0.0
aF0.0
aF0.0
aF0.0
aF0.0
aF0.0
aF0.0
aF0.0
aF0.0
aF0.0
aF0.0
aF0.385
aF0.0
aF0.0
aF0.03
aF-0.03
aI0
tp162
a((lp163
F0.0
aF0.0
aF0.0
aF0.0
aF0.0
aF0.0
aF0.0
aF0.0
aF0.0
aF0.0
aF0.0
aF0.0
aF0.0
aF0.0
aF0.0
aF-0.11445459192844307
aF0.8134494932365485
aF-1.7934898891292101
aF1.4156871312311021
aF-2.1791725306871266
aF0.0
aF1.154063417175799
aF-1.5875602729955514
aF0.0
aF0.0
aF0.0
aF0.0
aF0.0
aF0.0
aF0.0
aF0.0
aF0.0
aF0.0
aF0.0
aF0.0
aF0.5575846958729246
aF-0.18301664957521926
aF-0.3503527801203711
aF1.2201777887801728
aF-2.5444446460404717
aF0.0
aF-0.6355131449294558
aF2.4021657270914827
aF0.0
aF0.0
aF0.0
aF0.0
aF0.0
aF0.0
aF0.0
aF0.0
aF0.0
aF0.0
aF0.0
aF0.0
aF0.0
aF0.385
aF0.0
aF0.0
aF0.03
aF-0.03
aI0
tp164
a((lp165
F0.0
aF0.0
aF0.0
aF0.0
aF0.0
aF0.0
aF0.0
aF0.0
aF0.0
aF0.0
aF0.0
aF0.0
aF0.0
aF0.0
aF0.0
aF-0.11444414692811868
aF0.8134862829635492
aF-1.7935128088954195
aF1.4157175761867813
aF-2.179145358927221
aF0.0
aF1.1540518923038667
aF-1.5875325822972783
aF0.0
aF0.0
aF0.0
aF0.0
aF0.0
aF0.0
aF0.0
aF0.0
aF0.0
aF0.0
aF0.0
aF0.0
aF0.5575846958729246
aF-0.18301664957521926
aF-0.3503527801203711
aF1.2201777887801728
aF-2.5444446460404717
aF0.0
aF-0.6355131449294558
aF2.4021657270914827
aF0.0
aF0.0
aF0.0
aF0.0
aF0.0
aF0.0
aF0.0
aF0.0
aF0.0
aF0.0
aF0.0
aF0.0
aF0.0
aF0.385
aF0.0
aF0.0
aF0.03
aF-0.03
aI0
tp166
a((lp167
F0.0
aF0.0
aF0.0
aF0.0
aF0.0
aF0.0
aF0.0
aF0.0
aF0.0
aF0.0
aF0.0
aF0.0
aF0.0
aF0.0
aF0.0
aF-0.11447277740640585
aF0.8135878625887948
aF-1.7936347197602607
aF1.415720248820376
aF-2.1790481857785107
aF0.0
aF1.1539821811948874
aF-1.5874805398432934
aF0.0
aF0.0
aF0.0
aF0.0
aF0.0
aF0.0
aF0.0
aF0.0
aF0.0
aF0.0
aF0.0
aF0.0
aF0.5575846958729246
aF-0.18301664957521926
aF-0.3503527801203711
aF1.2201777887801728
aF-2.5444446460404717
aF0.0
aF-0.6355131449294558
aF2.4021657270914827
aF0.0
aF0.0
aF0.0
aF0.0
aF0.0
aF0.0
aF0.0
aF0.0
aF0.0
aF0.0
aF0.0
aF0.0
aF0.0
aF0.385
aF0.0
aF0.0
aF0.03
aF-0.03
aI0
tp168
a((lp169
F0.0
aF0.0
aF0.0
aF0.0
aF0.0
aF0.0
aF0.0
aF0.0
aF0.0
aF0.0
aF0.0
aF0.0
aF0.0
aF0.0
aF0.0
aF-0.11451153105395809
aF0.8136496028389497
aF-1.7937305842984541
aF1.4156945734931625
aF-2.178982910631346
aF0.0
aF1.1539283937339717
aF-1.5874553284239208
aF0.0
aF0.0
aF0.0
aF0.0
aF0.0
aF0.0
aF0.0
aF0.0
aF0.0
aF0.0
aF0.0
aF0.0
aF0.5575846958729246
aF-0.18301664957521926
aF-0.3503527801203711
aF1.2201777887801728
aF-2.5444446460404717
aF0.0
aF-0.6355131449294558
aF2.4021657270914827
aF0.0
aF0.0
aF0.0
aF0.0
aF0.0
aF0.0
aF0.0
aF0.0
aF0.0
aF0.0
aF0.0
aF0.0
aF0.0
aF0.385
aF0.0
aF0.0
aF0.03
aF-0.03
aI0
tp170
a((lp171
F0.0
aF0.0
aF0.0
aF0.0
aF0.0
aF0.0
aF0.0
aF0.0
aF0.0
aF0.0
aF0.0
aF0.0
aF0.0
aF0.0
aF0.0
aF-0.1145105547030284
aF0.8136803967440512
aF-1.7937578068949351
aF1.415709083763131
aF-2.178957086602203
aF0.0
aF1.153913441204121
aF-1.5874354711095608
aF0.0
aF0.0
aF0.0
aF0.0
aF0.0
aF0.0
aF0.0
aF0.0
aF0.0
aF0.0
aF0.0
aF0.0
aF0.5575846958729246
aF-0.18301664957521926
aF-0.3503527801203711
aF1.2201777887801728
aF-2.5444446460404717
aF0.0
aF-0.6355131449294558
aF2.4021657270914827
aF0.0
aF0.0
aF0.0
aF0.0
aF0.0
aF0.0
aF0.0
aF0.0
aF0.0
aF0.0
aF0.0
aF0.0
aF0.0
aF0.385
aF0.0
aF0.0
aF0.03
aF-0.03
aI0
tp172
a((lp173
F0.0
aF0.0
aF0.0
aF0.0
aF0.0
aF0.0
aF0.0
aF0.0
aF0.0
aF0.0
aF0.0
aF0.0
aF0.0
aF0.0
aF0.0
aF-0.1145096897862192
aF0.813681951818721
aF-1.7937574788765889
aF1.415711160868073
aF-2.1789563522308
aF0.0
aF1.1539145071506722
aF-1.5874344907570839
aF0.0
aF0.0
aF0.0
aF0.0
aF0.0
aF0.0
aF0.0
aF0.0
aF0.0
aF0.0
aF0.0
aF0.0
aF0.5575846958729246
aF-0.18301664957521926
aF-0.3503527801203711
aF1.2201777887801728
aF-2.5444446460404717
aF0.0
aF-0.6355131449294558
aF2.4021657270914827
aF0.0
aF0.0
aF0.0
aF0.0
aF0.0
aF0.0
aF0.0
aF0.0
aF0.0
aF0.0
aF0.0
aF0.0
aF0.0
aF0.385
aF0.0
aF0.0
aF0.03
aF-0.03
aI0
tp174
a((lp175
F0.0
aF0.0
aF0.0
aF0.0
aF0.0
aF0.0
aF0.0
aF0.0
aF0.0
aF0.0
aF0.0
aF0.0
aF0.0
aF0.0
aF0.0
aF-0.11452321677163364
aF0.8137220126075784
aF-1.793809368579346
aF1.4157106822062886
aF-2.178918294315073
aF0.0
aF1.1538850917503787
aF-1.587412062972869
aF0.0
aF0.0
aF0.0
aF0.0
aF0.0
aF0.0
aF0.0
aF0.0
aF0.0
aF0.0
aF0.0
aF0.0
aF0.5575846958729246
aF-0.18301664957521926
aF-0.3503527801203711
aF1.2201777887801728
aF-2.5444446460404717
aF0.0
aF-0.6355131449294558
aF2.4021657270914827
aF0.0
aF0.0
aF0.0
aF0.0
aF0.0
aF0.0
aF0.0
aF0.0
aF0.0
aF0.0
aF0.0
aF0.0
aF0.0
aF0.385
aF0.0
aF0.0
aF0.03
aF-0.03
aI0
tp176
a((lp177
F0.0
aF0.0
aF0.0
aF0.0
aF0.0
aF0.0
aF0.0
aF0.0
aF0.0
aF0.0
aF0.0
aF0.0
aF0.0
aF0.0
aF0.0
aF-0.11456940732922173
aF0.8138924660902006
aF-1.7940106781453022
aF1.415718335695218
aF-2.1787560547066036
aF0.0
aF1.1537713831251923
aF-1.587325183367846
aF0.0
aF0.0
aF0.0
aF0.0
aF0.0
aF0.0
aF0.0
aF0.0
aF0.0
aF0.0
aF0.0
aF0.0
aF0.5575846958729246
aF-0.18301664957521926
aF-0.3503527801203711
aF1.2201777887801728
aF-2.5444446460404717
aF0.0
aF-0.6355131449294558
aF2.4021657270914827
aF0.0
aF0.0
aF0.0
aF0.0
aF0.0
aF0.0
aF0.0
aF0.0
aF0.0
aF0.0
aF0.0
aF0.0
aF0.0
aF0.385
aF0.0
aF0.0
aF0.03
aF-0.03
aI0
tp178
a((lp179
F0.0
aF0.0
aF0.0
aF0.0
aF0.0
aF0.0
aF0.0
aF0.0
aF0.0
aF0.0
aF0.0
aF0.0
aF0.0
aF0.0
aF0.0
aF-0.11458750133851793
aF0.8139106778409887
aF-1.7940455394072372
aF1.4157018731889883
aF-2.1787347768710696
aF0.0
aF1.1537519402140204
aF-1.5873200173519866
aF0.0
aF0.0
aF0.0
aF0.0
aF0.0
aF0.0
aF0.0
aF0.0
aF0.0
aF0.0
aF0.0
aF0.0
aF0.5575846958729246
aF-0.18301664957521926
aF-0.3503527801203711
aF1.2201777887801728
aF-2.5444446460404717
aF0.0
aF-0.6355131449294558
aF2.4021657270914827
aF0.0
aF0.0
aF0.0
aF0.0
aF0.0
aF0.0
aF0.0
aF0.0
aF0.0
aF0.0
aF0.0
aF0.0
aF0.0
aF0.385
aF0.0
aF0.0
aF0.03
aF-0.03
aI0
tp180
a((lp181
F0.0
aF0.0
aF0.0
aF0.0
aF0.0
aF0.0
aF0.0
aF0.0
aF0.0
aF0.0
aF0.0
aF0.0
aF0.0
aF0.0
aF0.0
aF-0.11457465900783814
aF0.8139522525623802
aF-1.7940696312847162
aF1.41573649975344
aF-2.1787034884623018
aF0.0
aF1.1537392851151598
aF-1.5872903069280735
aF0.0
aF0.0
aF0.0
aF0.0
aF0.0
aF0.0
aF0.0
aF0.0
aF0.0
aF0.0
aF0.0
aF0.0
aF0.5575846958729246
aF-0.18301664957521926
aF-0.3503527801203711
aF1.2201777887801728
aF-2.5444446460404717
aF0.0
aF-0.6355131449294558
aF2.4021657270914827
aF0.0
aF0.0
aF0.0
aF0.0
aF0.0
aF0.0
aF0.0
aF0.0
aF0.0
aF0.0
aF0.0
aF0.0
aF0.0
aF0.385
aF0.0
aF0.0
aF0.03
aF-0.03
aI0
tp182
a((lp183
F0.0
aF0.0
aF0.0
aF0.0
aF0.0
aF0.0
aF0.0
aF0.0
aF0.0
aF0.0
aF0.0
aF0.0
aF0.0
aF0.0
aF0.0
aF-0.11462670966860192
aF0.8141085797142555
aF-1.7942641826793797
aF1.4157320275545167
aF-2.178552625029513
aF0.0
aF1.1536305110237084
aF-1.5872122999625804
aF0.0
aF0.0
aF0.0
aF0.0
aF0.0
aF0.0
aF0.0
aF0.0
aF0.0
aF0.0
aF0.0
aF0.0
aF0.5575846958729246
aF-0.18301664957521926
aF-0.3503527801203711
aF1.2201777887801728
aF-2.5444446460404717
aF0.0
aF-0.6355131449294558
aF2.4021657270914827
aF0.0
aF0.0
aF0.0
aF0.0
aF0.0
aF0.0
aF0.0
aF0.0
aF0.0
aF0.0
aF0.0
aF0.0
aF0.0
aF0.385
aF0.0
aF0.0
aF0.03
aF-0.03
aI0
tp184
a((lp185
F0.0
aF0.0
aF0.0
aF0.0
aF0.0
aF0.0
aF0.0
aF0.0
aF0.0
aF0.0
aF0.0
aF0.0
aF0.0
aF0.0
aF0.0
aF-0.11464623665293011
aF0.8141703290755925
aF-1.7943421329562523
aF1.4157313805142948
aF-2.178493123115715
aF0.0
aF1.1535852280156176
aF-1.5871797049991674
aF0.0
aF0.0
aF0.0
aF0.0
aF0.0
aF0.0
aF0.0
aF0.0
aF0.0
aF0.0
aF0.0
aF0.0
aF0.5575846958729246
aF-0.18301664957521926
aF-0.3503527801203711
aF1.2201777887801728
aF-2.5444446460404717
aF0.0
aF-0.6355131449294558
aF2.4021657270914827
aF0.0
aF0.0
aF0.0
aF0.0
aF0.0
aF0.0
aF0.0
aF0.0
aF0.0
aF0.0
aF0.0
aF0.0
aF0.0
aF0.385
aF0.0
aF0.0
aF0.03
aF-0.03
aI0
tp186
a((lp187
F0.0
aF0.0
aF0.0
aF0.0
aF0.0
aF0.0
aF0.0
aF0.0
aF0.0
aF0.0
aF0.0
aF0.0
aF0.0
aF0.0
aF0.0
aF-0.11466387833941119
aF0.8141880957918982
aF-1.794376290752966
aF1.4157157280983514
aF-2.1784726095562634
aF0.0
aF1.1535664472990597
aF-1.5871741683236762
aF0.0
aF0.0
aF0.0
aF0.0
aF0.0
aF0.0
aF0.0
aF0.0
aF0.0
aF0.0
aF0.0
aF0.0
aF0.5575846958729246
aF-0.18301664957521926
aF-0.3503527801203711
aF1.2201777887801728
aF-2.5444446460404717
aF0.0
aF-0.6355131449294558
aF2.4021657270914827
aF0.0
aF0.0
aF0.0
aF0.0
aF0.0
aF0.0
aF0.0
aF0.0
aF0.0
aF0.0
aF0.0
aF0.0
aF0.0
aF0.385
aF0.0
aF0.0
aF0.03
aF-0.03
aI0
tp188
a((lp189
F0.0
aF0.0
aF0.0
aF0.0
aF0.0
aF0.0
aF0.0
aF0.0
aF0.0
aF0.0
aF0.0
aF0.0
aF0.0
aF0.0
aF0.0
aF-0.11466312161079155
aF0.8142305083475111
aF-1.7944138807950087
aF1.415735014258806
aF-2.1784369787365994
aF0.0
aF1.1535462370434375
aF-1.587147331534765
aF0.0
aF0.0
aF0.0
aF0.0
aF0.0
aF0.0
aF0.0
aF0.0
aF0.0
aF0.0
aF0.0
aF0.0
aF0.5575846958729246
aF-0.18301664957521926
aF-0.3503527801203711
aF1.2201777887801728
aF-2.5444446460404717
aF0.0
aF-0.6355131449294558
aF2.4021657270914827
aF0.0
aF0.0
aF0.0
aF0.0
aF0.0
aF0.0
aF0.0
aF0.0
aF0.0
aF0.0
aF0.0
aF0.0
aF0.0
aF0.385
aF0.0
aF0.0
aF0.03
aF-0.03
aI0
tp190
a((lp191
F0.0
aF0.0
aF0.0
aF0.0
aF0.0
aF0.0
aF0.0
aF0.0
aF0.0
aF0.0
aF0.0
aF0.0
aF0.0
aF0.0
aF0.0
aF-0.1146935347506462
aF0.8143177117976901
aF-1.7945244416103914
aF1.4157306212068492
aF-2.178352315858565
aF0.0
aF1.1534838567834957
aF-1.5871039009299561
aF0.0
aF0.0
aF0.0
aF0.0
aF0.0
aF0.0
aF0.0
aF0.0
aF0.0
aF0.0
aF0.0
aF0.0
aF0.5575846958729246
aF-0.18301664957521926
aF-0.3503527801203711
aF1.2201777887801728
aF-2.5444446460404717
aF0.0
aF-0.6355131449294558
aF2.4021657270914827
aF0.0
aF0.0
aF0.0
aF0.0
aF0.0
aF0.0
aF0.0
aF0.0
aF0.0
aF0.0
aF0.0
aF0.0
aF0.0
aF0.385
aF0.0
aF0.0
aF0.03
aF-0.03
aI0
tp192
a((lp193
F0.0
aF0.0
aF0.0
aF0.0
aF0.0
aF0.0
aF0.0
aF0.0
aF0.0
aF0.0
aF0.0
aF0.0
aF0.0
aF0.0
aF0.0
aF-0.11473723556544785
aF0.8144946849586716
aF-1.7947305432774412
aF1.4157463587681094
aF-2.1781867940487287
aF0.0
aF1.153368254131033
aF-1.5870088660540962
aF0.0
aF0.0
aF0.0
aF0.0
aF0.0
aF0.0
aF0.0
aF0.0
aF0.0
aF0.0
aF0.0
aF0.0
aF0.5575846958729246
aF-0.18301664957521926
aF-0.3503527801203711
aF1.2201777887801728
aF-2.5444446460404717
aF0.0
aF-0.6355131449294558
aF2.4021657270914827
aF0.0
aF0.0
aF0.0
aF0.0
aF0.0
aF0.0
aF0.0
aF0.0
aF0.0
aF0.0
aF0.0
aF0.0
aF0.0
aF0.385
aF0.0
aF0.0
aF0.03
aF-0.03
aI0
tp194
a((lp195
F0.0
aF0.0
aF0.0
aF0.0
aF0.0
aF0.0
aF0.0
aF0.0
aF0.0
aF0.0
aF0.0
aF0.0
aF0.0
aF0.0
aF0.0
aF-0.11487103442741194
aF0.8150019685478508
aF-1.7953271031161047
aF1.4157781003727872
aF-2.177707816018417
aF0.0
aF1.1530332223676087
aF-1.5867443306353985
aF0.0
aF0.0
aF0.0
aF0.0
aF0.0
aF0.0
aF0.0
aF0.0
aF0.0
aF0.0
aF0.0
aF0.0
aF0.5575846958729246
aF-0.18301664957521926
aF-0.3503527801203711
aF1.2201777887801728
aF-2.5444446460404717
aF0.0
aF-0.6355131449294558
aF2.4021657270914827
aF0.0
aF0.0
aF0.0
aF0.0
aF0.0
aF0.0
aF0.0
aF0.0
aF0.0
aF0.0
aF0.0
aF0.0
aF0.0
aF0.385
aF0.0
aF0.0
aF0.03
aF-0.03
aI0
tp196
a((lp197
F0.0
aF0.0
aF0.0
aF0.0
aF0.0
aF0.0
aF0.0
aF0.0
aF0.0
aF0.0
aF0.0
aF0.0
aF0.0
aF0.0
aF0.0
aF-0.11500132008786573
aF0.8153884403230431
aF-1.7958119489815005
aF1.415766842802164
aF-2.177335121133428
aF0.0
aF1.1527614695176298
aF-1.586549430958077
aF0.0
aF0.0
aF0.0
aF0.0
aF0.0
aF0.0
aF0.0
aF0.0
aF0.0
aF0.0
aF0.0
aF0.0
aF0.5575846958729246
aF-0.18301664957521926
aF-0.3503527801203711
aF1.2201777887801728
aF-2.5444446460404717
aF0.0
aF-0.6355131449294558
aF2.4021657270914827
aF0.0
aF0.0
aF0.0
aF0.0
aF0.0
aF0.0
aF0.0
aF0.0
aF0.0
aF0.0
aF0.0
aF0.0
aF0.0
aF0.385
aF0.0
aF0.0
aF0.03
aF-0.03
aI0
tp198
a((lp199
F0.0
aF0.0
aF0.0
aF0.0
aF0.0
aF0.0
aF0.0
aF0.0
aF0.0
aF0.0
aF0.0
aF0.0
aF0.0
aF0.0
aF0.0
aF-0.11507289011635481
aF0.8156715552549946
aF-1.7961432612127095
aF1.4157912988522496
aF-2.177070476947326
aF0.0
aF1.1525763269421587
aF-1.5863972811825704
aF0.0
aF0.0
aF0.0
aF0.0
aF0.0
aF0.0
aF0.0
aF0.0
aF0.0
aF0.0
aF0.0
aF0.0
aF0.5575846958729246
aF-0.18301664957521926
aF-0.3503527801203711
aF1.2201777887801728
aF-2.5444446460404717
aF0.0
aF-0.6355131449294558
aF2.4021657270914827
aF0.0
aF0.0
aF0.0
aF0.0
aF0.0
aF0.0
aF0.0
aF0.0
aF0.0
aF0.0
aF0.0
aF0.0
aF0.0
aF0.385
aF0.0
aF0.0
aF0.03
aF-0.03
aI0
tp200
a.