(lp0
((lp1
F0.0
aF0.0
aF0.0
aF0.0
aF0.0
aF0.0
aF0.0
aF0.0
aF0.0
aF0.0
aF0.0
aF0.0
aF0.0
aF0.0
aF0.0
aF-0.1578950596868199
aF-0.9103821979705511
aF-1.1566994914234046
aF1.4223665507711625
aF-0.7480185210469614
aF0.0
aF-1.0748607005657955
aF1.351836534300571
aF0.0
aF0.0
aF0.0
aF0.0
aF0.0
aF0.0
aF0.0
aF0.0
aF0.0
aF0.0
aF0.0
aF0.0
aF0.8085763523474445
aF0.01674347992854104
aF-0.793586744772367
aF1.185183542314574
aF-1.9032199553788984
aF0.0
aF-0.8647251527378775
aF3.0575496929839527
aF0.0
aF0.0
aF0.0
aF0.0
aF0.0
aF0.0
aF0.0
aF0.0
aF0.0
aF0.0
aF0.0
aF0.0
aF0.0
aF0.385
aF0.0
aF0.0
aF0.03
aF-0.03
aI0
tp2
a((lp3
F0.0
aF0.0
aF0.0
aF0.0
aF0.0
aF0.0
aF0.0
aF0.0
aF0.0
aF0.0
aF0.0
aF0.0
aF0.0
aF0.0
aF0.0
aF-0.15795091586472407
aF-0.9104926036418803
aF-1.156540753299623
aF1.42238422026884
aF-0.74810750209972
aF0.0
aF-1.0747976934824768
aF1.3517516266238778
aF0.0
aF0.0
aF0.0
aF0.0
aF0.0
aF0.0
aF0.0
aF0.0
aF0.0
aF0.0
aF0.0
aF0.0
aF0.8085763523474445
aF0.01674347992854104
aF-0.793586744772367
aF1.185183542314574
aF-1.9032199553788984
aF0.0
aF-0.8647251527378775
aF3.0575496929839527
aF0.0
aF0.0
aF0.0
aF0.0
aF0.0
aF0.0
aF0.0
aF0.0
aF0.0
aF0.0
aF0.0
aF0.0
aF0.0
aF0.385
aF0.0
aF0.0
aF0.03
aF-0.03
aI0
tp4
a((lp5
F0.0
aF0.0
aF0.0
aF0.0
aF0.0
aF0.0
aF0.0
aF0.0
aF0.0
aF0.0
aF0.0
aF0.0
aF0.0
aF0.0
aF0.0
aF-0.15822356546661925
aF-0.9110229222938763
aF-1.1557842359382184
aF1.4224570278298339
aF-0.7485503518054011
aF0.0
aF-1.074498570338272
aF1.3513657371051406
aF0.0
aF0.0
aF0.0
aF0.0
aF0.0
aF0.0
aF0.0
aF0.0
aF0.0
aF0.0
aF0.0
aF0.0
aF0.8085763523474445
aF0.01674347992854104
aF-0.793586744772367
aF1.185183542314574
aF-1.9032199553788984
aF0.0
aF-0.8647251527378775
aF3.0575496929839527
aF0.0
aF0.0
aF0.0
aF0.0
aF0.0
aF0.0
aF0.0
aF0.0
aF0.0
aF0.0
aF0.0
aF0.0
aF0.0
aF0.385
aF0.0
aF0.0
aF0.03
aF-0.03
aI0
tp6
a((lp7
F0.0
aF0.0
aF0.0
aF0.0
aF0.0
aF0.0
aF0.0
aF0.0
aF0.0
aF0.0
aF0.0
aF0.0
aF0.0
aF0.0
aF0.0
aF-0.15827175138520566
aF-0.9111248471970637
aF-1.1556442846295876
aF1.422477443925859
aF-0.7486329202670565
aF0.0
aF-1.0744454029262114
aF1.3512904130388284
aF0.0
aF0.0
aF0.0
aF0.0
aF0.0
aF0.0
aF0.0
aF0.0
aF0.0
aF0.0
aF0.0
aF0.0
aF0.8085763523474445
aF0.01674347992854104
aF-0.793586744772367
aF1.185183542314574
aF-1.9032199553788984
aF0.0
aF-0.8647251527378775
aF3.0575496929839527
aF0.0
aF0.0
aF0.0
aF0.0
aF0.0
aF0.0
aF0.0
aF0.0
aF0.0
aF0.0
aF0.0
aF0.0
aF0.0
aF0.385
aF0.0
aF0.0
aF0.03
aF-0.03
aI0
tp8
a((lp9
F0.0
aF0.0
aF0.0
aF0.0
aF0.0
aF0.0
aF0.0
aF0.0
aF0.0
aF0.0
aF0.0
aF0.0
aF0.0
aF0.0
aF0.0
aF-0.1583522763557202
aF-0.9112324771612126
aF-1.1554608132666004
aF1.4224557413744956
aF-0.7487375237029549
aF0.0
aF-1.074362094782079
aF1.3512198517163079
aF0.0
aF0.0
aF0.0
aF0.0
aF0.0
aF0.0
aF0.0
aF0.0
aF0.0
aF0.0
aF0.0
aF0.0
aF0.8085763523474445
aF0.01674347992854104
aF-0.793586744772367
aF1.185183542314574
aF-1.9032199553788984
aF0.0
aF-0.8647251527378775
aF3.0575496929839527
aF0.0
aF0.0
aF0.0
aF0.0
aF0.0
aF0.0
aF0.0
aF0.0
aF0.0
aF0.0
aF0.0
aF0.0
aF0.0
aF0.385
aF0.0
aF0.0
aF0.03
aF-0.03
aI0
tp10
a((lp11
F0.0
aF0.0
aF0.0
aF0.0
aF0.0
aF0.0
aF0.0
aF0.0
aF0.0
aF0.0
aF0.0
aF0.0
aF0.0
aF0.0
aF0.0
aF-0.15840840283812038
aF-0.9113401029438286
aF-1.1553068951290881
aF1.4224698660901591
aF-0.7488280728091229
aF0.0
aF-1.0743016231085718
aF1.351142355518566
aF0.0
aF0.0
aF0.0
aF0.0
aF0.0
aF0.0
aF0.0
aF0.0
aF0.0
aF0.0
aF0.0
aF0.0
aF0.8085763523474445
aF0.01674347992854104
aF-0.793586744772367
aF1.185183542314574
aF-1.9032199553788984
aF0.0
aF-0.8647251527378775
aF3.0575496929839527
aF0.0
aF0.0
aF0.0
aF0.0
aF0.0
aF0.0
aF0.0
aF0.0
aF0.0
aF0.0
aF0.0
aF0.0
aF0.0
aF0.385
aF0.0
aF0.0
aF0.03
aF-0.03
aI0
tp12
a((lp13
F0.0
aF0.0
aF0.0
aF0.0
aF0.0
aF0.0
aF0.0
aF0.0
aF0.0
aF0.0
aF0.0
aF0.0
aF0.0
aF0.0
aF0.0
aF-0.1584794038922344
aF-0.9114846483020992
aF-1.1551030142402898
aF1.422495386640956
aF-0.748944712784984
aF0.0
aF-1.0742215853414079
aF1.3510327572765877
aF0.0
aF0.0
aF0.0
aF0.0
aF0.0
aF0.0
aF0.0
aF0.0
aF0.0
aF0.0
aF0.0
aF0.0
aF0.8085763523474445
aF0.01674347992854104
aF-0.793586744772367
aF1.185183542314574
aF-1.9032199553788984
aF0.0
aF-0.8647251527378775
aF3.0575496929839527
aF0.0
aF0.0
aF0.0
aF0.0
aF0.0
aF0.0
aF0.0
aF0.0
aF0.0
aF0.0
aF0.0
aF0.0
aF0.0
aF0.385
aF0.0
aF0.0
aF0.03
aF-0.03
aI0
tp14
a((lp15
F0.0
aF0.0
aF0.0
aF0.0
aF0.0
aF0.0
aF0.0
aF0.0
aF0.0
aF0.0
aF0.0
aF0.0
aF0.0
aF0.0
aF0.0
aF-0.15835959421149173
aF-0.9113466733950142
aF-1.155357251193446
aF1.422547306726977
aF-0.7488007390574906
aF0.0
aF-1.0743426613099847
aF1.3511181144025672
aF0.0
aF0.0
aF0.0
aF0.0
aF0.0
aF0.0
aF0.0
aF0.0
aF0.0
aF0.0
aF0.0
aF0.0
aF0.8085763523474445
aF0.01674347992854104
aF-0.793586744772367
aF1.185183542314574
aF-1.9032199553788984
aF0.0
aF-0.8647251527378775
aF3.0575496929839527
aF0.0
aF0.0
aF0.0
aF0.0
aF0.0
aF0.0
aF0.0
aF0.0
aF0.0
aF0.0
aF0.0
aF0.0
aF0.0
aF0.385
aF0.0
aF0.0
aF0.03
aF-0.03
aI0
tp16
a((lp17
F0.0
aF0.0
aF0.0
aF0.0
aF0.0
aF0.0
aF0.0
aF0.0
aF0.0
aF0.0
aF0.0
aF0.0
aF0.0
aF0.0
aF0.0
aF-0.15853175747158663
aF-0.911600963371086
aF-1.1549475608274167
aF1.42252128512501
aF-0.749039633968113
aF0.0
aF-1.0741635870510327
aF1.3509493204596585
aF0.0
aF0.0
aF0.0
aF0.0
aF0.0
aF0.0
aF0.0
aF0.0
aF0.0
aF0.0
aF0.0
aF0.0
aF0.8085763523474445
aF0.01674347992854104
aF-0.793586744772367
aF1.185183542314574
aF-1.9032199553788984
aF0.0
aF-0.8647251527378775
aF3.0575496929839527
aF0.0
aF0.0
aF0.0
aF0.0
aF0.0
aF0.0
aF0.0
aF0.0
aF0.0
aF0.0
aF0.0
aF0.0
aF0.0
aF0.385
aF0.0
aF0.0
aF0.03
aF-0.03
aI0
tp18
a((lp19
F0.0
aF0.0
aF0.0
aF0.0
aF0.0
aF0.0
aF0.0
aF0.0
aF0.0
aF0.0
aF0.0
aF0.0
aF0.0
aF0.0
aF0.0
aF-0.15872950205427097
aF-0.9119570396611671
aF-1.1544216919977721
aF1.4225515436593534
aF-0.7493435982238211
aF0.0
aF-1.0739503625516702
aF1.3506924840613626
aF0.0
aF0.0
aF0.0
aF0.0
aF0.0
aF0.0
aF0.0
aF0.0
aF0.0
aF0.0
aF0.0
aF0.0
aF0.8085763523474445
aF0.01674347992854104
aF-0.793586744772367
aF1.185183542314574
aF-1.9032199553788984
aF0.0
aF-0.8647251527378775
aF3.0575496929839527
aF0.0
aF0.0
aF0.0
aF0.0
aF0.0
aF0.0
aF0.0
aF0.0
aF0.0
aF0.0
aF0.0
aF0.0
aF0.0
aF0.385
aF0.0
aF0.0
aF0.03
aF-0.03
aI0
tp20
a((lp21
F0.0
aF0.0
aF0.0
aF0.0
aF0.0
aF0.0
aF0.0
aF0.0
aF0.0
aF0.0
aF0.0
aF0.0
aF0.0
aF0.0
aF0.0
aF-0.15873917391626952
aF-0.9120168280032068
aF-1.1543619478282445
aF1.4225910938017063
aF-0.7493810426648184
aF0.0
aF-1.0739364596315797
aF1.350643018304504
aF0.0
aF0.0
aF0.0
aF0.0
aF0.0
aF0.0
aF0.0
aF0.0
aF0.0
aF0.0
aF0.0
aF0.0
aF0.8085763523474445
aF0.01674347992854104
aF-0.793586744772367
aF1.185183542314574
aF-1.9032199553788984
aF0.0
aF-0.8647251527378775
aF3.0575496929839527
aF0.0
aF0.0
aF0.0
aF0.0
aF0.0
aF0.0
aF0.0
aF0.0
aF0.0
aF0.0
aF0.0
aF0.0
aF0.0
aF0.385
aF0.0
aF0.0
aF0.03
aF-0.03
aI0
tp22
a((lp23
F0.0
aF0.0
aF0.0
aF0.0
aF0.0
aF0.0
aF0.0
aF0.0
aF0.0
aF0.0
aF0.0
aF0.0
aF0.0
aF0.0
aF0.0
aF-0.15876188485367357
aF-0.9120668944960473
aF-1.1542920368826222
aF1.4226038127273124
aF-0.7494182177343172
aF0.0
aF-1.073909572096467
aF1.3506009258874223
aF0.0
aF0.0
aF0.0
aF0.0
aF0.0
aF0.0
aF0.0
aF0.0
aF0.0
aF0.0
aF0.0
aF0.0
aF0.8085763523474445
aF0.01674347992854104
aF-0.793586744772367
aF1.185183542314574
aF-1.9032199553788984
aF0.0
aF-0.8647251527378775
aF3.0575496929839527
aF0.0
aF0.0
aF0.0
aF0.0
aF0.0
aF0.0
aF0.0
aF0.0
aF0.0
aF0.0
aF0.0
aF0.0
aF0.0
aF0.385
aF0.0
aF0.0
aF0.03
aF-0.03
aI0
tp24
a((lp25
F0.0
aF0.0
aF0.0
aF0.0
aF0.0
aF0.0
aF0.0
aF0.0
aF0.0
aF0.0
aF0.0
aF0.0
aF0.0
aF0.0
aF0.0
aF-0.1588816755412134
aF-0.9122775259058364
aF-1.1539786462634338
aF1.4226154295379734
aF-0.7496025167880509
aF0.0
aF-1.0737801964078997
aF1.3504539721766537
aF0.0
aF0.0
aF0.0
aF0.0
aF0.0
aF0.0
aF0.0
aF0.0
aF0.0
aF0.0
aF0.0
aF0.0
aF0.8085763523474445
aF0.01674347992854104
aF-0.793586744772367
aF1.185183542314574
aF-1.9032199553788984
aF0.0
aF-0.8647251527378775
aF3.0575496929839527
aF0.0
aF0.0
aF0.0
aF0.0
aF0.0
aF0.0
aF0.0
aF0.0
aF0.0
aF0.0
aF0.0
aF0.0
aF0.0
aF0.385
aF0.0
aF0.0
aF0.03
aF-0.03
aI0
tp26
a((lp27
F0.0
aF0.0
aF0.0
aF0.0
aF0.0
aF0.0
aF0.0
aF0.0
aF0.0
aF0.0
aF0.0
aF0.0
aF0.0
aF0.0
aF0.0
aF-0.15896309815108522
aF-0.9124220921833799
aF-1.1537615747603136
aF1.422628957270743
aF-0.7497226057776747
aF0.0
aF-1.0736922359861338
aF1.3503440752456812
aF0.0
aF0.0
aF0.0
aF0.0
aF0.0
aF0.0
aF0.0
aF0.0
aF0.0
aF0.0
aF0.0
aF0.0
aF0.8085763523474445
aF0.01674347992854104
aF-0.793586744772367
aF1.185183542314574
aF-1.9032199553788984
aF0.0
aF-0.8647251527378775
aF3.0575496929839527
aF0.0
aF0.0
aF0.0
aF0.0
aF0.0
aF0.0
aF0.0
aF0.0
aF0.0
aF0.0
aF0.0
aF0.0
aF0.0
aF0.385
aF0.0
aF0.0
aF0.03
aF-0.03
aI0
tp28
a((lp29
F0.0
aF0.0
aF0.0
aF0.0
aF0.0
aF0.0
aF0.0
aF0.0
aF0.0
aF0.0
aF0.0
aF0.0
aF0.0
aF0.0
aF0.0
aF-0.15885345566376033
aF-0.9123099116321792
aF-1.153984440968107
aF1.4226861170524066
aF-0.7496018241323938
aF0.0
aF-1.073801571890857
aF1.350414907270089
aF0.0
aF0.0
aF0.0
aF0.0
aF0.0
aF0.0
aF0.0
aF0.0
aF0.0
aF0.0
aF0.0
aF0.0
aF0.8085763523474445
aF0.01674347992854104
aF-0.793586744772367
aF1.185183542314574
aF-1.9032199553788984
aF0.0
aF-0.8647251527378775
aF3.0575496929839527
aF0.0
aF0.0
aF0.0
aF0.0
aF0.0
aF0.0
aF0.0
aF0.0
aF0.0
aF0.0
aF0.0
aF0.0
aF0.0
aF0.385
aF0.0
aF0.0
aF0.03
aF-0.03
aI0
tp30
a((lp31
F0.0
aF0.0
aF0.0
aF0.0
aF0.0
aF0.0
aF0.0
aF0.0
aF0.0
aF0.0
aF0.0
aF0.0
aF0.0
aF0.0
aF0.0
aF-0.15905953820582375
aF-0.9125934634350666
aF-1.153505822455232
aF1.422641993124485
aF-0.7498684643291935
aF0.0
aF-1.073587141775462
aF1.3502185664719675
aF0.0
aF0.0
aF0.0
aF0.0
aF0.0
aF0.0
aF0.0
aF0.0
aF0.0
aF0.0
aF0.0
aF0.0
aF0.8085763523474445
aF0.01674347992854104
aF-0.793586744772367
aF1.185183542314574
aF-1.9032199553788984
aF0.0
aF-0.8647251527378775
aF3.0575496929839527
aF0.0
aF0.0
aF0.0
aF0.0
aF0.0
aF0.0
aF0.0
aF0.0
aF0.0
aF0.0
aF0.0
aF0.0
aF0.0
aF0.385
aF0.0
aF0.0
aF0.03
aF-0.03
aI0
tp32
a((lp33
F0.0
aF0.0
aF0.0
aF0.0
aF0.0
aF0.0
aF0.0
aF0.0
aF0.0
aF0.0
aF0.0
aF0.0
aF0.0
aF0.0
aF0.0
aF-0.15912356365366873
aF-0.9126967452302707
aF-1.153349367356938
aF1.4226384325151273
aF-0.7499660996717996
aF0.0
aF-1.0735215072820228
aF1.3501551469650004
aF0.0
aF0.0
aF0.0
aF0.0
aF0.0
aF0.0
aF0.0
aF0.0
aF0.0
aF0.0
aF0.0
aF0.0
aF0.8085763523474445
aF0.01674347992854104
aF-0.793586744772367
aF1.185183542314574
aF-1.9032199553788984
aF0.0
aF-0.8647251527378775
aF3.0575496929839527
aF0.0
aF0.0
aF0.0
aF0.0
aF0.0
aF0.0
aF0.0
aF0.0
aF0.0
aF0.0
aF0.0
aF0.0
aF0.0
aF0.385
aF0.0
aF0.0
aF0.03
aF-0.03
aI0
tp34
a((lp35
F0.0
aF0.0
aF0.0
aF0.0
aF0.0
aF0.0
aF0.0
aF0.0
aF0.0
aF0.0
aF0.0
aF0.0
aF0.0
aF0.0
aF0.0
aF-0.15895532390856865
aF-0.912504716815942
aF-1.153701233169682
aF1.4227125033600294
aF-0.7497611461652844
aF0.0
aF-1.073687056054506
aF1.3502668190769351
aF0.0
aF0.0
aF0.0
aF0.0
aF0.0
aF0.0
aF0.0
aF0.0
aF0.0
aF0.0
aF0.0
aF0.0
aF0.8085763523474445
aF0.01674347992854104
aF-0.793586744772367
aF1.185183542314574
aF-1.9032199553788984
aF0.0
aF-0.8647251527378775
aF3.0575496929839527
aF0.0
aF0.0
aF0.0
aF0.0
aF0.0
aF0.0
aF0.0
aF0.0
aF0.0
aF0.0
aF0.0
aF0.0
aF0.0
aF0.385
aF0.0
aF0.0
aF0.03
aF-0.03
aI0
tp36
a((lp37
F0.0
aF0.0
aF0.0
aF0.0
aF0.0
aF0.0
aF0.0
aF0.0
aF0.0
aF0.0
aF0.0
aF0.0
aF0.0
aF0.0
aF0.0
aF-0.1591082336739243
aF-0.9126996618202846
aF-1.1533642297452116
aF1.4226650390250493
aF-0.7499564730596103
aF0.0
aF-1.0735352491893533
aF1.3501448657781712
aF0.0
aF0.0
aF0.0
aF0.0
aF0.0
aF0.0
aF0.0
aF0.0
aF0.0
aF0.0
aF0.0
aF0.0
aF0.8085763523474445
aF0.01674347992854104
aF-0.793586744772367
aF1.185183542314574
aF-1.9032199553788984
aF0.0
aF-0.8647251527378775
aF3.0575496929839527
aF0.0
aF0.0
aF0.0
aF0.0
aF0.0
aF0.0
aF0.0
aF0.0
aF0.0
aF0.0
aF0.0
aF0.0
aF0.0
aF0.385
aF0.0
aF0.0
aF0.03
aF-0.03
aI0
tp38
a((lp39
F0.0
aF0.0
aF0.0
aF0.0
aF0.0
aF0.0
aF0.0
aF0.0
aF0.0
aF0.0
aF0.0
aF0.0
aF0.0
aF0.0
aF0.0
aF-0.1589734762637885
aF-0.9125378063156266
aF-1.1536552082704217
aF1.4227144349329988
aF-0.7497921038808941
aF0.0
aF-1.0736693343367998
aF1.3502476058424109
aF0.0
aF0.0
aF0.0
aF0.0
aF0.0
aF0.0
aF0.0
aF0.0
aF0.0
aF0.0
aF0.0
aF0.0
aF0.8085763523474445
aF0.01674347992854104
aF-0.793586744772367
aF1.185183542314574
aF-1.9032199553788984
aF0.0
aF-0.8647251527378775
aF3.0575496929839527
aF0.0
aF0.0
aF0.0
aF0.0
aF0.0
aF0.0
aF0.0
aF0.0
aF0.0
aF0.0
aF0.0
aF0.0
aF0.0
aF0.385
aF0.0
aF0.0
aF0.03
aF-0.03
aI0
tp40
a((lp41
F0.0
aF0.0
aF0.0
aF0.0
aF0.0
aF0.0
aF0.0
aF0.0
aF0.0
aF0.0
aF0.0
aF0.0
aF0.0
aF0.0
aF0.0
aF-0.15896776675197063
aF-0.9125325013267787
aF-1.153666849535237
aF1.4227192752765683
aF-0.7497849743588842
aF0.0
aF-1.0736764552486033
aF1.3502495995507018
aF0.0
aF0.0
aF0.0
aF0.0
aF0.0
aF0.0
aF0.0
aF0.0
aF0.0
aF0.0
aF0.0
aF0.0
aF0.8085763523474445
aF0.01674347992854104
aF-0.793586744772367
aF1.185183542314574
aF-1.9032199553788984
aF0.0
aF-0.8647251527378775
aF3.0575496929839527
aF0.0
aF0.0
aF0.0
aF0.0
aF0.0
aF0.0
aF0.0
aF0.0
aF0.0
aF0.0
aF0.0
aF0.0
aF0.0
aF0.385
aF0.0
aF0.0
aF0.03
aF-0.03
aI0
tp42
a((lp43
F0.0
aF0.0
aF0.0
aF0.0
aF0.0
aF0.0
aF0.0
aF0.0
aF0.0
aF0.0
aF0.0
aF0.0
aF0.0
aF0.0
aF0.0
aF-0.15924126008653824
aF-0.9129468077252072
aF-1.1530007907452497
aF1.4226943143498703
aF-0.7501607373684404
aF0.0
aF-1.0733882183384713
aF1.3499583573592198
aF0.0
aF0.0
aF0.0
aF0.0
aF0.0
aF0.0
aF0.0
aF0.0
aF0.0
aF0.0
aF0.0
aF0.0
aF0.8085763523474445
aF0.01674347992854104
aF-0.793586744772367
aF1.185183542314574
aF-1.9032199553788984
aF0.0
aF-0.8647251527378775
aF3.0575496929839527
aF0.0
aF0.0
aF0.0
aF0.0
aF0.0
aF0.0
aF0.0
aF0.0
aF0.0
aF0.0
aF0.0
aF0.0
aF0.0
aF0.385
aF0.0
aF0.0
aF0.03
aF-0.03
aI0
tp44
a((lp45
F0.0
aF0.0
aF0.0
aF0.0
aF0.0
aF0.0
aF0.0
aF0.0
aF0.0
aF0.0
aF0.0
aF0.0
aF0.0
aF0.0
aF0.0
aF-0.1592821776107612
aF-0.9130196408528662
aF-1.15289597863087
aF1.4226976292286224
aF-0.7502275626239887
aF0.0
aF-1.0733459033996222
aF1.3499130750531805
aF0.0
aF0.0
aF0.0
aF0.0
aF0.0
aF0.0
aF0.0
aF0.0
aF0.0
aF0.0
aF0.0
aF0.0
aF0.8085763523474445
aF0.01674347992854104
aF-0.793586744772367
aF1.185183542314574
aF-1.9032199553788984
aF0.0
aF-0.8647251527378775
aF3.0575496929839527
aF0.0
aF0.0
aF0.0
aF0.0
aF0.0
aF0.0
aF0.0
aF0.0
aF0.0
aF0.0
aF0.0
aF0.0
aF0.0
aF0.385
aF0.0
aF0.0
aF0.03
aF-0.03
aI0
tp46
a((lp47
F0.0
aF0.0
aF0.0
aF0.0
aF0.0
aF0.0
aF0.0
aF0.0
aF0.0
aF0.0
aF0.0
aF0.0
aF0.0
aF0.0
aF0.0
aF-0.15933624533761676
aF-0.9130918063688335
aF-1.1527741108199199
aF1.4226822830825037
aF-0.7502997053930286
aF0.0
aF-1.0732905629307614
aF1.3498689553572656
aF0.0
aF0.0
aF0.0
aF0.0
aF0.0
aF0.0
aF0.0
aF0.0
aF0.0
aF0.0
aF0.0
aF0.0
aF0.8085763523474445
aF0.01674347992854104
aF-0.793586744772367
aF1.185183542314574
aF-1.9032199553788984
aF0.0
aF-0.8647251527378775
aF3.0575496929839527
aF0.0
aF0.0
aF0.0
aF0.0
aF0.0
aF0.0
aF0.0
aF0.0
aF0.0
aF0.0
aF0.0
aF0.0
aF0.0
aF0.385
aF0.0
aF0.0
aF0.03
aF-0.03
aI0
tp48
a((lp49
F0.0
aF0.0
aF0.0
aF0.0
aF0.0
aF0.0
aF0.0
aF0.0
aF0.0
aF0.0
aF0.0
aF0.0
aF0.0
aF0.0
aF0.0
aF-0.1593456120583593
aF-0.9131149535784475
aF-1.152744542722273
aF1.4226886048187044
aF-0.7503183863096569
aF0.0
aF-1.073279706757909
aF1.3498526228021566
aF0.0
aF0.0
aF0.0
aF0.0
aF0.0
aF0.0
aF0.0
aF0.0
aF0.0
aF0.0
aF0.0
aF0.0
aF0.8085763523474445
aF0.01674347992854104
aF-0.793586744772367
aF1.185183542314574
aF-1.9032199553788984
aF0.0
aF-0.8647251527378775
aF3.0575496929839527
aF0.0
aF0.0
aF0.0
aF0.0
aF0.0
aF0.0
aF0.0
aF0.0
aF0.0
aF0.0
aF0.0
aF0.0
aF0.0
aF0.385
aF0.0
aF0.0
aF0.03
aF-0.03
aI0
tp50
a((lp51
F0.0
aF0.0
aF0.0
aF0.0
aF0.0
aF0.0
aF0.0
aF0.0
aF0.0
aF0.0
aF0.0
aF0.0
aF0.0
aF0.0
aF0.0
aF-0.1592301472023625
aF-0.9129799349115841
aF-1.1529893993957652
aF1.4227395433565706
aF-0.7501738207826679
aF0.0
aF-1.0733970101906198
aF1.3499296685078264
aF0.0
aF0.0
aF0.0
aF0.0
aF0.0
aF0.0
aF0.0
aF0.0
aF0.0
aF0.0
aF0.0
aF0.0
aF0.8085763523474445
aF0.01674347992854104
aF-0.793586744772367
aF1.185183542314574
aF-1.9032199553788984
aF0.0
aF-0.8647251527378775
aF3.0575496929839527
aF0.0
aF0.0
aF0.0
aF0.0
aF0.0
aF0.0
aF0.0
aF0.0
aF0.0
aF0.0
aF0.0
aF0.0
aF0.0
aF0.385
aF0.0
aF0.0
aF0.03
aF-0.03
aI0
tp52
a((lp53
F0.0
aF0.0
aF0.0
aF0.0
aF0.0
aF0.0
aF0.0
aF0.0
aF0.0
aF0.0
aF0.0
aF0.0
aF0.0
aF0.0
aF0.0
aF-0.15930517955881857
aF-0.9130786447697395
aF-1.1528174753851943
aF1.4227193883435187
aF-0.7502680940929277
aF0.0
aF-1.0733179027824482
aF1.34986126814752
aF0.0
aF0.0
aF0.0
aF0.0
aF0.0
aF0.0
aF0.0
aF0.0
aF0.0
aF0.0
aF0.0
aF0.0
aF0.8085763523474445
aF0.01674347992854104
aF-0.793586744772367
aF1.185183542314574
aF-1.9032199553788984
aF0.0
aF-0.8647251527378775
aF3.0575496929839527
aF0.0
aF0.0
aF0.0
aF0.0
aF0.0
aF0.0
aF0.0
aF0.0
aF0.0
aF0.0
aF0.0
aF0.0
aF0.0
aF0.385
aF0.0
aF0.0
aF0.03
aF-0.03
aI0
tp54
a((lp55
F0.0
aF0.0
aF0.0
aF0.0
aF0.0
aF0.0
aF0.0
aF0.0
aF0.0
aF0.0
aF0.0
aF0.0
aF0.0
aF0.0
aF0.0
aF-0.15921229717620924
aF-0.9130008538190711
aF-1.1529956042211198
aF1.4227831495321663
aF-0.7501765455581348
aF0.0
aF-1.0734124366169664
aF1.3499092554423338
aF0.0
aF0.0
aF0.0
aF0.0
aF0.0
aF0.0
aF0.0
aF0.0
aF0.0
aF0.0
aF0.0
aF0.0
aF0.8085763523474445
aF0.01674347992854104
aF-0.793586744772367
aF1.185183542314574
aF-1.9032199553788984
aF0.0
aF-0.8647251527378775
aF3.0575496929839527
aF0.0
aF0.0
aF0.0
aF0.0
aF0.0
aF0.0
aF0.0
aF0.0
aF0.0
aF0.0
aF0.0
aF0.0
aF0.0
aF0.385
aF0.0
aF0.0
aF0.03
aF-0.03
aI0
tp56
a((lp57
F0.0
aF0.0
aF0.0
aF0.0
aF0.0
aF0.0
aF0.0
aF0.0
aF0.0
aF0.0
aF0.0
aF0.0
aF0.0
aF0.0
aF0.0
aF-0.15925391901171715
aF-0.9130819689525459
aF-1.1528767440167453
aF1.422793658497414
aF-0.7502426423351048
aF0.0
aF-1.0733619522575915
aF1.349846865800045
aF0.0
aF0.0
aF0.0
aF0.0
aF0.0
aF0.0
aF0.0
aF0.0
aF0.0
aF0.0
aF0.0
aF0.0
aF0.8085763523474445
aF0.01674347992854104
aF-0.793586744772367
aF1.185183542314574
aF-1.9032199553788984
aF0.0
aF-0.8647251527378775
aF3.0575496929839527
aF0.0
aF0.0
aF0.0
aF0.0
aF0.0
aF0.0
aF0.0
aF0.0
aF0.0
aF0.0
aF0.0
aF0.0
aF0.0
aF0.385
aF0.0
aF0.0
aF0.03
aF-0.03
aI0
tp58
a((lp59
F0.0
aF0.0
aF0.0
aF0.0
aF0.0
aF0.0
aF0.0
aF0.0
aF0.0
aF0.0
aF0.0
aF0.0
aF0.0
aF0.0
aF0.0
aF-0.15941023691201142
aF-0.9132783531932401
aF-1.1525309913151924
aF1.4227448066619404
aF-0.7504365008566215
aF0.0
aF-1.0732044844893471
aF1.349717972788844
aF0.0
aF0.0
aF0.0
aF0.0
aF0.0
aF0.0
aF0.0
aF0.0
aF0.0
aF0.0
aF0.0
aF0.0
aF0.8085763523474445
aF0.01674347992854104
aF-0.793586744772367
aF1.185183542314574
aF-1.9032199553788984
aF0.0
aF-0.8647251527378775
aF3.0575496929839527
aF0.0
aF0.0
aF0.0
aF0.0
aF0.0
aF0.0
aF0.0
aF0.0
aF0.0
aF0.0
aF0.0
aF0.0
aF0.0
aF0.385
aF0.0
aF0.0
aF0.03
aF-0.03
aI0
tp60
a((lp61
F0.0
aF0.0
aF0.0
aF0.0
aF0.0
aF0.0
aF0.0
aF0.0
aF0.0
aF0.0
aF0.0
aF0.0
aF0.0
aF0.0
aF0.0
aF-0.15928526741013022
aF-0.9131283682681454
aF-1.1528006994383648
aF1.4227903875570804
aF-0.750284662409086
aF0.0
aF-1.0733289578743308
aF1.3498137290535464
aF0.0
aF0.0
aF0.0
aF0.0
aF0.0
aF0.0
aF0.0
aF0.0
aF0.0
aF0.0
aF0.0
aF0.0
aF0.8085763523474445
aF0.01674347992854104
aF-0.793586744772367
aF1.185183542314574
aF-1.9032199553788984
aF0.0
aF-0.8647251527378775
aF3.0575496929839527
aF0.0
aF0.0
aF0.0
aF0.0
aF0.0
aF0.0
aF0.0
aF0.0
aF0.0
aF0.0
aF0.0
aF0.0
aF0.0
aF0.385
aF0.0
aF0.0
aF0.03
aF-0.03
aI0
tp62
a((lp63
F0.0
aF0.0
aF0.0
aF0.0
aF0.0
aF0.0
aF0.0
aF0.0
aF0.0
aF0.0
aF0.0
aF0.0
aF0.0
aF0.0
aF0.0
aF-0.1594260941275077
aF-0.9133015007318075
aF-1.1524929173007201
aF1.422742487612343
aF-0.7504578323325425
aF0.0
aF-1.0731875778566402
aF1.349701845915474
aF0.0
aF0.0
aF0.0
aF0.0
aF0.0
aF0.0
aF0.0
aF0.0
aF0.0
aF0.0
aF0.0
aF0.0
aF0.8085763523474445
aF0.01674347992854104
aF-0.793586744772367
aF1.185183542314574
aF-1.9032199553788984
aF0.0
aF-0.8647251527378775
aF3.0575496929839527
aF0.0
aF0.0
aF0.0
aF0.0
aF0.0
aF0.0
aF0.0
aF0.0
aF0.0
aF0.0
aF0.0
aF0.0
aF0.0
aF0.385
aF0.0
aF0.0
aF0.03
aF-0.03
aI0
tp64
a((lp65
F0.0
aF0.0
aF0.0
aF0.0
aF0.0
aF0.0
aF0.0
aF0.0
aF0.0
aF0.0
aF0.0
aF0.0
aF0.0
aF0.0
aF0.0
aF-0.1594419428204758
aF-0.9133328142679726
aF-1.1524492559544735
aF1.4227470222756273
aF-0.7504845054929907
aF0.0
aF-1.0731706149929512
aF1.3496801855160399
aF0.0
aF0.0
aF0.0
aF0.0
aF0.0
aF0.0
aF0.0
aF0.0
aF0.0
aF0.0
aF0.0
aF0.0
aF0.8085763523474445
aF0.01674347992854104
aF-0.793586744772367
aF1.185183542314574
aF-1.9032199553788984
aF0.0
aF-0.8647251527378775
aF3.0575496929839527
aF0.0
aF0.0
aF0.0
aF0.0
aF0.0
aF0.0
aF0.0
aF0.0
aF0.0
aF0.0
aF0.0
aF0.0
aF0.0
aF0.385
aF0.0
aF0.0
aF0.03
aF-0.03
aI0
tp66
a((lp67
F0.0
aF0.0
aF0.0
aF0.0
aF0.0
aF0.0
aF0.0
aF0.0
aF0.0
aF0.0
aF0.0
aF0.0
aF0.0
aF0.0
aF0.0
aF-0.15953327867393097
aF-0.9134757237463927
aF-1.15222642811422
aF1.4227387784006242
aF-0.7506185335132728
aF0.0
aF-1.0730742341042654
aF1.3495884254742245
aF0.0
aF0.0
aF0.0
aF0.0
aF0.0
aF0.0
aF0.0
aF0.0
aF0.0
aF0.0
aF0.0
aF0.0
aF0.8085763523474445
aF0.01674347992854104
aF-0.793586744772367
aF1.185183542314574
aF-1.9032199553788984
aF0.0
aF-0.8647251527378775
aF3.0575496929839527
aF0.0
aF0.0
aF0.0
aF0.0
aF0.0
aF0.0
aF0.0
aF0.0
aF0.0
aF0.0
aF0.0
aF0.0
aF0.0
aF0.385
aF0.0
aF0.0
aF0.03
aF-0.03
aI0
tp68
a((lp69
F0.0
aF0.0
aF0.0
aF0.0
aF0.0
aF0.0
aF0.0
aF0.0
aF0.0
aF0.0
aF0.0
aF0.0
aF0.0
aF0.0
aF0.0
aF-0.15939259454202068
aF-0.9133152548394367
aF-1.1525241755418858
aF1.422801252037288
aF-0.7504493472050063
aF0.0
aF-1.0732175769230456
aF1.3496858246374805
aF0.0
aF0.0
aF0.0
aF0.0
aF0.0
aF0.0
aF0.0
aF0.0
aF0.0
aF0.0
aF0.0
aF0.0
aF0.8085763523474445
aF0.01674347992854104
aF-0.793586744772367
aF1.185183542314574
aF-1.9032199553788984
aF0.0
aF-0.8647251527378775
aF3.0575496929839527
aF0.0
aF0.0
aF0.0
aF0.0
aF0.0
aF0.0
aF0.0
aF0.0
aF0.0
aF0.0
aF0.0
aF0.0
aF0.0
aF0.385
aF0.0
aF0.0
aF0.03
aF-0.03
aI0
tp70
a((lp71
F0.0
aF0.0
aF0.0
aF0.0
aF0.0
aF0.0
aF0.0
aF0.0
aF0.0
aF0.0
aF0.0
aF0.0
aF0.0
aF0.0
aF0.0
aF-0.15941184135491193
aF-0.9133452004494739
aF-1.1524770416910999
aF1.42280398015053
aF-0.7504728958515502
aF0.0
aF-1.0732004810690303
aF1.3496603640144533
aF0.0
aF0.0
aF0.0
aF0.0
aF0.0
aF0.0
aF0.0
aF0.0
aF0.0
aF0.0
aF0.0
aF0.0
aF0.8085763523474445
aF0.01674347992854104
aF-0.793586744772367
aF1.185183542314574
aF-1.9032199553788984
aF0.0
aF-0.8647251527378775
aF3.0575496929839527
aF0.0
aF0.0
aF0.0
aF0.0
aF0.0
aF0.0
aF0.0
aF0.0
aF0.0
aF0.0
aF0.0
aF0.0
aF0.0
aF0.385
aF0.0
aF0.0
aF0.03
aF-0.03
aI0
tp72
a((lp73
F0.0
aF0.0
aF0.0
aF0.0
aF0.0
aF0.0
aF0.0
aF0.0
aF0.0
aF0.0
aF0.0
aF0.0
aF0.0
aF0.0
aF0.0
aF-0.15958715206067114
aF-0.9135859887614289
aF-1.1520731512383593
aF1.4227591244613678
aF-0.7507088725006198
aF0.0
aF-1.0730154748385146
aF1.3495076930588006
aF0.0
aF0.0
aF0.0
aF0.0
aF0.0
aF0.0
aF0.0
aF0.0
aF0.0
aF0.0
aF0.0
aF0.0
aF0.8085763523474445
aF0.01674347992854104
aF-0.793586744772367
aF1.185183542314574
aF-1.9032199553788984
aF0.0
aF-0.8647251527378775
aF3.0575496929839527
aF0.0
aF0.0
aF0.0
aF0.0
aF0.0
aF0.0
aF0.0
aF0.0
aF0.0
aF0.0
aF0.0
aF0.0
aF0.0
aF0.385
aF0.0
aF0.0
aF0.03
aF-0.03
aI0
tp74
a((lp75
F0.0
aF0.0
aF0.0
aF0.0
aF0.0
aF0.0
aF0.0
aF0.0
aF0.0
aF0.0
aF0.0
aF0.0
aF0.0
aF0.0
aF0.0
aF-0.15954791973806387
aF-0.9135727830973868
aF-1.1521290336283265
aF1.4228093278314646
aF-0.7506734975163579
aF0.0
aF-1.0730543508222536
aF1.3495003593254375
aF0.0
aF0.0
aF0.0
aF0.0
aF0.0
aF0.0
aF0.0
aF0.0
aF0.0
aF0.0
aF0.0
aF0.0
aF0.8085763523474445
aF0.01674347992854104
aF-0.793586744772367
aF1.185183542314574
aF-1.9032199553788984
aF0.0
aF-0.8647251527378775
aF3.0575496929839527
aF0.0
aF0.0
aF0.0
aF0.0
aF0.0
aF0.0
aF0.0
aF0.0
aF0.0
aF0.0
aF0.0
aF0.0
aF0.0
aF0.385
aF0.0
aF0.0
aF0.03
aF-0.03
aI0
tp76
a((lp77
F0.0
aF0.0
aF0.0
aF0.0
aF0.0
aF0.0
aF0.0
aF0.0
aF0.0
aF0.0
aF0.0
aF0.0
aF0.0
aF0.0
aF0.0
aF-0.1594866495943858
aF-0.9135185856553243
aF-1.1522467045171927
aF1.422849889809286
aF-0.7506088016123409
aF0.0
aF-1.0731153759263792
aF1.3495301433375484
aF0.0
aF0.0
aF0.0
aF0.0
aF0.0
aF0.0
aF0.0
aF0.0
aF0.0
aF0.0
aF0.0
aF0.0
aF0.8085763523474445
aF0.01674347992854104
aF-0.793586744772367
aF1.185183542314574
aF-1.9032199553788984
aF0.0
aF-0.8647251527378775
aF3.0575496929839527
aF0.0
aF0.0
aF0.0
aF0.0
aF0.0
aF0.0
aF0.0
aF0.0
aF0.0
aF0.0
aF0.0
aF0.0
aF0.0
aF0.385
aF0.0
aF0.0
aF0.03
aF-0.03
aI0
tp78
a((lp79
F0.0
aF0.0
aF0.0
aF0.0
aF0.0
aF0.0
aF0.0
aF0.0
aF0.0
aF0.0
aF0.0
aF0.0
aF0.0
aF0.0
aF0.0
aF-0.15970588102525599
aF-0.9138059227533599
aF-1.1517524029704846
aF1.4227836864414452
aF-0.7508945776324073
aF0.0
aF-1.0728866153834329
aF1.3493484784045788
aF0.0
aF0.0
aF0.0
aF0.0
aF0.0
aF0.0
aF0.0
aF0.0
aF0.0
aF0.0
aF0.0
aF0.0
aF0.8085763523474445
aF0.01674347992854104
aF-0.793586744772367
aF1.185183542314574
aF-1.9032199553788984
aF0.0
aF-0.8647251527378775
aF3.0575496929839527
aF0.0
aF0.0
aF0.0
aF0.0
aF0.0
aF0.0
aF0.0
aF0.0
aF0.0
aF0.0
aF0.0
aF0.0
aF0.0
aF0.385
aF0.0
aF0.0
aF0.03
aF-0.03
aI0
tp80
a((lp81
F0.0
aF0.0
aF0.0
aF0.0
aF0.0
aF0.0
aF0.0
aF0.0
aF0.0
aF0.0
aF0.0
aF0.0
aF0.0
aF0.0
aF0.0
aF-0.15982266020130065
aF-0.9140213860694849
aF-1.1514383450263144
aF1.4228078036355847
aF-0.7510768039889709
aF0.0
aF-1.0727612862382312
aF1.349192827193423
aF0.0
aF0.0
aF0.0
aF0.0
aF0.0
aF0.0
aF0.0
aF0.0
aF0.0
aF0.0
aF0.0
aF0.0
aF0.8085763523474445
aF0.01674347992854104
aF-0.793586744772367
aF1.185183542314574
aF-1.9032199553788984
aF0.0
aF-0.8647251527378775
aF3.0575496929839527
aF0.0
aF0.0
aF0.0
aF0.0
aF0.0
aF0.0
aF0.0
aF0.0
aF0.0
aF0.0
aF0.0
aF0.0
aF0.0
aF0.385
aF0.0
aF0.0
aF0.03
aF-0.03
aI0
tp82
a((lp83
F0.0
aF0.0
aF0.0
aF0.0
aF0.0
aF0.0
aF0.0
aF0.0
aF0.0
aF0.0
aF0.0
aF0.0
aF0.0
aF0.0
aF0.0
aF-0.159833641882872
aF-0.9140445905868474
aF-1.1514054602746429
aF1.4228131339941061
aF-0.751094341346903
aF0.0
aF-1.072748469075792
aF1.3491736516321344
aF0.0
aF0.0
aF0.0
aF0.0
aF0.0
aF0.0
aF0.0
aF0.0
aF0.0
aF0.0
aF0.0
aF0.0
aF0.8085763523474445
aF0.01674347992854104
aF-0.793586744772367
aF1.185183542314574
aF-1.9032199553788984
aF0.0
aF-0.8647251527378775
aF3.0575496929839527
aF0.0
aF0.0
aF0.0
aF0.0
aF0.0
aF0.0
aF0.0
aF0.0
aF0.0
aF0.0
aF0.0
aF0.0
aF0.0
aF0.385
aF0.0
aF0.0
aF0.03
aF-0.03
aI0
tp84
a((lp85
F0.0
aF0.0
aF0.0
aF0.0
aF0.0
aF0.0
aF0.0
aF0.0
aF0.0
aF0.0
aF0.0
aF0.0
aF0.0
aF0.0
aF0.0
aF-0.15963732086776647
aF-0.9138114342462829
aF-1.1518266700384319
aF1.4228930662348267
aF-0.7508501291501238
aF0.0
aF-1.0729479758567315
aF1.3493128790500077
aF0.0
aF0.0
aF0.0
aF0.0
aF0.0
aF0.0
aF0.0
aF0.0
aF0.0
aF0.0
aF0.0
aF0.0
aF0.8085763523474445
aF0.01674347992854104
aF-0.793586744772367
aF1.185183542314574
aF-1.9032199553788984
aF0.0
aF-0.8647251527378775
aF3.0575496929839527
aF0.0
aF0.0
aF0.0
aF0.0
aF0.0
aF0.0
aF0.0
aF0.0
aF0.0
aF0.0
aF0.0
aF0.0
aF0.0
aF0.385
aF0.0
aF0.0
aF0.03
aF-0.03
aI0
tp86
a((lp87
F0.0
aF0.0
aF0.0
aF0.0
aF0.0
aF0.0
aF0.0
aF0.0
aF0.0
aF0.0
aF0.0
aF0.0
aF0.0
aF0.0
aF0.0
aF-0.1598588778045433
aF-0.9140999252257109
aF-1.1513307774497292
aF1.4228255412441062
aF-0.7511391331400432
aF0.0
aF-1.0727202710406964
aF1.3491335604514127
aF0.0
aF0.0
aF0.0
aF0.0
aF0.0
aF0.0
aF0.0
aF0.0
aF0.0
aF0.0
aF0.0
aF0.0
aF0.8085763523474445
aF0.01674347992854104
aF-0.793586744772367
aF1.185183542314574
aF-1.9032199553788984
aF0.0
aF-0.8647251527378775
aF3.0575496929839527
aF0.0
aF0.0
aF0.0
aF0.0
aF0.0
aF0.0
aF0.0
aF0.0
aF0.0
aF0.0
aF0.0
aF0.0
aF0.0
aF0.385
aF0.0
aF0.0
aF0.03
aF-0.03
aI0
tp88
a((lp89
F0.0
aF0.0
aF0.0
aF0.0
aF0.0
aF0.0
aF0.0
aF0.0
aF0.0
aF0.0
aF0.0
aF0.0
aF0.0
aF0.0
aF0.0
aF-0.15966272177635993
aF-0.9138627092126815
aF-1.1517581516868014
aF1.4229010533798931
aF-0.7508958578262969
aF0.0
aF-1.072923338586827
aF1.3492815793790693
aF0.0
aF0.0
aF0.0
aF0.0
aF0.0
aF0.0
aF0.0
aF0.0
aF0.0
aF0.0
aF0.0
aF0.0
aF0.8085763523474445
aF0.01674347992854104
aF-0.793586744772367
aF1.185183542314574
aF-1.9032199553788984
aF0.0
aF-0.8647251527378775
aF3.0575496929839527
aF0.0
aF0.0
aF0.0
aF0.0
aF0.0
aF0.0
aF0.0
aF0.0
aF0.0
aF0.0
aF0.0
aF0.0
aF0.0
aF0.385
aF0.0
aF0.0
aF0.03
aF-0.03
aI0
tp90
a((lp91
F0.0
aF0.0
aF0.0
aF0.0
aF0.0
aF0.0
aF0.0
aF0.0
aF0.0
aF0.0
aF0.0
aF0.0
aF0.0
aF0.0
aF0.0
aF-0.159744268335384
aF-0.913962133963432
aF-1.151575740665799
aF1.4228725629700416
aF-0.7509927351889453
aF0.0
aF-1.072836171601492
aF1.3492111786781797
aF0.0
aF0.0
aF0.0
aF0.0
aF0.0
aF0.0
aF0.0
aF0.0
aF0.0
aF0.0
aF0.0
aF0.0
aF0.8085763523474445
aF0.01674347992854104
aF-0.793586744772367
aF1.185183542314574
aF-1.9032199553788984
aF0.0
aF-0.8647251527378775
aF3.0575496929839527
aF0.0
aF0.0
aF0.0
aF0.0
aF0.0
aF0.0
aF0.0
aF0.0
aF0.0
aF0.0
aF0.0
aF0.0
aF0.0
aF0.385
aF0.0
aF0.0
aF0.03
aF-0.03
aI0
tp92
a((lp93
F0.0
aF0.0
aF0.0
aF0.0
aF0.0
aF0.0
aF0.0
aF0.0
aF0.0
aF0.0
aF0.0
aF0.0
aF0.0
aF0.0
aF0.0
aF-0.15994173717249294
aF-0.9142579265309658
aF-1.1511042205974473
aF1.4228468904435942
aF-0.7512718544194495
aF0.0
aF-1.0726309779957903
aF1.349019723059174
aF0.0
aF0.0
aF0.0
aF0.0
aF0.0
aF0.0
aF0.0
aF0.0
aF0.0
aF0.0
aF0.0
aF0.0
aF0.8085763523474445
aF0.01674347992854104
aF-0.793586744772367
aF1.185183542314574
aF-1.9032199553788984
aF0.0
aF-0.8647251527378775
aF3.0575496929839527
aF0.0
aF0.0
aF0.0
aF0.0
aF0.0
aF0.0
aF0.0
aF0.0
aF0.0
aF0.0
aF0.0
aF0.0
aF0.0
aF0.385
aF0.0
aF0.0
aF0.03
aF-0.03
aI0
tp94
a((lp95
F0.0
aF0.0
aF0.0
aF0.0
aF0.0
aF0.0
aF0.0
aF0.0
aF0.0
aF0.0
aF0.0
aF0.0
aF0.0
aF0.0
aF0.0
aF-0.15983669579422444
aF-0.9141285760890026
aF-1.1513308115754943
aF1.422889042142295
aF-0.7511340156835469
aF0.0
aF-1.072738414744984
aF1.3490909814411889
aF0.0
aF0.0
aF0.0
aF0.0
aF0.0
aF0.0
aF0.0
aF0.0
aF0.0
aF0.0
aF0.0
aF0.0
aF0.8085763523474445
aF0.01674347992854104
aF-0.793586744772367
aF1.185183542314574
aF-1.9032199553788984
aF0.0
aF-0.8647251527378775
aF3.0575496929839527
aF0.0
aF0.0
aF0.0
aF0.0
aF0.0
aF0.0
aF0.0
aF0.0
aF0.0
aF0.0
aF0.0
aF0.0
aF0.0
aF0.385
aF0.0
aF0.0
aF0.03
aF-0.03
aI0
tp96
a((lp97
F0.0
aF0.0
aF0.0
aF0.0
aF0.0
aF0.0
aF0.0
aF0.0
aF0.0
aF0.0
aF0.0
aF0.0
aF0.0
aF0.0
aF0.0
aF-0.1602290251280067
aF-0.9147725850335273
aF-1.1503394764091217
aF1.422895507031155
aF-0.7517058968235839
aF0.0
aF-1.0723205258522523
aF1.3486409017936687
aF0.0
aF0.0
aF0.0
aF0.0
aF0.0
aF0.0
aF0.0
aF0.0
aF0.0
aF0.0
aF0.0
aF0.0
aF0.8085763523474445
aF0.01674347992854104
aF-0.793586744772367
aF1.185183542314574
aF-1.9032199553788984
aF0.0
aF-0.8647251527378775
aF3.0575496929839527
aF0.0
aF0.0
aF0.0
aF0.0
aF0.0
aF0.0
aF0.0
aF0.0
aF0.0
aF0.0
aF0.0
aF0.0
aF0.0
aF0.385
aF0.0
aF0.0
aF0.03
aF-0.03
aI0
tp98
a((lp99
F0.0
aF0.0
aF0.0
aF0.0
aF0.0
aF0.0
aF0.0
aF0.0
aF0.0
aF0.0
aF0.0
aF0.0
aF0.0
aF0.0
aF0.0
aF-0.16024305856455087
aF-0.914799313979454
aF-1.1503010057799987
aF1.422899237285339
aF-0.7517281551701638
aF0.0
aF-1.072305331776691
aF1.3486213671616212
aF0.0
aF0.0
aF0.0
aF0.0
aF0.0
aF0.0
aF0.0
aF0.0
aF0.0
aF0.0
aF0.0
aF0.0
aF0.8085763523474445
aF0.01674347992854104
aF-0.793586744772367
aF1.185183542314574
aF-1.9032199553788984
aF0.0
aF-0.8647251527378775
aF3.0575496929839527
aF0.0
aF0.0
aF0.0
aF0.0
aF0.0
aF0.0
aF0.0
aF0.0
aF0.0
aF0.0
aF0.0
aF0.0
aF0.0
aF0.385
aF0.0
aF0.0
aF0.03
aF-0.03
aI0
tp100
a((lp101
F0.0
aF0.0
aF0.0
aF0.0
aF0.0
aF0.0
aF0.0
aF0.0
aF0.0
aF0.0
aF0.0
aF0.0
aF0.0
aF0.0
aF0.0
aF-0.16024595444572387
aF-0.9148044883454043
aF-1.1502933157339277
aF1.4228996500809203
aF-0.7517325819833844
aF0.0
aF-1.07230215630045
aF1.3486176340282046
aF0.0
aF0.0
aF0.0
aF0.0
aF0.0
aF0.0
aF0.0
aF0.0
aF0.0
aF0.0
aF0.0
aF0.0
aF0.8085763523474445
aF0.01674347992854104
aF-0.793586744772367
aF1.185183542314574
aF-1.9032199553788984
aF0.0
aF-0.8647251527378775
aF3.0575496929839527
aF0.0
aF0.0
aF0.0
aF0.0
aF0.0
aF0.0
aF0.0
aF0.0
aF0.0
aF0.0
aF0.0
aF0.0
aF0.0
aF0.385
aF0.0
aF0.0
aF0.03
aF-0.03
aI0
tp102
a((lp103
F0.0
aF0.0
aF0.0
aF0.0
aF0.0
aF0.0
aF0.0
aF0.0
aF0.0
aF0.0
aF0.0
aF0.0
aF0.0
aF0.0
aF0.0
aF-0.16025015856005714
aF-0.9148161966878294
aF-1.1502814940605612
aF1.422903091623726
aF-0.7517444300478369
aF0.0
aF-1.0722995401173063
aF1.3486140498289556
aF0.0
aF0.0
aF0.0
aF0.0
aF0.0
aF0.0
aF0.0
aF0.0
aF0.0
aF0.0
aF0.0
aF0.0
aF0.8085763523474445
aF0.01674347992854104
aF-0.793586744772367
aF1.185183542314574
aF-1.9032199553788984
aF0.0
aF-0.8647251527378775
aF3.0575496929839527
aF0.0
aF0.0
aF0.0
aF0.0
aF0.0
aF0.0
aF0.0
aF0.0
aF0.0
aF0.0
aF0.0
aF0.0
aF0.0
aF0.385
aF0.0
aF0.0
aF0.03
aF-0.03
aI0
tp104
a((lp105
F0.0
aF0.0
aF0.0
aF0.0
aF0.0
aF0.0
aF0.0
aF0.0
aF0.0
aF0.0
aF0.0
aF0.0
aF0.0
aF0.0
aF0.0
aF-0.16025553469759962
aF-0.9148231464388762
aF-1.1502666805122272
aF1.4229026466318688
aF-0.7517479044712692
aF0.0
aF-1.0722917683080153
aF1.3486038034702137
aF0.0
aF0.0
aF0.0
aF0.0
aF0.0
aF0.0
aF0.0
aF0.0
aF0.0
aF0.0
aF0.0
aF0.0
aF0.8085763523474445
aF0.01674347992854104
aF-0.793586744772367
aF1.185183542314574
aF-1.9032199553788984
aF0.0
aF-0.8647251527378775
aF3.0575496929839527
aF0.0
aF0.0
aF0.0
aF0.0
aF0.0
aF0.0
aF0.0
aF0.0
aF0.0
aF0.0
aF0.0
aF0.0
aF0.0
aF0.385
aF0.0
aF0.0
aF0.03
aF-0.03
aI0
tp106
a((lp107
F0.0
aF0.0
aF0.0
aF0.0
aF0.0
aF0.0
aF0.0
aF0.0
aF0.0
aF0.0
aF0.0
aF0.0
aF0.0
aF0.0
aF0.0
aF-0.16026200108078553
aF-0.9148329349818117
aF-1.1502511231666173
aF1.422901970812652
aF-0.751757017676964
aF0.0
aF-1.0722850400939332
aF1.3485973298287517
aF0.0
aF0.0
aF0.0
aF0.0
aF0.0
aF0.0
aF0.0
aF0.0
aF0.0
aF0.0
aF0.0
aF0.0
aF0.8085763523474445
aF0.01674347992854104
aF-0.793586744772367
aF1.185183542314574
aF-1.9032199553788984
aF0.0
aF-0.8647251527378775
aF3.0575496929839527
aF0.0
aF0.0
aF0.0
aF0.0
aF0.0
aF0.0
aF0.0
aF0.0
aF0.0
aF0.0
aF0.0
aF0.0
aF0.0
aF0.385
aF0.0
aF0.0
aF0.03
aF-0.03
aI0
tp108
a((lp109
F0.0
aF0.0
aF0.0
aF0.0
aF0.0
aF0.0
aF0.0
aF0.0
aF0.0
aF0.0
aF0.0
aF0.0
aF0.0
aF0.0
aF0.0
aF-0.16011072461027573
aF-0.9146501304383918
aF-1.1505793885736637
aF1.422961726812556
aF-0.7515672076877653
aF0.0
aF-1.0724418276149208
aF1.3487072614602236
aF0.0
aF0.0
aF0.0
aF0.0
aF0.0
aF0.0
aF0.0
aF0.0
aF0.0
aF0.0
aF0.0
aF0.0
aF0.8085763523474445
aF0.01674347992854104
aF-0.793586744772367
aF1.185183542314574
aF-1.9032199553788984
aF0.0
aF-0.8647251527378775
aF3.0575496929839527
aF0.0
aF0.0
aF0.0
aF0.0
aF0.0
aF0.0
aF0.0
aF0.0
aF0.0
aF0.0
aF0.0
aF0.0
aF0.0
aF0.385
aF0.0
aF0.0
aF0.03
aF-0.03
aI0
tp110
a((lp111
F0.0
aF0.0
aF0.0
aF0.0
aF0.0
aF0.0
aF0.0
aF0.0
aF0.0
aF0.0
aF0.0
aF0.0
aF0.0
aF0.0
aF0.0
aF-0.16029979541768347
aF-0.9149057978562557
aF-1.1501466208979918
aF1.4229128885154032
aF-0.751817213070138
aF0.0
aF-1.0722438831998302
aF1.3485435831626627
aF0.0
aF0.0
aF0.0
aF0.0
aF0.0
aF0.0
aF0.0
aF0.0
aF0.0
aF0.0
aF0.0
aF0.0
aF0.8085763523474445
aF0.01674347992854104
aF-0.793586744772367
aF1.185183542314574
aF-1.9032199553788984
aF0.0
aF-0.8647251527378775
aF3.0575496929839527
aF0.0
aF0.0
aF0.0
aF0.0
aF0.0
aF0.0
aF0.0
aF0.0
aF0.0
aF0.0
aF0.0
aF0.0
aF0.0
aF0.385
aF0.0
aF0.0
aF0.03
aF-0.03
aI0
tp112
a((lp113
F0.0
aF0.0
aF0.0
aF0.0
aF0.0
aF0.0
aF0.0
aF0.0
aF0.0
aF0.0
aF0.0
aF0.0
aF0.0
aF0.0
aF0.0
aF-0.16030340336600973
aF-0.914912279205952
aF-1.1501371556214155
aF1.4229134457235268
aF-0.7518228699890241
aF0.0
aF-1.0722400956528413
aF1.3485391464358756
aF0.0
aF0.0
aF0.0
aF0.0
aF0.0
aF0.0
aF0.0
aF0.0
aF0.0
aF0.0
aF0.0
aF0.0
aF0.8085763523474445
aF0.01674347992854104
aF-0.793586744772367
aF1.185183542314574
aF-1.9032199553788984
aF0.0
aF-0.8647251527378775
aF3.0575496929839527
aF0.0
aF0.0
aF0.0
aF0.0
aF0.0
aF0.0
aF0.0
aF0.0
aF0.0
aF0.0
aF0.0
aF0.0
aF0.0
aF0.385
aF0.0
aF0.0
aF0.03
aF-0.03
aI0
tp114
a((lp115
F0.0
aF0.0
aF0.0
aF0.0
aF0.0
aF0.0
aF0.0
aF0.0
aF0.0
aF0.0
aF0.0
aF0.0
aF0.0
aF0.0
aF0.0
aF-0.1603472021458821
aF-0.9149932959490926
aF-1.1500188187947549
aF1.4229230904451855
aF-0.7518907908746466
aF0.0
aF-1.072192760181474
aF1.348479884082473
aF0.0
aF0.0
aF0.0
aF0.0
aF0.0
aF0.0
aF0.0
aF0.0
aF0.0
aF0.0
aF0.0
aF0.0
aF0.8085763523474445
aF0.01674347992854104
aF-0.793586744772367
aF1.185183542314574
aF-1.9032199553788984
aF0.0
aF-0.8647251527378775
aF3.0575496929839527
aF0.0
aF0.0
aF0.0
aF0.0
aF0.0
aF0.0
aF0.0
aF0.0
aF0.0
aF0.0
aF0.0
aF0.0
aF0.0
aF0.385
aF0.0
aF0.0
aF0.03
aF-0.03
aI0
tp116
a((lp117
F0.0
aF0.0
aF0.0
aF0.0
aF0.0
aF0.0
aF0.0
aF0.0
aF0.0
aF0.0
aF0.0
aF0.0
aF0.0
aF0.0
aF0.0
aF-0.1604010743910676
aF-0.9150943036947355
aF-1.1498725935059242
aF1.4229359380655902
aF-0.7519756170739695
aF0.0
aF-1.0721347034191513
aF1.3484066459804596
aF0.0
aF0.0
aF0.0
aF0.0
aF0.0
aF0.0
aF0.0
aF0.0
aF0.0
aF0.0
aF0.0
aF0.0
aF0.8085763523474445
aF0.01674347992854104
aF-0.793586744772367
aF1.185183542314574
aF-1.9032199553788984
aF0.0
aF-0.8647251527378775
aF3.0575496929839527
aF0.0
aF0.0
aF0.0
aF0.0
aF0.0
aF0.0
aF0.0
aF0.0
aF0.0
aF0.0
aF0.0
aF0.0
aF0.0
aF0.385
aF0.0
aF0.0
aF0.03
aF-0.03
aI0
tp118
a((lp119
F0.0
aF0.0
aF0.0
aF0.0
aF0.0
aF0.0
aF0.0
aF0.0
aF0.0
aF0.0
aF0.0
aF0.0
aF0.0
aF0.0
aF0.0
aF-0.16042315848641062
aF-0.9151352724680157
aF-1.1498127743331459
aF1.4229409535581923
aF-0.7520098449297127
aF0.0
aF-1.0721107790939268
aF1.3483765374071377
aF0.0
aF0.0
aF0.0
aF0.0
aF0.0
aF0.0
aF0.0
aF0.0
aF0.0
aF0.0
aF0.0
aF0.0
aF0.8085763523474445
aF0.01674347992854104
aF-0.793586744772367
aF1.185183542314574
aF-1.9032199553788984
aF0.0
aF-0.8647251527378775
aF3.0575496929839527
aF0.0
aF0.0
aF0.0
aF0.0
aF0.0
aF0.0
aF0.0
aF0.0
aF0.0
aF0.0
aF0.0
aF0.0
aF0.0
aF0.385
aF0.0
aF0.0
aF0.03
aF-0.03
aI0
tp120
a((lp121
F0.0
aF0.0
aF0.0
aF0.0
aF0.0
aF0.0
aF0.0
aF0.0
aF0.0
aF0.0
aF0.0
aF0.0
aF0.0
aF0.0
aF0.0
aF-0.1604266239766656
aF-0.9151421790367191
aF-1.1498029785375186
aF1.4229422605964015
aF-0.7520153664689598
aF0.0
aF-1.0721070140161009
aF1.348371285473433
aF0.0
aF0.0
aF0.0
aF0.0
aF0.0
aF0.0
aF0.0
aF0.0
aF0.0
aF0.0
aF0.0
aF0.0
aF0.8085763523474445
aF0.01674347992854104
aF-0.793586744772367
aF1.185183542314574
aF-1.9032199553788984
aF0.0
aF-0.8647251527378775
aF3.0575496929839527
aF0.0
aF0.0
aF0.0
aF0.0
aF0.0
aF0.0
aF0.0
aF0.0
aF0.0
aF0.0
aF0.0
aF0.0
aF0.0
aF0.385
aF0.0
aF0.0
aF0.03
aF-0.03
aI0
tp122
a((lp123
F0.0
aF0.0
aF0.0
aF0.0
aF0.0
aF0.0
aF0.0
aF0.0
aF0.0
aF0.0
aF0.0
aF0.0
aF0.0
aF0.0
aF0.0
aF-0.16042661958256668
aF-0.9151425963207196
aF-1.1498027363537648
aF1.4229425578854005
aF-0.7520156948204775
aF0.0
aF-1.0721070057828317
aF1.3483710584672408
aF0.0
aF0.0
aF0.0
aF0.0
aF0.0
aF0.0
aF0.0
aF0.0
aF0.0
aF0.0
aF0.0
aF0.0
aF0.8085763523474445
aF0.01674347992854104
aF-0.793586744772367
aF1.185183542314574
aF-1.9032199553788984
aF0.0
aF-0.8647251527378775
aF3.0575496929839527
aF0.0
aF0.0
aF0.0
aF0.0
aF0.0
aF0.0
aF0.0
aF0.0
aF0.0
aF0.0
aF0.0
aF0.0
aF0.0
aF0.385
aF0.0
aF0.0
aF0.03
aF-0.03
aI0
tp124
a((lp125
F0.0
aF0.0
aF0.0
aF0.0
aF0.0
aF0.0
aF0.0
aF0.0
aF0.0
aF0.0
aF0.0
aF0.0
aF0.0
aF0.0
aF0.0
aF-0.16046619026813355
aF-0.9152228490152828
aF-1.1496922833590906
aF1.4229571398434167
aF-0.7520832052140889
aF0.0
aF-1.0720656720401969
aF1.3483155637199669
aF0.0
aF0.0
aF0.0
aF0.0
aF0.0
aF0.0
aF0.0
aF0.0
aF0.0
aF0.0
aF0.0
aF0.0
aF0.8085763523474445
aF0.01674347992854104
aF-0.793586744772367
aF1.185183542314574
aF-1.9032199553788984
aF0.0
aF-0.8647251527378775
aF3.0575496929839527
aF0.0
aF0.0
aF0.0
aF0.0
aF0.0
aF0.0
aF0.0
aF0.0
aF0.0
aF0.0
aF0.0
aF0.0
aF0.0
aF0.385
aF0.0
aF0.0
aF0.03
aF-0.03
aI0
tp126
a((lp127
F0.0
aF0.0
aF0.0
aF0.0
aF0.0
aF0.0
aF0.0
aF0.0
aF0.0
aF0.0
aF0.0
aF0.0
aF0.0
aF0.0
aF0.0
aF-0.1605061813111455
aF-0.9152934020057908
aF-1.1495854143931987
aF1.4229632672651766
aF-0.752141621774689
aF0.0
aF-1.0720211859356221
aF1.348261322063369
aF0.0
aF0.0
aF0.0
aF0.0
aF0.0
aF0.0
aF0.0
aF0.0
aF0.0
aF0.0
aF0.0
aF0.0
aF0.8085763523474445
aF0.01674347992854104
aF-0.793586744772367
aF1.185183542314574
aF-1.9032199553788984
aF0.0
aF-0.8647251527378775
aF3.0575496929839527
aF0.0
aF0.0
aF0.0
aF0.0
aF0.0
aF0.0
aF0.0
aF0.0
aF0.0
aF0.0
aF0.0
aF0.0
aF0.0
aF0.385
aF0.0
aF0.0
aF0.03
aF-0.03
aI0
tp128
a((lp129
F0.0
aF0.0
aF0.0
aF0.0
aF0.0
aF0.0
aF0.0
aF0.0
aF0.0
aF0.0
aF0.0
aF0.0
aF0.0
aF0.0
aF0.0
aF-0.16062806760279136
aF-0.915518095303724
aF-1.1492571099319648
aF1.4229896621146412
aF-0.7523305620291235
aF0.0
aF-1.071889968594467
aF1.348097734380885
aF0.0
aF0.0
aF0.0
aF0.0
aF0.0
aF0.0
aF0.0
aF0.0
aF0.0
aF0.0
aF0.0
aF0.0
aF0.8085763523474445
aF0.01674347992854104
aF-0.793586744772367
aF1.185183542314574
aF-1.9032199553788984
aF0.0
aF-0.8647251527378775
aF3.0575496929839527
aF0.0
aF0.0
aF0.0
aF0.0
aF0.0
aF0.0
aF0.0
aF0.0
aF0.0
aF0.0
aF0.0
aF0.0
aF0.0
aF0.385
aF0.0
aF0.0
aF0.03
aF-0.03
aI0
tp130
a((lp131
F0.0
aF0.0
aF0.0
aF0.0
aF0.0
aF0.0
aF0.0
aF0.0
aF0.0
aF0.0
aF0.0
aF0.0
aF0.0
aF0.0
aF0.0
aF-0.16076264111785962
aF-0.9157723383798796
aF-1.1488916760443242
aF1.42302372415674
aF-0.7525447829119325
aF0.0
aF-1.071746183662593
aF1.3479157701486746
aF0.0
aF0.0
aF0.0
aF0.0
aF0.0
aF0.0
aF0.0
aF0.0
aF0.0
aF0.0
aF0.0
aF0.0
aF0.8085763523474445
aF0.01674347992854104
aF-0.793586744772367
aF1.185183542314574
aF-1.9032199553788984
aF0.0
aF-0.8647251527378775
aF3.0575496929839527
aF0.0
aF0.0
aF0.0
aF0.0
aF0.0
aF0.0
aF0.0
aF0.0
aF0.0
aF0.0
aF0.0
aF0.0
aF0.0
aF0.385
aF0.0
aF0.0
aF0.03
aF-0.03
aI0
tp132
a((lp133
F0.0
aF0.0
aF0.0
aF0.0
aF0.0
aF0.0
aF0.0
aF0.0
aF0.0
aF0.0
aF0.0
aF0.0
aF0.0
aF0.0
aF0.0
aF-0.16077776205667244
aF-0.9158009661062103
aF-1.1488498333196635
aF1.4230276956938643
aF-0.7525682249403942
aF0.0
aF-1.0717292625258956
aF1.3478941014192967
aF0.0
aF0.0
aF0.0
aF0.0
aF0.0
aF0.0
aF0.0
aF0.0
aF0.0
aF0.0
aF0.0
aF0.0
aF0.8085763523474445
aF0.01674347992854104
aF-0.793586744772367
aF1.185183542314574
aF-1.9032199553788984
aF0.0
aF-0.8647251527378775
aF3.0575496929839527
aF0.0
aF0.0
aF0.0
aF0.0
aF0.0
aF0.0
aF0.0
aF0.0
aF0.0
aF0.0
aF0.0
aF0.0
aF0.0
aF0.385
aF0.0
aF0.0
aF0.03
aF-0.03
aI0
tp134
a((lp135
F0.0
aF0.0
aF0.0
aF0.0
aF0.0
aF0.0
aF0.0
aF0.0
aF0.0
aF0.0
aF0.0
aF0.0
aF0.0
aF0.0
aF0.0
aF-0.16080489855731625
aF-0.915849707106136
aF-1.1487767594348912
aF1.4230335798243232
aF-0.7526077194488505
aF0.0
aF-1.0716998510372453
aF1.3478559241275831
aF0.0
aF0.0
aF0.0
aF0.0
aF0.0
aF0.0
aF0.0
aF0.0
aF0.0
aF0.0
aF0.0
aF0.0
aF0.8085763523474445
aF0.01674347992854104
aF-0.793586744772367
aF1.185183542314574
aF-1.9032199553788984
aF0.0
aF-0.8647251527378775
aF3.0575496929839527
aF0.0
aF0.0
aF0.0
aF0.0
aF0.0
aF0.0
aF0.0
aF0.0
aF0.0
aF0.0
aF0.0
aF0.0
aF0.0
aF0.385
aF0.0
aF0.0
aF0.03
aF-0.03
aI0
tp136
a((lp137
F0.0
aF0.0
aF0.0
aF0.0
aF0.0
aF0.0
aF0.0
aF0.0
aF0.0
aF0.0
aF0.0
aF0.0
aF0.0
aF0.0
aF0.0
aF-0.16082070783918054
aF-0.9158865319845068
aF-1.1487286346794865
aF1.4230431686695102
aF-0.7526374926827444
aF0.0
aF-1.0716822376237563
aF1.347829823816961
aF0.0
aF0.0
aF0.0
aF0.0
aF0.0
aF0.0
aF0.0
aF0.0
aF0.0
aF0.0
aF0.0
aF0.0
aF0.8085763523474445
aF0.01674347992854104
aF-0.793586744772367
aF1.185183542314574
aF-1.9032199553788984
aF0.0
aF-0.8647251527378775
aF3.0575496929839527
aF0.0
aF0.0
aF0.0
aF0.0
aF0.0
aF0.0
aF0.0
aF0.0
aF0.0
aF0.0
aF0.0
aF0.0
aF0.0
aF0.385
aF0.0
aF0.0
aF0.03
aF-0.03
aI0
tp138
a((lp139
F0.0
aF0.0
aF0.0
aF0.0
aF0.0
aF0.0
aF0.0
aF0.0
aF0.0
aF0.0
aF0.0
aF0.0
aF0.0
aF0.0
aF0.0
aF-0.16084967998098965
aF-0.9159327045567938
aF-1.1486551523403141
aF1.4230441794134403
aF-0.7526764526827694
aF0.0
aF-1.071651188240137
aF1.3477939571106474
aF0.0
aF0.0
aF0.0
aF0.0
aF0.0
aF0.0
aF0.0
aF0.0
aF0.0
aF0.0
aF0.0
aF0.0
aF0.8085763523474445
aF0.01674347992854104
aF-0.793586744772367
aF1.185183542314574
aF-1.9032199553788984
aF0.0
aF-0.8647251527378775
aF3.0575496929839527
aF0.0
aF0.0
aF0.0
aF0.0
aF0.0
aF0.0
aF0.0
aF0.0
aF0.0
aF0.0
aF0.0
aF0.0
aF0.0
aF0.385
aF0.0
aF0.0
aF0.03
aF-0.03
aI0
tp140
a((lp141
F0.0
aF0.0
aF0.0
aF0.0
aF0.0
aF0.0
aF0.0
aF0.0
aF0.0
aF0.0
aF0.0
aF0.0
aF0.0
aF0.0
aF0.0
aF-0.16086613837788896
aF-0.9159640136841639
aF-1.1486108557849752
aF1.4230481277692169
aF-0.7527036516937351
aF0.0
aF-1.0716338842456892
aF1.3477730150934297
aF0.0
aF0.0
aF0.0
aF0.0
aF0.0
aF0.0
aF0.0
aF0.0
aF0.0
aF0.0
aF0.0
aF0.0
aF0.8085763523474445
aF0.01674347992854104
aF-0.793586744772367
aF1.185183542314574
aF-1.9032199553788984
aF0.0
aF-0.8647251527378775
aF3.0575496929839527
aF0.0
aF0.0
aF0.0
aF0.0
aF0.0
aF0.0
aF0.0
aF0.0
aF0.0
aF0.0
aF0.0
aF0.0
aF0.0
aF0.385
aF0.0
aF0.0
aF0.03
aF-0.03
aI0
tp142
a((lp143
F0.0
aF0.0
aF0.0
aF0.0
aF0.0
aF0.0
aF0.0
aF0.0
aF0.0
aF0.0
aF0.0
aF0.0
aF0.0
aF0.0
aF0.0
aF-0.16086226822397778
aF-0.915959572324318
aF-1.1486185503598016
aF1.4230497862753564
aF-0.7526984398017027
aF0.0
aF-1.0716372187101106
aF1.3477746139010423
aF0.0
aF0.0
aF0.0
aF0.0
aF0.0
aF0.0
aF0.0
aF0.0
aF0.0
aF0.0
aF0.0
aF0.0
aF0.8085763523474445
aF0.01674347992854104
aF-0.793586744772367
aF1.185183542314574
aF-1.9032199553788984
aF0.0
aF-0.8647251527378775
aF3.0575496929839527
aF0.0
aF0.0
aF0.0
aF0.0
aF0.0
aF0.0
aF0.0
aF0.0
aF0.0
aF0.0
aF0.0
aF0.0
aF0.0
aF0.385
aF0.0
aF0.0
aF0.03
aF-0.03
aI0
tp144
a((lp145
F0.0
aF0.0
aF0.0
aF0.0
aF0.0
aF0.0
aF0.0
aF0.0
aF0.0
aF0.0
aF0.0
aF0.0
aF0.0
aF0.0
aF0.0
aF-0.16075884277897978
aF-0.9158798030156734
aF-1.1488061201268385
aF1.423133291188528
aF-0.752589956997957
aF0.0
aF-1.0717415838359394
aF1.347806373408984
aF0.0
aF0.0
aF0.0
aF0.0
aF0.0
aF0.0
aF0.0
aF0.0
aF0.0
aF0.0
aF0.0
aF0.0
aF0.8085763523474445
aF0.01674347992854104
aF-0.793586744772367
aF1.185183542314574
aF-1.9032199553788984
aF0.0
aF-0.8647251527378775
aF3.0575496929839527
aF0.0
aF0.0
aF0.0
aF0.0
aF0.0
aF0.0
aF0.0
aF0.0
aF0.0
aF0.0
aF0.0
aF0.0
aF0.0
aF0.385
aF0.0
aF0.0
aF0.03
aF-0.03
aI0
tp146
a((lp147
F0.0
aF0.0
aF0.0
aF0.0
aF0.0
aF0.0
aF0.0
aF0.0
aF0.0
aF0.0
aF0.0
aF0.0
aF0.0
aF0.0
aF0.0
aF-0.16096635736434975
aF-0.9161493554935387
aF-1.1483399369993128
aF1.4230714806563454
aF-0.7528581388845269
aF0.0
aF-1.0715259845722136
aF1.347636353069437
aF0.0
aF0.0
aF0.0
aF0.0
aF0.0
aF0.0
aF0.0
aF0.0
aF0.0
aF0.0
aF0.0
aF0.0
aF0.8085763523474445
aF0.01674347992854104
aF-0.793586744772367
aF1.185183542314574
aF-1.9032199553788984
aF0.0
aF-0.8647251527378775
aF3.0575496929839527
aF0.0
aF0.0
aF0.0
aF0.0
aF0.0
aF0.0
aF0.0
aF0.0
aF0.0
aF0.0
aF0.0
aF0.0
aF0.0
aF0.385
aF0.0
aF0.0
aF0.03
aF-0.03
aI0
tp148
a((lp149
F0.0
aF0.0
aF0.0
aF0.0
aF0.0
aF0.0
aF0.0
aF0.0
aF0.0
aF0.0
aF0.0
aF0.0
aF0.0
aF0.0
aF0.0
aF-0.16098469030555623
aF-0.9161813261555897
aF-1.1482924233584137
aF1.4230738558089295
aF-0.7528859385411263
aF0.0
aF-1.0715068651534703
aF1.3476139643473695
aF0.0
aF0.0
aF0.0
aF0.0
aF0.0
aF0.0
aF0.0
aF0.0
aF0.0
aF0.0
aF0.0
aF0.0
aF0.8085763523474445
aF0.01674347992854104
aF-0.793586744772367
aF1.185183542314574
aF-1.9032199553788984
aF0.0
aF-0.8647251527378775
aF3.0575496929839527
aF0.0
aF0.0
aF0.0
aF0.0
aF0.0
aF0.0
aF0.0
aF0.0
aF0.0
aF0.0
aF0.0
aF0.0
aF0.0
aF0.385
aF0.0
aF0.0
aF0.03
aF-0.03
aI0
tp150
a((lp151
F0.0
aF0.0
aF0.0
aF0.0
aF0.0
aF0.0
aF0.0
aF0.0
aF0.0
aF0.0
aF0.0
aF0.0
aF0.0
aF0.0
aF0.0
aF-0.16101679006786843
aF-0.9162485768455833
aF-1.1481992528253213
aF1.4230882057091234
aF-0.7529396577746975
aF0.0
aF-1.0714712831186908
aF1.34756328586644
aF0.0
aF0.0
aF0.0
aF0.0
aF0.0
aF0.0
aF0.0
aF0.0
aF0.0
aF0.0
aF0.0
aF0.0
aF0.8085763523474445
aF0.01674347992854104
aF-0.793586744772367
aF1.185183542314574
aF-1.9032199553788984
aF0.0
aF-0.8647251527378775
aF3.0575496929839527
aF0.0
aF0.0
aF0.0
aF0.0
aF0.0
aF0.0
aF0.0
aF0.0
aF0.0
aF0.0
aF0.0
aF0.0
aF0.0
aF0.385
aF0.0
aF0.0
aF0.03
aF-0.03
aI0
tp152
a((lp153
F0.0
aF0.0
aF0.0
aF0.0
aF0.0
aF0.0
aF0.0
aF0.0
aF0.0
aF0.0
aF0.0
aF0.0
aF0.0
aF0.0
aF0.0
aF-0.16105474260688607
aF-0.9163219990581051
aF-1.1480947170106481
aF1.4230989645674306
aF-0.7530013584077794
aF0.0
aF-1.071430067462052
aF1.3475109871109263
aF0.0
aF0.0
aF0.0
aF0.0
aF0.0
aF0.0
aF0.0
aF0.0
aF0.0
aF0.0
aF0.0
aF0.0
aF0.8085763523474445
aF0.01674347992854104
aF-0.793586744772367
aF1.185183542314574
aF-1.9032199553788984
aF0.0
aF-0.8647251527378775
aF3.0575496929839527
aF0.0
aF0.0
aF0.0
aF0.0
aF0.0
aF0.0
aF0.0
aF0.0
aF0.0
aF0.0
aF0.0
aF0.0
aF0.0
aF0.385
aF0.0
aF0.0
aF0.03
aF-0.03
aI0
tp154
a((lp155
F0.0
aF0.0
aF0.0
aF0.0
aF0.0
aF0.0
aF0.0
aF0.0
aF0.0
aF0.0
aF0.0
aF0.0
aF0.0
aF0.0
aF0.0
aF-0.1617281333642818
aF-0.9176598435581729
aF-1.1462022530492848
aF1.4233466919590734
aF-0.7540855950298767
aF0.0
aF-1.0707026117339895
aF1.3465100148118574
aF0.0
aF0.0
aF0.0
aF0.0
aF0.0
aF0.0
aF0.0
aF0.0
aF0.0
aF0.0
aF0.0
aF0.0
aF0.8085763523474445
aF0.01674347992854104
aF-0.793586744772367
aF1.185183542314574
aF-1.9032199553788984
aF0.0
aF-0.8647251527378775
aF3.0575496929839527
aF0.0
aF0.0
aF0.0
aF0.0
aF0.0
aF0.0
aF0.0
aF0.0
aF0.0
aF0.0
aF0.0
aF0.0
aF0.0
aF0.385
aF0.0
aF0.0
aF0.03
aF-0.03
aI0
tp156
a((lp157
F0.0
aF0.0
aF0.0
aF0.0
aF0.0
aF0.0
aF0.0
aF0.0
aF0.0
aF0.0
aF0.0
aF0.0
aF0.0
aF0.0
aF0.0
aF-0.16189416212407226
aF-0.9179849799902428
aF-1.145739726827759
aF1.4234021194184363
aF-0.7543519888768452
aF0.0
aF-1.070522024552498
aF1.3462700315320746
aF0.0
aF0.0
aF0.0
aF0.0
aF0.0
aF0.0
aF0.0
aF0.0
aF0.0
aF0.0
aF0.0
aF0.0
aF0.8085763523474445
aF0.01674347992854104
aF-0.793586744772367
aF1.185183542314574
aF-1.9032199553788984
aF0.0
aF-0.8647251527378775
aF3.0575496929839527
aF0.0
aF0.0
aF0.0
aF0.0
aF0.0
aF0.0
aF0.0
aF0.0
aF0.0
aF0.0
aF0.0
aF0.0
aF0.0
aF0.385
aF0.0
aF0.0
aF0.03
aF-0.03
aI0
tp158
a((lp159
F0.0
aF0.0
aF0.0
aF0.0
aF0.0
aF0.0
aF0.0
aF0.0
aF0.0
aF0.0
aF0.0
aF0.0
aF0.0
aF0.0
aF0.0
aF-0.1620779892396928
aF-0.9183084077868595
aF-1.1452566092595637
aF1.4234337258046001
aF-0.7546253673189418
aF0.0
aF-1.0703276725459987
aF1.3460333000590858
aF0.0
aF0.0
aF0.0
aF0.0
aF0.0
aF0.0
aF0.0
aF0.0
aF0.0
aF0.0
aF0.0
aF0.0
aF0.8085763523474445
aF0.01674347992854104
aF-0.793586744772367
aF1.185183542314574
aF-1.9032199553788984
aF0.0
aF-0.8647251527378775
aF3.0575496929839527
aF0.0
aF0.0
aF0.0
aF0.0
aF0.0
aF0.0
aF0.0
aF0.0
aF0.0
aF0.0
aF0.0
aF0.0
aF0.0
aF0.385
aF0.0
aF0.0
aF0.03
aF-0.03
aI0
tp160
a((lp161
F0.0
aF0.0
aF0.0
aF0.0
aF0.0
aF0.0
aF0.0
aF0.0
aF0.0
aF0.0
aF0.0
aF0.0
aF0.0
aF0.0
aF0.0
aF-0.162843887365386
aF-0.9197066114201967
aF-1.143205183490354
aF1.4236105384241358
aF-0.7557943181237012
aF0.0
aF-1.069511929767346
aF1.3450090333913403
aF0.0
aF0.0
aF0.0
aF0.0
aF0.0
aF0.0
aF0.0
aF0.0
aF0.0
aF0.0
aF0.0
aF0.0
aF0.8085763523474445
aF0.01674347992854104
aF-0.793586744772367
aF1.185183542314574
aF-1.9032199553788984
aF0.0
aF-0.8647251527378775
aF3.0575496929839527
aF0.0
aF0.0
aF0.0
aF0.0
aF0.0
aF0.0
aF0.0
aF0.0
aF0.0
aF0.0
aF0.0
aF0.0
aF0.0
aF0.385
aF0.0
aF0.0
aF0.03
aF-0.03
aI0
tp162
a((lp163
F0.0
aF0.0
aF0.0
aF0.0
aF0.0
aF0.0
aF0.0
aF0.0
aF0.0
aF0.0
aF0.0
aF0.0
aF0.0
aF0.0
aF0.0
aF-0.16340119035551107
aF-0.920719512318479
aF-1.141718672557431
aF1.4237387907404513
aF-0.7566435621185345
aF0.0
aF-1.0689220246703253
aF1.3442712142215534
aF0.0
aF0.0
aF0.0
aF0.0
aF0.0
aF0.0
aF0.0
aF0.0
aF0.0
aF0.0
aF0.0
aF0.0
aF0.8085763523474445
aF0.01674347992854104
aF-0.793586744772367
aF1.185183542314574
aF-1.9032199553788984
aF0.0
aF-0.8647251527378775
aF3.0575496929839527
aF0.0
aF0.0
aF0.0
aF0.0
aF0.0
aF0.0
aF0.0
aF0.0
aF0.0
aF0.0
aF0.0
aF0.0
aF0.0
aF0.385
aF0.0
aF0.0
aF0.03
aF-0.03
aI0
tp164
a((lp165
F0.0
aF0.0
aF0.0
aF0.0
aF0.0
aF0.0
aF0.0
aF0.0
aF0.0
aF0.0
aF0.0
aF0.0
aF0.0
aF0.0
aF0.0
aF-0.1635021681106956
aF-0.9209234376882839
aF-1.141433799054656
aF1.4237795155106872
aF-0.7568097192008013
aF0.0
aF-1.0688129890529126
aF1.3441223496271322
aF0.0
aF0.0
aF0.0
aF0.0
aF0.0
aF0.0
aF0.0
aF0.0
aF0.0
aF0.0
aF0.0
aF0.0
aF0.8085763523474445
aF0.01674347992854104
aF-0.793586744772367
aF1.185183542314574
aF-1.9032199553788984
aF0.0
aF-0.8647251527378775
aF3.0575496929839527
aF0.0
aF0.0
aF0.0
aF0.0
aF0.0
aF0.0
aF0.0
aF0.0
aF0.0
aF0.0
aF0.0
aF0.0
aF0.0
aF0.385
aF0.0
aF0.0
aF0.03
aF-0.03
aI0
tp166
a((lp167
F0.0
aF0.0
aF0.0
aF0.0
aF0.0
aF0.0
aF0.0
aF0.0
aF0.0
aF0.0
aF0.0
aF0.0
aF0.0
aF0.0
aF0.0
aF-0.1637031097145714
aF-0.9212830436898831
aF-1.1409044291266146
aF1.42382365015391
aF-0.7571127583475581
aF0.0
aF-1.0686050136727747
aF1.3438622969320253
aF0.0
aF0.0
aF0.0
aF0.0
aF0.0
aF0.0
aF0.0
aF0.0
aF0.0
aF0.0
aF0.0
aF0.0
aF0.8085763523474445
aF0.01674347992854104
aF-0.793586744772367
aF1.185183542314574
aF-1.9032199553788984
aF0.0
aF-0.8647251527378775
aF3.0575496929839527
aF0.0
aF0.0
aF0.0
aF0.0
aF0.0
aF0.0
aF0.0
aF0.0
aF0.0
aF0.0
aF0.0
aF0.0
aF0.0
aF0.385
aF0.0
aF0.0
aF0.03
aF-0.03
aI0
tp168
a((lp169
F0.0
aF0.0
aF0.0
aF0.0
aF0.0
aF0.0
aF0.0
aF0.0
aF0.0
aF0.0
aF0.0
aF0.0
aF0.0
aF0.0
aF0.0
aF-0.16381875313293034
aF-0.9214985890750864
aF-1.1405946278287236
aF1.4238555162910722
aF-0.7572942888596145
aF0.0
aF-1.0684855038788783
aF1.3437089783918668
aF0.0
aF0.0
aF0.0
aF0.0
aF0.0
aF0.0
aF0.0
aF0.0
aF0.0
aF0.0
aF0.0
aF0.0
aF0.8085763523474445
aF0.01674347992854104
aF-0.793586744772367
aF1.185183542314574
aF-1.9032199553788984
aF0.0
aF-0.8647251527378775
aF3.0575496929839527
aF0.0
aF0.0
aF0.0
aF0.0
aF0.0
aF0.0
aF0.0
aF0.0
aF0.0
aF0.0
aF0.0
aF0.0
aF0.0
aF0.385
aF0.0
aF0.0
aF0.03
aF-0.03
aI0
tp170
a((lp171
F0.0
aF0.0
aF0.0
aF0.0
aF0.0
aF0.0
aF0.0
aF0.0
aF0.0
aF0.0
aF0.0
aF0.0
aF0.0
aF0.0
aF0.0
aF-0.16388618730725316
aF-0.9216335169256218
aF-1.1404006192422755
aF1.4238838148070645
aF-0.7573992067577365
aF0.0
aF-1.068408606464596
aF1.3436023333748282
aF0.0
aF0.0
aF0.0
aF0.0
aF0.0
aF0.0
aF0.0
aF0.0
aF0.0
aF0.0
aF0.0
aF0.0
aF0.8085763523474445
aF0.01674347992854104
aF-0.793586744772367
aF1.185183542314574
aF-1.9032199553788984
aF0.0
aF-0.8647251527378775
aF3.0575496929839527
aF0.0
aF0.0
aF0.0
aF0.0
aF0.0
aF0.0
aF0.0
aF0.0
aF0.0
aF0.0
aF0.0
aF0.0
aF0.0
aF0.385
aF0.0
aF0.0
aF0.03
aF-0.03
aI0
tp172
a((lp173
F0.0
aF0.0
aF0.0
aF0.0
aF0.0
aF0.0
aF0.0
aF0.0
aF0.0
aF0.0
aF0.0
aF0.0
aF0.0
aF0.0
aF0.0
aF-0.16439941145738104
aF-0.9225558096429967
aF-1.1390431646105448
aF1.4240007790409555
aF-0.7581741585163063
aF0.0
aF-1.0678727097562533
aF1.3429333706234747
aF0.0
aF0.0
aF0.0
aF0.0
aF0.0
aF0.0
aF0.0
aF0.0
aF0.0
aF0.0
aF0.0
aF0.0
aF0.8085763523474445
aF0.01674347992854104
aF-0.793586744772367
aF1.185183542314574
aF-1.9032199553788984
aF0.0
aF-0.8647251527378775
aF3.0575496929839527
aF0.0
aF0.0
aF0.0
aF0.0
aF0.0
aF0.0
aF0.0
aF0.0
aF0.0
aF0.0
aF0.0
aF0.0
aF0.0
aF0.385
aF0.0
aF0.0
aF0.03
aF-0.03
aI0
tp174
a((lp175
F0.0
aF0.0
aF0.0
aF0.0
aF0.0
aF0.0
aF0.0
aF0.0
aF0.0
aF0.0
aF0.0
aF0.0
aF0.0
aF0.0
aF0.0
aF-0.1644479395000979
aF-0.9226766499329451
aF-1.138887982527348
aF1.424042335932031
aF-0.7582649677712351
aF0.0
aF-1.067818734352472
aF1.3428408745563278
aF0.0
aF0.0
aF0.0
aF0.0
aF0.0
aF0.0
aF0.0
aF0.0
aF0.0
aF0.0
aF0.0
aF0.0
aF0.8085763523474445
aF0.01674347992854104
aF-0.793586744772367
aF1.185183542314574
aF-1.9032199553788984
aF0.0
aF-0.8647251527378775
aF3.0575496929839527
aF0.0
aF0.0
aF0.0
aF0.0
aF0.0
aF0.0
aF0.0
aF0.0
aF0.0
aF0.0
aF0.0
aF0.0
aF0.0
aF0.385
aF0.0
aF0.0
aF0.03
aF-0.03
aI0
tp176
a((lp177
F0.0
aF0.0
aF0.0
aF0.0
aF0.0
aF0.0
aF0.0
aF0.0
aF0.0
aF0.0
aF0.0
aF0.0
aF0.0
aF0.0
aF0.0
aF-0.16471371923450445
aF-0.9230971791131897
aF-1.1382293087508826
aF1.4240512450138827
aF-0.7586357974823141
aF0.0
aF-1.0675443077209874
aF1.3425426650547236
aF0.0
aF0.0
aF0.0
aF0.0
aF0.0
aF0.0
aF0.0
aF0.0
aF0.0
aF0.0
aF0.0
aF0.0
aF0.8085763523474445
aF0.01674347992854104
aF-0.793586744772367
aF1.185183542314574
aF-1.9032199553788984
aF0.0
aF-0.8647251527378775
aF3.0575496929839527
aF0.0
aF0.0
aF0.0
aF0.0
aF0.0
aF0.0
aF0.0
aF0.0
aF0.0
aF0.0
aF0.0
aF0.0
aF0.0
aF0.385
aF0.0
aF0.0
aF0.03
aF-0.03
aI0
tp178
a((lp179
F0.0
aF0.0
aF0.0
aF0.0
aF0.0
aF0.0
aF0.0
aF0.0
aF0.0
aF0.0
aF0.0
aF0.0
aF0.0
aF0.0
aF0.0
aF-0.16477712229015543
aF-0.9232102166952645
aF-1.1380617047969714
aF1.4240645200403261
aF-0.7587310621816106
aF0.0
aF-1.0674768612800973
aF1.342460631819124
aF0.0
aF0.0
aF0.0
aF0.0
aF0.0
aF0.0
aF0.0
aF0.0
aF0.0
aF0.0
aF0.0
aF0.0
aF0.8085763523474445
aF0.01674347992854104
aF-0.793586744772367
aF1.185183542314574
aF-1.9032199553788984
aF0.0
aF-0.8647251527378775
aF3.0575496929839527
aF0.0
aF0.0
aF0.0
aF0.0
aF0.0
aF0.0
aF0.0
aF0.0
aF0.0
aF0.0
aF0.0
aF0.0
aF0.0
aF0.385
aF0.0
aF0.0
aF0.03
aF-0.03
aI0
tp180
a((lp181
F0.0
aF0.0
aF0.0
aF0.0
aF0.0
aF0.0
aF0.0
aF0.0
aF0.0
aF0.0
aF0.0
aF0.0
aF0.0
aF0.0
aF0.0
aF-0.16472005216022317
aF-0.9231987285065054
aF-1.138138667634866
aF1.424138107395303
aF-0.7586885893208458
aF0.0
aF-1.0675297427540016
aF1.3424514079140324
aF0.0
aF0.0
aF0.0
aF0.0
aF0.0
aF0.0
aF0.0
aF0.0
aF0.0
aF0.0
aF0.0
aF0.0
aF0.8085763523474445
aF0.01674347992854104
aF-0.793586744772367
aF1.185183542314574
aF-1.9032199553788984
aF0.0
aF-0.8647251527378775
aF3.0575496929839527
aF0.0
aF0.0
aF0.0
aF0.0
aF0.0
aF0.0
aF0.0
aF0.0
aF0.0
aF0.0
aF0.0
aF0.0
aF0.0
aF0.385
aF0.0
aF0.0
aF0.03
aF-0.03
aI0
tp182
a((lp183
F0.0
aF0.0
aF0.0
aF0.0
aF0.0
aF0.0
aF0.0
aF0.0
aF0.0
aF0.0
aF0.0
aF0.0
aF0.0
aF0.0
aF0.0
aF-0.16474795876371975
aF-0.9232513104621987
aF-1.1380610257397705
aF1.4241459739154496
aF-0.7587308068840289
aF0.0
aF-1.067497284841406
aF1.3424103084817987
aF0.0
aF0.0
aF0.0
aF0.0
aF0.0
aF0.0
aF0.0
aF0.0
aF0.0
aF0.0
aF0.0
aF0.0
aF0.8085763523474445
aF0.01674347992854104
aF-0.793586744772367
aF1.185183542314574
aF-1.9032199553788984
aF0.0
aF-0.8647251527378775
aF3.0575496929839527
aF0.0
aF0.0
aF0.0
aF0.0
aF0.0
aF0.0
aF0.0
aF0.0
aF0.0
aF0.0
aF0.0
aF0.0
aF0.0
aF0.385
aF0.0
aF0.0
aF0.03
aF-0.03
aI0
tp184
a((lp185
F0.0
aF0.0
aF0.0
aF0.0
aF0.0
aF0.0
aF0.0
aF0.0
aF0.0
aF0.0
aF0.0
aF0.0
aF0.0
aF0.0
aF0.0
aF-0.1647619984059498
aF-0.9232743057305937
aF-1.1380246798630256
aF1.4241471405910555
aF-0.7587498483882441
aF0.0
aF-1.0674814104610317
aF1.3423922224091882
aF0.0
aF0.0
aF0.0
aF0.0
aF0.0
aF0.0
aF0.0
aF0.0
aF0.0
aF0.0
aF0.0
aF0.0
aF0.8085763523474445
aF0.01674347992854104
aF-0.793586744772367
aF1.185183542314574
aF-1.9032199553788984
aF0.0
aF-0.8647251527378775
aF3.0575496929839527
aF0.0
aF0.0
aF0.0
aF0.0
aF0.0
aF0.0
aF0.0
aF0.0
aF0.0
aF0.0
aF0.0
aF0.0
aF0.0
aF0.385
aF0.0
aF0.0
aF0.03
aF-0.03
aI0
tp186
a((lp187
F0.0
aF0.0
aF0.0
aF0.0
aF0.0
aF0.0
aF0.0
aF0.0
aF0.0
aF0.0
aF0.0
aF0.0
aF0.0
aF0.0
aF0.0
aF-0.16529542446468165
aF-0.9242450822066028
aF-1.136596327887714
aF1.424288291795485
aF-0.7595508112997909
aF0.0
aF-1.0669167595716222
aF1.3416712459893638
aF0.0
aF0.0
aF0.0
aF0.0
aF0.0
aF0.0
aF0.0
aF0.0
aF0.0
aF0.0
aF0.0
aF0.0
aF0.8085763523474445
aF0.01674347992854104
aF-0.793586744772367
aF1.185183542314574
aF-1.9032199553788984
aF0.0
aF-0.8647251527378775
aF3.0575496929839527
aF0.0
aF0.0
aF0.0
aF0.0
aF0.0
aF0.0
aF0.0
aF0.0
aF0.0
aF0.0
aF0.0
aF0.0
aF0.0
aF0.385
aF0.0
aF0.0
aF0.03
aF-0.03
aI0
tp188
a((lp189
F0.0
aF0.0
aF0.0
aF0.0
aF0.0
aF0.0
aF0.0
aF0.0
aF0.0
aF0.0
aF0.0
aF0.0
aF0.0
aF0.0
aF0.0
aF-0.16580168653885802
aF-0.9251010489574454
aF-1.1352979335500788
aF1.4243631110189277
aF-0.7602818936167082
aF0.0
aF-1.0663919478648274
aF1.3410524716359447
aF0.0
aF0.0
aF0.0
aF0.0
aF0.0
aF0.0
aF0.0
aF0.0
aF0.0
aF0.0
aF0.0
aF0.0
aF0.8085763523474445
aF0.01674347992854104
aF-0.793586744772367
aF1.185183542314574
aF-1.9032199553788984
aF0.0
aF-0.8647251527378775
aF3.0575496929839527
aF0.0
aF0.0
aF0.0
aF0.0
aF0.0
aF0.0
aF0.0
aF0.0
aF0.0
aF0.0
aF0.0
aF0.0
aF0.0
aF0.385
aF0.0
aF0.0
aF0.03
aF-0.03
aI0
tp190
a((lp191
F0.0
aF0.0
aF0.0
aF0.0
aF0.0
aF0.0
aF0.0
aF0.0
aF0.0
aF0.0
aF0.0
aF0.0
aF0.0
aF0.0
aF0.0
aF-0.16631356212974446
aF-0.9260131537839408
aF-1.133944706155803
aF1.424488367301566
aF-0.7610391110453898
aF0.0
aF-1.0658568677635862
aF1.3403786989209867
aF0.0
aF0.0
aF0.0
aF0.0
aF0.0
aF0.0
aF0.0
aF0.0
aF0.0
aF0.0
aF0.0
aF0.0
aF0.8085763523474445
aF0.01674347992854104
aF-0.793586744772367
aF1.185183542314574
aF-1.9032199553788984
aF0.0
aF-0.8647251527378775
aF3.0575496929839527
aF0.0
aF0.0
aF0.0
aF0.0
aF0.0
aF0.0
aF0.0
aF0.0
aF0.0
aF0.0
aF0.0
aF0.0
aF0.0
aF0.385
aF0.0
aF0.0
aF0.03
aF-0.03
aI0
tp192
a((lp193
F0.0
aF0.0
aF0.0
aF0.0
aF0.0
aF0.0
aF0.0
aF0.0
aF0.0
aF0.0
aF0.0
aF0.0
aF0.0
aF0.0
aF0.0
aF-0.16643229570677284
aF-0.9262042078163114
aF-1.1336501669864136
aF1.4244968966334142
aF-0.7612075890451341
aF0.0
aF-1.0657364528677635
aF1.3402458364055236
aF0.0
aF0.0
aF0.0
aF0.0
aF0.0
aF0.0
aF0.0
aF0.0
aF0.0
aF0.0
aF0.0
aF0.0
aF0.8085763523474445
aF0.01674347992854104
aF-0.793586744772367
aF1.185183542314574
aF-1.9032199553788984
aF0.0
aF-0.8647251527378775
aF3.0575496929839527
aF0.0
aF0.0
aF0.0
aF0.0
aF0.0
aF0.0
aF0.0
aF0.0
aF0.0
aF0.0
aF0.0
aF0.0
aF0.0
aF0.385
aF0.0
aF0.0
aF0.03
aF-0.03
aI0
tp194
a((lp195
F0.0
aF0.0
aF0.0
aF0.0
aF0.0
aF0.0
aF0.0
aF0.0
aF0.0
aF0.0
aF0.0
aF0.0
aF0.0
aF0.0
aF0.0
aF-0.1664143198485103
aF-0.9261984167249567
aF-1.1336731844778702
aF1.4245186151890599
aF-0.7611904557611583
aF0.0
aF-1.065750236051147
aF1.340240135989074
aF0.0
aF0.0
aF0.0
aF0.0
aF0.0
aF0.0
aF0.0
aF0.0
aF0.0
aF0.0
aF0.0
aF0.0
aF0.8085763523474445
aF0.01674347992854104
aF-0.793586744772367
aF1.185183542314574
aF-1.9032199553788984
aF0.0
aF-0.8647251527378775
aF3.0575496929839527
aF0.0
aF0.0
aF0.0
aF0.0
aF0.0
aF0.0
aF0.0
aF0.0
aF0.0
aF0.0
aF0.0
aF0.0
aF0.0
aF0.385
aF0.0
aF0.0
aF0.03
aF-0.03
aI0
tp196
a((lp197
F0.0
aF0.0
aF0.0
aF0.0
aF0.0
aF0.0
aF0.0
aF0.0
aF0.0
aF0.0
aF0.0
aF0.0
aF0.0
aF0.0
aF0.0
aF-0.16647637503223064
aF-0.926281991248447
aF-1.1335322281145088
aF1.4245094553838769
aF-0.7612695435640532
aF0.0
aF-1.0656901761356752
aF1.3401843825654083
aF0.0
aF0.0
aF0.0
aF0.0
aF0.0
aF0.0
aF0.0
aF0.0
aF0.0
aF0.0
aF0.0
aF0.0
aF0.8085763523474445
aF0.01674347992854104
aF-0.793586744772367
aF1.185183542314574
aF-1.9032199553788984
aF0.0
aF-0.8647251527378775
aF3.0575496929839527
aF0.0
aF0.0
aF0.0
aF0.0
aF0.0
aF0.0
aF0.0
aF0.0
aF0.0
aF0.0
aF0.0
aF0.0
aF0.0
aF0.385
aF0.0
aF0.0
aF0.03
aF-0.03
aI0
tp198
a((lp199
F0.0
aF0.0
aF0.0
aF0.0
aF0.0
aF0.0
aF0.0
aF0.0
aF0.0
aF0.0
aF0.0
aF0.0
aF0.0
aF0.0
aF0.0
aF-0.16698723191843168
aF-0.9272270284429655
aF-1.1321567243589516
aF1.4246693226609983
aF-0.7620436572647931
aF0.0
aF-1.0651552621475502
aF1.3394848293436052
aF0.0
aF0.0
aF0.0
aF0.0
aF0.0
aF0.0
aF0.0
aF0.0
aF0.0
aF0.0
aF0.0
aF0.0
aF0.8085763523474445
aF0.01674347992854104
aF-0.793586744772367
aF1.185183542314574
aF-1.9032199553788984
aF0.0
aF-0.8647251527378775
aF3.0575496929839527
aF0.0
aF0.0
aF0.0
aF0.0
aF0.0
aF0.0
aF0.0
aF0.0
aF0.0
aF0.0
aF0.0
aF0.0
aF0.0
aF0.385
aF0.0
aF0.0
aF0.03
aF-0.03
aI0
tp200
a.