(lp0
((lp1
F0.0
aF0.0
aF0.0
aF0.0
aF0.0
aF0.0
aF0.0
aF0.0
aF0.0
aF0.0
aF0.0
aF0.0
aF0.0
aF0.0
aF0.0
aF1.148978314440936
aF1.047
aF-1.0114785991794601
aF2.325153695612872
aF0.8342724373770942
aF0.0
aF-1.0445588164990098
aF2.0509619230171485
aF0.0
aF0.0
aF0.0
aF0.0
aF0.0
aF0.0
aF0.0
aF0.0
aF0.0
aF0.0
aF0.0
aF0.0
aF0.403802537119816
aF-0.215596637181731
aF-0.12972860368496675
aF1.1583042209848544
aF0.21344731848546475
aF0.0
aF0.6405431160080868
aF0.7774204471609681
aF0.0
aF0.0
aF0.0
aF0.0
aF0.0
aF0.0
aF0.0
aF0.0
aF0.0
aF0.0
aF0.0
aF0.0
aF0.0
aF0.0
aF0.0
aF0.0
aF0.03
aF-0.03
aI0
tp2
a.