(lp0
((lp1
F0.0
aF0.0
aF0.0
aF0.0
aF0.0
aF0.0
aF0.0
aF0.0
aF0.0
aF0.0
aF0.0
aF0.0
aF0.0
aF0.0
aF0.0
aF0.4479243577848678
aF-0.8297256950578424
aF-0.13410813190861903
aF2.448237260042691
aF0.5948872498550657
aF0.0
aF-1.4243021988799514
aF0.09965153172901722
aF0.0
aF0.0
aF0.0
aF0.0
aF0.0
aF0.0
aF0.0
aF0.0
aF0.0
aF0.0
aF0.0
aF0.0
aF0.01325771936960867
aF-0.1461841156171971
aF0.5013258665504222
aF1.1793318746004045
aF-0.7865538919924908
aF0.0
aF0.7303410515468349
aF0.2910849369897922
aF0.0
aF0.0
aF0.0
aF0.0
aF0.0
aF0.0
aF0.0
aF0.0
aF0.0
aF0.0
aF0.0
aF0.0
aF0.0
aF0.0
aF0.0
aF0.0
aF0.03
aF-0.03
aI0
tp2
a((lp3
F0.0
aF0.0
aF0.0
aF0.0
aF0.0
aF0.0
aF0.0
aF0.0
aF0.0
aF0.0
aF0.0
aF0.0
aF0.0
aF0.0
aF0.0
aF0.46574873869200767
aF-0.8279524630235264
aF-0.15415499421841727
aF2.4478245140106423
aF0.5956431243050053
aF0.0
aF-1.4162151635516893
aF0.11098452979657868
aF0.0
aF0.0
aF0.0
aF0.0
aF0.0
aF0.0
aF0.0
aF0.0
aF0.0
aF0.0
aF0.0
aF0.0
aF0.01325771936960867
aF-0.1461841156171971
aF0.5013258665504222
aF1.1793318746004045
aF-0.7865538919924908
aF0.0
aF0.7303410515468349
aF0.2910849369897922
aF0.0
aF0.0
aF0.0
aF0.0
aF0.0
aF0.0
aF0.0
aF0.0
aF0.0
aF0.0
aF0.0
aF0.0
aF0.0
aF0.0
aF0.0
aF0.0
aF0.03
aF-0.03
aI0
tp4
a((lp5
F0.0
aF0.0
aF0.0
aF0.0
aF0.0
aF0.0
aF0.0
aF0.0
aF0.0
aF0.0
aF0.0
aF0.0
aF0.0
aF0.0
aF0.0
aF0.47688316895811145
aF-0.8265303794382227
aF-0.16671645147363662
aF2.447318547882873
aF0.5960538978906676
aF0.0
aF-1.411062952951394
aF0.11817418673202426
aF0.0
aF0.0
aF0.0
aF0.0
aF0.0
aF0.0
aF0.0
aF0.0
aF0.0
aF0.0
aF0.0
aF0.0
aF0.01325771936960867
aF-0.1461841156171971
aF0.5013258665504222
aF1.1793318746004045
aF-0.7865538919924908
aF0.0
aF0.7303410515468349
aF0.2910849369897922
aF0.0
aF0.0
aF0.0
aF0.0
aF0.0
aF0.0
aF0.0
aF0.0
aF0.0
aF0.0
aF0.0
aF0.0
aF0.0
aF0.0
aF0.0
aF0.0
aF0.03
aF-0.03
aI0
tp6
a((lp7
F0.0
aF0.0
aF0.0
aF0.0
aF0.0
aF0.0
aF0.0
aF0.0
aF0.0
aF0.0
aF0.0
aF0.0
aF0.0
aF0.0
aF0.0
aF0.4769549327972793
aF-0.8261321303790407
aF-0.1671498805693647
aF2.4471233127122876
aF0.5956316028404661
aF0.0
aF-1.4111209085233283
aF0.11866960972809995
aF0.0
aF0.0
aF0.0
aF0.0
aF0.0
aF0.0
aF0.0
aF0.0
aF0.0
aF0.0
aF0.0
aF0.0
aF0.01325771936960867
aF-0.1461841156171971
aF0.5013258665504222
aF1.1793318746004045
aF-0.7865538919924908
aF0.0
aF0.7303410515468349
aF0.2910849369897922
aF0.0
aF0.0
aF0.0
aF0.0
aF0.0
aF0.0
aF0.0
aF0.0
aF0.0
aF0.0
aF0.0
aF0.0
aF0.0
aF0.0
aF0.0
aF0.0
aF0.03
aF-0.03
aI0
tp8
a((lp9
F0.0
aF0.0
aF0.0
aF0.0
aF0.0
aF0.0
aF0.0
aF0.0
aF0.0
aF0.0
aF0.0
aF0.0
aF0.0
aF0.0
aF0.0
aF0.48005560392596835
aF-0.8257506731239447
aF-0.17056804967257178
aF2.447060549297571
aF0.5958397374927352
aF0.0
aF-1.4097651299171712
aF0.12059986390103505
aF0.0
aF0.0
aF0.0
aF0.0
aF0.0
aF0.0
aF0.0
aF0.0
aF0.0
aF0.0
aF0.0
aF0.0
aF0.01325771936960867
aF-0.1461841156171971
aF0.5013258665504222
aF1.1793318746004045
aF-0.7865538919924908
aF0.0
aF0.7303410515468349
aF0.2910849369897922
aF0.0
aF0.0
aF0.0
aF0.0
aF0.0
aF0.0
aF0.0
aF0.0
aF0.0
aF0.0
aF0.0
aF0.0
aF0.0
aF0.0
aF0.0
aF0.0
aF0.03
aF-0.03
aI0
tp10
a((lp11
F0.0
aF0.0
aF0.0
aF0.0
aF0.0
aF0.0
aF0.0
aF0.0
aF0.0
aF0.0
aF0.0
aF0.0
aF0.0
aF0.0
aF0.0
aF0.48037828005186484
aF-0.8256790421902379
aF-0.1710061737089107
aF2.447019427622576
aF0.5957901936739055
aF0.0
aF-1.4095549946913843
aF0.12090858691517761
aF0.0
aF0.0
aF0.0
aF0.0
aF0.0
aF0.0
aF0.0
aF0.0
aF0.0
aF0.0
aF0.0
aF0.0
aF0.01325771936960867
aF-0.1461841156171971
aF0.5013258665504222
aF1.1793318746004045
aF-0.7865538919924908
aF0.0
aF0.7303410515468349
aF0.2910849369897922
aF0.0
aF0.0
aF0.0
aF0.0
aF0.0
aF0.0
aF0.0
aF0.0
aF0.0
aF0.0
aF0.0
aF0.0
aF0.0
aF0.0
aF0.0
aF0.0
aF0.03
aF-0.03
aI0
tp12
a((lp13
F0.0
aF0.0
aF0.0
aF0.0
aF0.0
aF0.0
aF0.0
aF0.0
aF0.0
aF0.0
aF0.0
aF0.0
aF0.0
aF0.0
aF0.0
aF0.48105276632246996
aF-0.8255515735559407
aF-0.17174376400648683
aF2.4469054985541714
aF0.5958382146552468
aF0.0
aF-1.409218888061538
aF0.12129379036868777
aF0.0
aF0.0
aF0.0
aF0.0
aF0.0
aF0.0
aF0.0
aF0.0
aF0.0
aF0.0
aF0.0
aF0.0
aF0.01325771936960867
aF-0.1461841156171971
aF0.5013258665504222
aF1.1793318746004045
aF-0.7865538919924908
aF0.0
aF0.7303410515468349
aF0.2910849369897922
aF0.0
aF0.0
aF0.0
aF0.0
aF0.0
aF0.0
aF0.0
aF0.0
aF0.0
aF0.0
aF0.0
aF0.0
aF0.0
aF0.0
aF0.0
aF0.0
aF0.03
aF-0.03
aI0
tp14
a((lp15
F0.0
aF0.0
aF0.0
aF0.0
aF0.0
aF0.0
aF0.0
aF0.0
aF0.0
aF0.0
aF0.0
aF0.0
aF0.0
aF0.0
aF0.0
aF0.48180857063039245
aF-0.8256659948308128
aF-0.17249436087634978
aF2.447159225563902
aF0.5959698645027318
aF0.0
aF-1.4089979631030158
aF0.1216662583170835
aF0.0
aF0.0
aF0.0
aF0.0
aF0.0
aF0.0
aF0.0
aF0.0
aF0.0
aF0.0
aF0.0
aF0.0
aF0.01325771936960867
aF-0.1461841156171971
aF0.5013258665504222
aF1.1793318746004045
aF-0.7865538919924908
aF0.0
aF0.7303410515468349
aF0.2910849369897922
aF0.0
aF0.0
aF0.0
aF0.0
aF0.0
aF0.0
aF0.0
aF0.0
aF0.0
aF0.0
aF0.0
aF0.0
aF0.0
aF0.0
aF0.0
aF0.0
aF0.03
aF-0.03
aI0
tp16
a((lp17
F0.0
aF0.0
aF0.0
aF0.0
aF0.0
aF0.0
aF0.0
aF0.0
aF0.0
aF0.0
aF0.0
aF0.0
aF0.0
aF0.0
aF0.0
aF0.48566954960056985
aF-0.8249958257795122
aF-0.17694992160220835
aF2.4467793275470084
aF0.5960094698429158
aF0.0
aF-1.4070783546400178
aF0.12426060434812586
aF0.0
aF0.0
aF0.0
aF0.0
aF0.0
aF0.0
aF0.0
aF0.0
aF0.0
aF0.0
aF0.0
aF0.0
aF0.01325771936960867
aF-0.1461841156171971
aF0.5013258665504222
aF1.1793318746004045
aF-0.7865538919924908
aF0.0
aF0.7303410515468349
aF0.2910849369897922
aF0.0
aF0.0
aF0.0
aF0.0
aF0.0
aF0.0
aF0.0
aF0.0
aF0.0
aF0.0
aF0.0
aF0.0
aF0.0
aF0.0
aF0.0
aF0.0
aF0.03
aF-0.03
aI0
tp18
a((lp19
F0.0
aF0.0
aF0.0
aF0.0
aF0.0
aF0.0
aF0.0
aF0.0
aF0.0
aF0.0
aF0.0
aF0.0
aF0.0
aF0.0
aF0.0
aF0.4858009288533696
aF-0.8248948743865214
aF-0.1772144522402377
aF2.4469438347263472
aF0.5957346282277602
aF0.0
aF-1.4072521107069278
aF0.12458619457258441
aF0.0
aF0.0
aF0.0
aF0.0
aF0.0
aF0.0
aF0.0
aF0.0
aF0.0
aF0.0
aF0.0
aF0.0
aF0.01325771936960867
aF-0.1461841156171971
aF0.5013258665504222
aF1.1793318746004045
aF-0.7865538919924908
aF0.0
aF0.7303410515468349
aF0.2910849369897922
aF0.0
aF0.0
aF0.0
aF0.0
aF0.0
aF0.0
aF0.0
aF0.0
aF0.0
aF0.0
aF0.0
aF0.0
aF0.0
aF0.0
aF0.0
aF0.0
aF0.03
aF-0.03
aI0
tp20
a((lp21
F0.0
aF0.0
aF0.0
aF0.0
aF0.0
aF0.0
aF0.0
aF0.0
aF0.0
aF0.0
aF0.0
aF0.0
aF0.0
aF0.0
aF0.0
aF0.4866752701310626
aF-0.8248990052808893
aF-0.1781166733388967
aF2.4468173193930602
aF0.5960021065538648
aF0.0
aF-1.4066362251723439
aF0.12494693892414085
aF0.0
aF0.0
aF0.0
aF0.0
aF0.0
aF0.0
aF0.0
aF0.0
aF0.0
aF0.0
aF0.0
aF0.0
aF0.01325771936960867
aF-0.1461841156171971
aF0.5013258665504222
aF1.1793318746004045
aF-0.7865538919924908
aF0.0
aF0.7303410515468349
aF0.2910849369897922
aF0.0
aF0.0
aF0.0
aF0.0
aF0.0
aF0.0
aF0.0
aF0.0
aF0.0
aF0.0
aF0.0
aF0.0
aF0.0
aF0.0
aF0.0
aF0.0
aF0.03
aF-0.03
aI0
tp22
a((lp23
F0.0
aF0.0
aF0.0
aF0.0
aF0.0
aF0.0
aF0.0
aF0.0
aF0.0
aF0.0
aF0.0
aF0.0
aF0.0
aF0.0
aF0.0
aF0.48635556701026494
aF-0.8249012668608995
aF-0.17783557017727944
aF2.447031977982516
aF0.5957149163352672
aF0.0
aF-1.40704893297088
aF0.12495778804759544
aF0.0
aF0.0
aF0.0
aF0.0
aF0.0
aF0.0
aF0.0
aF0.0
aF0.0
aF0.0
aF0.0
aF0.0
aF0.01325771936960867
aF-0.1461841156171971
aF0.5013258665504222
aF1.1793318746004045
aF-0.7865538919924908
aF0.0
aF0.7303410515468349
aF0.2910849369897922
aF0.0
aF0.0
aF0.0
aF0.0
aF0.0
aF0.0
aF0.0
aF0.0
aF0.0
aF0.0
aF0.0
aF0.0
aF0.0
aF0.0
aF0.0
aF0.0
aF0.03
aF-0.03
aI0
tp24
a((lp25
F0.0
aF0.0
aF0.0
aF0.0
aF0.0
aF0.0
aF0.0
aF0.0
aF0.0
aF0.0
aF0.0
aF0.0
aF0.0
aF0.0
aF0.0
aF0.48663489516873104
aF-0.8247824208670089
aF-0.17819885273471947
aF2.4469168544047766
aF0.5957190423007137
aF0.0
aF-1.4068309923197753
aF0.12517656604325272
aF0.0
aF0.0
aF0.0
aF0.0
aF0.0
aF0.0
aF0.0
aF0.0
aF0.0
aF0.0
aF0.0
aF0.0
aF0.01325771936960867
aF-0.1461841156171971
aF0.5013258665504222
aF1.1793318746004045
aF-0.7865538919924908
aF0.0
aF0.7303410515468349
aF0.2910849369897922
aF0.0
aF0.0
aF0.0
aF0.0
aF0.0
aF0.0
aF0.0
aF0.0
aF0.0
aF0.0
aF0.0
aF0.0
aF0.0
aF0.0
aF0.0
aF0.0
aF0.03
aF-0.03
aI0
tp26
a((lp27
F0.0
aF0.0
aF0.0
aF0.0
aF0.0
aF0.0
aF0.0
aF0.0
aF0.0
aF0.0
aF0.0
aF0.0
aF0.0
aF0.0
aF0.0
aF0.4869362013433704
aF-0.8247623323881407
aF-0.17851784373880283
aF2.4468272140942418
aF0.5958005289854498
aF0.0
aF-1.4066125464418893
aF0.12527629060322834
aF0.0
aF0.0
aF0.0
aF0.0
aF0.0
aF0.0
aF0.0
aF0.0
aF0.0
aF0.0
aF0.0
aF0.0
aF0.01325771936960867
aF-0.1461841156171971
aF0.5013258665504222
aF1.1793318746004045
aF-0.7865538919924908
aF0.0
aF0.7303410515468349
aF0.2910849369897922
aF0.0
aF0.0
aF0.0
aF0.0
aF0.0
aF0.0
aF0.0
aF0.0
aF0.0
aF0.0
aF0.0
aF0.0
aF0.0
aF0.0
aF0.0
aF0.0
aF0.03
aF-0.03
aI0
tp28
a((lp29
F0.0
aF0.0
aF0.0
aF0.0
aF0.0
aF0.0
aF0.0
aF0.0
aF0.0
aF0.0
aF0.0
aF0.0
aF0.0
aF0.0
aF0.0
aF0.48777570778029017
aF-0.825184065573963
aF-0.1791108682671053
aF2.4470303785534746
aF0.5963006962903392
aF0.0
aF-1.4060565851912943
aF0.1252798446263806
aF0.0
aF0.0
aF0.0
aF0.0
aF0.0
aF0.0
aF0.0
aF0.0
aF0.0
aF0.0
aF0.0
aF0.0
aF0.01325771936960867
aF-0.1461841156171971
aF0.5013258665504222
aF1.1793318746004045
aF-0.7865538919924908
aF0.0
aF0.7303410515468349
aF0.2910849369897922
aF0.0
aF0.0
aF0.0
aF0.0
aF0.0
aF0.0
aF0.0
aF0.0
aF0.0
aF0.0
aF0.0
aF0.0
aF0.0
aF0.0
aF0.0
aF0.0
aF0.03
aF-0.03
aI0
tp30
a((lp31
F0.0
aF0.0
aF0.0
aF0.0
aF0.0
aF0.0
aF0.0
aF0.0
aF0.0
aF0.0
aF0.0
aF0.0
aF0.0
aF0.0
aF0.0
aF0.4883998319952675
aF-0.8246416573514569
aF-0.18008603487236516
aF2.44685741973113
aF0.5959143951323039
aF0.0
aF-1.4060249780980931
aF0.1261295431694671
aF0.0
aF0.0
aF0.0
aF0.0
aF0.0
aF0.0
aF0.0
aF0.0
aF0.0
aF0.0
aF0.0
aF0.0
aF0.01325771936960867
aF-0.1461841156171971
aF0.5013258665504222
aF1.1793318746004045
aF-0.7865538919924908
aF0.0
aF0.7303410515468349
aF0.2910849369897922
aF0.0
aF0.0
aF0.0
aF0.0
aF0.0
aF0.0
aF0.0
aF0.0
aF0.0
aF0.0
aF0.0
aF0.0
aF0.0
aF0.0
aF0.0
aF0.0
aF0.03
aF-0.03
aI0
tp32
a((lp33
F0.0
aF0.0
aF0.0
aF0.0
aF0.0
aF0.0
aF0.0
aF0.0
aF0.0
aF0.0
aF0.0
aF0.0
aF0.0
aF0.0
aF0.0
aF0.4896530328283141
aF-0.8247650555264487
aF-0.18132053466734233
aF2.447000883741999
aF0.5962592855056369
aF0.0
aF-1.4053731356054928
aF0.12667842762901052
aF0.0
aF0.0
aF0.0
aF0.0
aF0.0
aF0.0
aF0.0
aF0.0
aF0.0
aF0.0
aF0.0
aF0.0
aF0.01325771936960867
aF-0.1461841156171971
aF0.5013258665504222
aF1.1793318746004045
aF-0.7865538919924908
aF0.0
aF0.7303410515468349
aF0.2910849369897922
aF0.0
aF0.0
aF0.0
aF0.0
aF0.0
aF0.0
aF0.0
aF0.0
aF0.0
aF0.0
aF0.0
aF0.0
aF0.0
aF0.0
aF0.0
aF0.0
aF0.03
aF-0.03
aI0
tp34
a((lp35
F0.0
aF0.0
aF0.0
aF0.0
aF0.0
aF0.0
aF0.0
aF0.0
aF0.0
aF0.0
aF0.0
aF0.0
aF0.0
aF0.0
aF0.0
aF0.4900401193112854
aF-0.8243817731056077
aF-0.18183784161514663
aF2.4466824064252726
aF0.5961784143515334
aF0.0
aF-1.4051780837321823
aF0.12707767271285525
aF0.0
aF0.0
aF0.0
aF0.0
aF0.0
aF0.0
aF0.0
aF0.0
aF0.0
aF0.0
aF0.0
aF0.0
aF0.01325771936960867
aF-0.1461841156171971
aF0.5013258665504222
aF1.1793318746004045
aF-0.7865538919924908
aF0.0
aF0.7303410515468349
aF0.2910849369897922
aF0.0
aF0.0
aF0.0
aF0.0
aF0.0
aF0.0
aF0.0
aF0.0
aF0.0
aF0.0
aF0.0
aF0.0
aF0.0
aF0.0
aF0.0
aF0.0
aF0.03
aF-0.03
aI0
tp36
a((lp37
F0.0
aF0.0
aF0.0
aF0.0
aF0.0
aF0.0
aF0.0
aF0.0
aF0.0
aF0.0
aF0.0
aF0.0
aF0.0
aF0.0
aF0.0
aF0.49062873792366685
aF-0.8243531310835727
aF-0.1825696220548945
aF2.4467492639704567
aF0.5961147123156179
aF0.0
aF-1.4049071734920315
aF0.12752810309472
aF0.0
aF0.0
aF0.0
aF0.0
aF0.0
aF0.0
aF0.0
aF0.0
aF0.0
aF0.0
aF0.0
aF0.0
aF0.01325771936960867
aF-0.1461841156171971
aF0.5013258665504222
aF1.1793318746004045
aF-0.7865538919924908
aF0.0
aF0.7303410515468349
aF0.2910849369897922
aF0.0
aF0.0
aF0.0
aF0.0
aF0.0
aF0.0
aF0.0
aF0.0
aF0.0
aF0.0
aF0.0
aF0.0
aF0.0
aF0.0
aF0.0
aF0.0
aF0.03
aF-0.03
aI0
tp38
a((lp39
F0.0
aF0.0
aF0.0
aF0.0
aF0.0
aF0.0
aF0.0
aF0.0
aF0.0
aF0.0
aF0.0
aF0.0
aF0.0
aF0.0
aF0.0
aF0.4912105304187355
aF-0.8243029864823592
aF-0.18319861779009697
aF2.446745563950133
aF0.5961773251787892
aF0.0
aF-1.4046361969844
aF0.12787284631823811
aF0.0
aF0.0
aF0.0
aF0.0
aF0.0
aF0.0
aF0.0
aF0.0
aF0.0
aF0.0
aF0.0
aF0.0
aF0.01325771936960867
aF-0.1461841156171971
aF0.5013258665504222
aF1.1793318746004045
aF-0.7865538919924908
aF0.0
aF0.7303410515468349
aF0.2910849369897922
aF0.0
aF0.0
aF0.0
aF0.0
aF0.0
aF0.0
aF0.0
aF0.0
aF0.0
aF0.0
aF0.0
aF0.0
aF0.0
aF0.0
aF0.0
aF0.0
aF0.03
aF-0.03
aI0
tp40
a((lp41
F0.0
aF0.0
aF0.0
aF0.0
aF0.0
aF0.0
aF0.0
aF0.0
aF0.0
aF0.0
aF0.0
aF0.0
aF0.0
aF0.0
aF0.0
aF0.49098522380123816
aF-0.824318629939302
aF-0.18300561645670788
aF2.4468354555356733
aF0.5959695611806894
aF0.0
aF-1.4048798583770006
aF0.1278317316160833
aF0.0
aF0.0
aF0.0
aF0.0
aF0.0
aF0.0
aF0.0
aF0.0
aF0.0
aF0.0
aF0.0
aF0.0
aF0.01325771936960867
aF-0.1461841156171971
aF0.5013258665504222
aF1.1793318746004045
aF-0.7865538919924908
aF0.0
aF0.7303410515468349
aF0.2910849369897922
aF0.0
aF0.0
aF0.0
aF0.0
aF0.0
aF0.0
aF0.0
aF0.0
aF0.0
aF0.0
aF0.0
aF0.0
aF0.0
aF0.0
aF0.0
aF0.0
aF0.03
aF-0.03
aI0
tp42
a((lp43
F0.0
aF0.0
aF0.0
aF0.0
aF0.0
aF0.0
aF0.0
aF0.0
aF0.0
aF0.0
aF0.0
aF0.0
aF0.0
aF0.0
aF0.0
aF0.49160308987329626
aF-0.824278841099798
aF-0.18365976563845673
aF2.44676869028464
aF0.596137849848676
aF0.0
aF-1.4044606722837294
aF0.1281524971087275
aF0.0
aF0.0
aF0.0
aF0.0
aF0.0
aF0.0
aF0.0
aF0.0
aF0.0
aF0.0
aF0.0
aF0.0
aF0.01325771936960867
aF-0.1461841156171971
aF0.5013258665504222
aF1.1793318746004045
aF-0.7865538919924908
aF0.0
aF0.7303410515468349
aF0.2910849369897922
aF0.0
aF0.0
aF0.0
aF0.0
aF0.0
aF0.0
aF0.0
aF0.0
aF0.0
aF0.0
aF0.0
aF0.0
aF0.0
aF0.0
aF0.0
aF0.0
aF0.03
aF-0.03
aI0
tp44
a((lp45
F0.0
aF0.0
aF0.0
aF0.0
aF0.0
aF0.0
aF0.0
aF0.0
aF0.0
aF0.0
aF0.0
aF0.0
aF0.0
aF0.0
aF0.0
aF0.49155973715504797
aF-0.8242615122220076
aF-0.18366669112970146
aF2.4467135292046187
aF0.5960932072210586
aF0.0
aF-1.4044129215500951
aF0.12815669245937295
aF0.0
aF0.0
aF0.0
aF0.0
aF0.0
aF0.0
aF0.0
aF0.0
aF0.0
aF0.0
aF0.0
aF0.0
aF0.01325771936960867
aF-0.1461841156171971
aF0.5013258665504222
aF1.1793318746004045
aF-0.7865538919924908
aF0.0
aF0.7303410515468349
aF0.2910849369897922
aF0.0
aF0.0
aF0.0
aF0.0
aF0.0
aF0.0
aF0.0
aF0.0
aF0.0
aF0.0
aF0.0
aF0.0
aF0.0
aF0.0
aF0.0
aF0.0
aF0.03
aF-0.03
aI0
tp46
a((lp47
F0.0
aF0.0
aF0.0
aF0.0
aF0.0
aF0.0
aF0.0
aF0.0
aF0.0
aF0.0
aF0.0
aF0.0
aF0.0
aF0.0
aF0.0
aF0.49261991281846973
aF-0.8239860525667659
aF-0.18495374016365337
aF2.446639278361168
aF0.5959712046594682
aF0.0
aF-1.4039740249410568
aF0.12898973812966152
aF0.0
aF0.0
aF0.0
aF0.0
aF0.0
aF0.0
aF0.0
aF0.0
aF0.0
aF0.0
aF0.0
aF0.0
aF0.01325771936960867
aF-0.1461841156171971
aF0.5013258665504222
aF1.1793318746004045
aF-0.7865538919924908
aF0.0
aF0.7303410515468349
aF0.2910849369897922
aF0.0
aF0.0
aF0.0
aF0.0
aF0.0
aF0.0
aF0.0
aF0.0
aF0.0
aF0.0
aF0.0
aF0.0
aF0.0
aF0.0
aF0.0
aF0.0
aF0.03
aF-0.03
aI0
tp48
a((lp49
F0.0
aF0.0
aF0.0
aF0.0
aF0.0
aF0.0
aF0.0
aF0.0
aF0.0
aF0.0
aF0.0
aF0.0
aF0.0
aF0.0
aF0.0
aF0.4933347777517148
aF-0.8240000820594088
aF-0.1856590175130513
aF2.44667477665093
aF0.5961518807288011
aF0.0
aF-1.403632174091195
aF0.12932845663009707
aF0.0
aF0.0
aF0.0
aF0.0
aF0.0
aF0.0
aF0.0
aF0.0
aF0.0
aF0.0
aF0.0
aF0.0
aF0.01325771936960867
aF-0.1461841156171971
aF0.5013258665504222
aF1.1793318746004045
aF-0.7865538919924908
aF0.0
aF0.7303410515468349
aF0.2910849369897922
aF0.0
aF0.0
aF0.0
aF0.0
aF0.0
aF0.0
aF0.0
aF0.0
aF0.0
aF0.0
aF0.0
aF0.0
aF0.0
aF0.0
aF0.0
aF0.0
aF0.03
aF-0.03
aI0
tp50
a((lp51
F0.0
aF0.0
aF0.0
aF0.0
aF0.0
aF0.0
aF0.0
aF0.0
aF0.0
aF0.0
aF0.0
aF0.0
aF0.0
aF0.0
aF0.0
aF0.4944743946960077
aF-0.8238184996346788
aF-0.1869017169361272
aF2.4466180642915063
aF0.5962266263822279
aF0.0
aF-1.4031444994534499
aF0.1300271877740255
aF0.0
aF0.0
aF0.0
aF0.0
aF0.0
aF0.0
aF0.0
aF0.0
aF0.0
aF0.0
aF0.0
aF0.0
aF0.01325771936960867
aF-0.1461841156171971
aF0.5013258665504222
aF1.1793318746004045
aF-0.7865538919924908
aF0.0
aF0.7303410515468349
aF0.2910849369897922
aF0.0
aF0.0
aF0.0
aF0.0
aF0.0
aF0.0
aF0.0
aF0.0
aF0.0
aF0.0
aF0.0
aF0.0
aF0.0
aF0.0
aF0.0
aF0.0
aF0.03
aF-0.03
aI0
tp52
a((lp53
F0.0
aF0.0
aF0.0
aF0.0
aF0.0
aF0.0
aF0.0
aF0.0
aF0.0
aF0.0
aF0.0
aF0.0
aF0.0
aF0.0
aF0.0
aF0.49640496683185403
aF-0.8239164840151764
aF-0.18884367976768612
aF2.446728649921079
aF0.5965899818672517
aF0.0
aF-1.4021591032860325
aF0.13090792661533862
aF0.0
aF0.0
aF0.0
aF0.0
aF0.0
aF0.0
aF0.0
aF0.0
aF0.0
aF0.0
aF0.0
aF0.0
aF0.01325771936960867
aF-0.1461841156171971
aF0.5013258665504222
aF1.1793318746004045
aF-0.7865538919924908
aF0.0
aF0.7303410515468349
aF0.2910849369897922
aF0.0
aF0.0
aF0.0
aF0.0
aF0.0
aF0.0
aF0.0
aF0.0
aF0.0
aF0.0
aF0.0
aF0.0
aF0.0
aF0.0
aF0.0
aF0.0
aF0.03
aF-0.03
aI0
tp54
a((lp55
F0.0
aF0.0
aF0.0
aF0.0
aF0.0
aF0.0
aF0.0
aF0.0
aF0.0
aF0.0
aF0.0
aF0.0
aF0.0
aF0.0
aF0.0
aF0.4965051196976858
aF-0.8235830441902341
aF-0.18919575176734071
aF2.446551726439578
aF0.596254248952626
aF0.0
aF-1.4022217657912255
aF0.13127779963519923
aF0.0
aF0.0
aF0.0
aF0.0
aF0.0
aF0.0
aF0.0
aF0.0
aF0.0
aF0.0
aF0.0
aF0.0
aF0.01325771936960867
aF-0.1461841156171971
aF0.5013258665504222
aF1.1793318746004045
aF-0.7865538919924908
aF0.0
aF0.7303410515468349
aF0.2910849369897922
aF0.0
aF0.0
aF0.0
aF0.0
aF0.0
aF0.0
aF0.0
aF0.0
aF0.0
aF0.0
aF0.0
aF0.0
aF0.0
aF0.0
aF0.0
aF0.0
aF0.03
aF-0.03
aI0
tp56
a((lp57
F0.0
aF0.0
aF0.0
aF0.0
aF0.0
aF0.0
aF0.0
aF0.0
aF0.0
aF0.0
aF0.0
aF0.0
aF0.0
aF0.0
aF0.0
aF0.49733761650664443
aF-0.8233909421041814
aF-0.19014314900654317
aF2.4464404890559646
aF0.5963376503583696
aF0.0
aF-1.4017653499349776
aF0.13184418782338575
aF0.0
aF0.0
aF0.0
aF0.0
aF0.0
aF0.0
aF0.0
aF0.0
aF0.0
aF0.0
aF0.0
aF0.0
aF0.01325771936960867
aF-0.1461841156171971
aF0.5013258665504222
aF1.1793318746004045
aF-0.7865538919924908
aF0.0
aF0.7303410515468349
aF0.2910849369897922
aF0.0
aF0.0
aF0.0
aF0.0
aF0.0
aF0.0
aF0.0
aF0.0
aF0.0
aF0.0
aF0.0
aF0.0
aF0.0
aF0.0
aF0.0
aF0.0
aF0.03
aF-0.03
aI0
tp58
a((lp59
F0.0
aF0.0
aF0.0
aF0.0
aF0.0
aF0.0
aF0.0
aF0.0
aF0.0
aF0.0
aF0.0
aF0.0
aF0.0
aF0.0
aF0.0
aF0.49750275178708137
aF-0.8238432386837278
aF-0.19013697449766687
aF2.4467500754650295
aF0.5965434469971772
aF0.0
aF-1.4016147140186885
aF0.13164397383089918
aF0.0
aF0.0
aF0.0
aF0.0
aF0.0
aF0.0
aF0.0
aF0.0
aF0.0
aF0.0
aF0.0
aF0.0
aF0.01325771936960867
aF-0.1461841156171971
aF0.5013258665504222
aF1.1793318746004045
aF-0.7865538919924908
aF0.0
aF0.7303410515468349
aF0.2910849369897922
aF0.0
aF0.0
aF0.0
aF0.0
aF0.0
aF0.0
aF0.0
aF0.0
aF0.0
aF0.0
aF0.0
aF0.0
aF0.0
aF0.0
aF0.0
aF0.0
aF0.03
aF-0.03
aI0
tp60
a((lp61
F0.0
aF0.0
aF0.0
aF0.0
aF0.0
aF0.0
aF0.0
aF0.0
aF0.0
aF0.0
aF0.0
aF0.0
aF0.0
aF0.0
aF0.0
aF0.4977958708307311
aF-0.8233909719098927
aF-0.19066316597647187
aF2.4466038323033183
aF0.5963130723478878
aF0.0
aF-1.4016468924844652
aF0.1322291263499013
aF0.0
aF0.0
aF0.0
aF0.0
aF0.0
aF0.0
aF0.0
aF0.0
aF0.0
aF0.0
aF0.0
aF0.0
aF0.01325771936960867
aF-0.1461841156171971
aF0.5013258665504222
aF1.1793318746004045
aF-0.7865538919924908
aF0.0
aF0.7303410515468349
aF0.2910849369897922
aF0.0
aF0.0
aF0.0
aF0.0
aF0.0
aF0.0
aF0.0
aF0.0
aF0.0
aF0.0
aF0.0
aF0.0
aF0.0
aF0.0
aF0.0
aF0.0
aF0.03
aF-0.03
aI0
tp62
a((lp63
F0.0
aF0.0
aF0.0
aF0.0
aF0.0
aF0.0
aF0.0
aF0.0
aF0.0
aF0.0
aF0.0
aF0.0
aF0.0
aF0.0
aF0.0
aF0.49870880594054573
aF-0.8231382120578837
aF-0.191701514463294
aF2.4463832419413283
aF0.5963358330748046
aF0.0
aF-1.401181790168661
aF0.13277887952829825
aF0.0
aF0.0
aF0.0
aF0.0
aF0.0
aF0.0
aF0.0
aF0.0
aF0.0
aF0.0
aF0.0
aF0.0
aF0.01325771936960867
aF-0.1461841156171971
aF0.5013258665504222
aF1.1793318746004045
aF-0.7865538919924908
aF0.0
aF0.7303410515468349
aF0.2910849369897922
aF0.0
aF0.0
aF0.0
aF0.0
aF0.0
aF0.0
aF0.0
aF0.0
aF0.0
aF0.0
aF0.0
aF0.0
aF0.0
aF0.0
aF0.0
aF0.0
aF0.03
aF-0.03
aI0
tp64
a((lp65
F0.0
aF0.0
aF0.0
aF0.0
aF0.0
aF0.0
aF0.0
aF0.0
aF0.0
aF0.0
aF0.0
aF0.0
aF0.0
aF0.0
aF0.0
aF0.4992029764940673
aF-0.8231589133236215
aF-0.19225656819311848
aF2.4464264904568815
aF0.5963280046394921
aF0.0
aF-1.4009590528298521
aF0.13305657315018604
aF0.0
aF0.0
aF0.0
aF0.0
aF0.0
aF0.0
aF0.0
aF0.0
aF0.0
aF0.0
aF0.0
aF0.0
aF0.01325771936960867
aF-0.1461841156171971
aF0.5013258665504222
aF1.1793318746004045
aF-0.7865538919924908
aF0.0
aF0.7303410515468349
aF0.2910849369897922
aF0.0
aF0.0
aF0.0
aF0.0
aF0.0
aF0.0
aF0.0
aF0.0
aF0.0
aF0.0
aF0.0
aF0.0
aF0.0
aF0.0
aF0.0
aF0.0
aF0.03
aF-0.03
aI0
tp66
a((lp67
F0.0
aF0.0
aF0.0
aF0.0
aF0.0
aF0.0
aF0.0
aF0.0
aF0.0
aF0.0
aF0.0
aF0.0
aF0.0
aF0.0
aF0.0
aF0.5000370601334789
aF-0.8231000393793253
aF-0.19311530743025465
aF2.446627794360414
aF0.596478385610708
aF0.0
aF-1.4007348399954405
aF0.13361268035023852
aF0.0
aF0.0
aF0.0
aF0.0
aF0.0
aF0.0
aF0.0
aF0.0
aF0.0
aF0.0
aF0.0
aF0.0
aF0.01325771936960867
aF-0.1461841156171971
aF0.5013258665504222
aF1.1793318746004045
aF-0.7865538919924908
aF0.0
aF0.7303410515468349
aF0.2910849369897922
aF0.0
aF0.0
aF0.0
aF0.0
aF0.0
aF0.0
aF0.0
aF0.0
aF0.0
aF0.0
aF0.0
aF0.0
aF0.0
aF0.0
aF0.0
aF0.0
aF0.03
aF-0.03
aI0
tp68
a((lp69
F0.0
aF0.0
aF0.0
aF0.0
aF0.0
aF0.0
aF0.0
aF0.0
aF0.0
aF0.0
aF0.0
aF0.0
aF0.0
aF0.0
aF0.0
aF0.5006361283434756
aF-0.8228404921739094
aF-0.19387815359667426
aF2.446341776644703
aF0.5963807610920732
aF0.0
aF-1.4003282871413876
aF0.13406318289851443
aF0.0
aF0.0
aF0.0
aF0.0
aF0.0
aF0.0
aF0.0
aF0.0
aF0.0
aF0.0
aF0.0
aF0.0
aF0.01325771936960867
aF-0.1461841156171971
aF0.5013258665504222
aF1.1793318746004045
aF-0.7865538919924908
aF0.0
aF0.7303410515468349
aF0.2910849369897922
aF0.0
aF0.0
aF0.0
aF0.0
aF0.0
aF0.0
aF0.0
aF0.0
aF0.0
aF0.0
aF0.0
aF0.0
aF0.0
aF0.0
aF0.0
aF0.0
aF0.03
aF-0.03
aI0
tp70
a((lp71
F0.0
aF0.0
aF0.0
aF0.0
aF0.0
aF0.0
aF0.0
aF0.0
aF0.0
aF0.0
aF0.0
aF0.0
aF0.0
aF0.0
aF0.0
aF0.500796332772933
aF-0.822878660481143
aF-0.1939858129581013
aF2.446371825014216
aF0.5964732765975443
aF0.0
aF-1.4002717643429636
aF0.13408000265443415
aF0.0
aF0.0
aF0.0
aF0.0
aF0.0
aF0.0
aF0.0
aF0.0
aF0.0
aF0.0
aF0.0
aF0.0
aF0.01325771936960867
aF-0.1461841156171971
aF0.5013258665504222
aF1.1793318746004045
aF-0.7865538919924908
aF0.0
aF0.7303410515468349
aF0.2910849369897922
aF0.0
aF0.0
aF0.0
aF0.0
aF0.0
aF0.0
aF0.0
aF0.0
aF0.0
aF0.0
aF0.0
aF0.0
aF0.0
aF0.0
aF0.0
aF0.0
aF0.03
aF-0.03
aI0
tp72
a((lp73
F0.0
aF0.0
aF0.0
aF0.0
aF0.0
aF0.0
aF0.0
aF0.0
aF0.0
aF0.0
aF0.0
aF0.0
aF0.0
aF0.0
aF0.0
aF0.5011620813153108
aF-0.8228841598023593
aF-0.19444908715676248
aF2.446495535235414
aF0.5964341309064205
aF0.0
aF-1.400129710220466
aF0.13440760958339504
aF0.0
aF0.0
aF0.0
aF0.0
aF0.0
aF0.0
aF0.0
aF0.0
aF0.0
aF0.0
aF0.0
aF0.0
aF0.01325771936960867
aF-0.1461841156171971
aF0.5013258665504222
aF1.1793318746004045
aF-0.7865538919924908
aF0.0
aF0.7303410515468349
aF0.2910849369897922
aF0.0
aF0.0
aF0.0
aF0.0
aF0.0
aF0.0
aF0.0
aF0.0
aF0.0
aF0.0
aF0.0
aF0.0
aF0.0
aF0.0
aF0.0
aF0.0
aF0.03
aF-0.03
aI0
tp74
a((lp75
F0.0
aF0.0
aF0.0
aF0.0
aF0.0
aF0.0
aF0.0
aF0.0
aF0.0
aF0.0
aF0.0
aF0.0
aF0.0
aF0.0
aF0.0
aF0.5013957859635279
aF-0.8227231635478744
aF-0.19470928997981932
aF2.4463381885448316
aF0.5964202332268818
aF0.0
aF-1.4000253787131047
aF0.1345476050362463
aF0.0
aF0.0
aF0.0
aF0.0
aF0.0
aF0.0
aF0.0
aF0.0
aF0.0
aF0.0
aF0.0
aF0.0
aF0.01325771936960867
aF-0.1461841156171971
aF0.5013258665504222
aF1.1793318746004045
aF-0.7865538919924908
aF0.0
aF0.7303410515468349
aF0.2910849369897922
aF0.0
aF0.0
aF0.0
aF0.0
aF0.0
aF0.0
aF0.0
aF0.0
aF0.0
aF0.0
aF0.0
aF0.0
aF0.0
aF0.0
aF0.0
aF0.0
aF0.03
aF-0.03
aI0
tp76
a((lp77
F0.0
aF0.0
aF0.0
aF0.0
aF0.0
aF0.0
aF0.0
aF0.0
aF0.0
aF0.0
aF0.0
aF0.0
aF0.0
aF0.0
aF0.0
aF0.5019439654396484
aF-0.822776393881088
aF-0.19533981919902169
aF2.4464486368980993
aF0.5964577282993798
aF0.0
aF-1.3997290089676455
aF0.13491771665007268
aF0.0
aF0.0
aF0.0
aF0.0
aF0.0
aF0.0
aF0.0
aF0.0
aF0.0
aF0.0
aF0.0
aF0.0
aF0.01325771936960867
aF-0.1461841156171971
aF0.5013258665504222
aF1.1793318746004045
aF-0.7865538919924908
aF0.0
aF0.7303410515468349
aF0.2910849369897922
aF0.0
aF0.0
aF0.0
aF0.0
aF0.0
aF0.0
aF0.0
aF0.0
aF0.0
aF0.0
aF0.0
aF0.0
aF0.0
aF0.0
aF0.0
aF0.0
aF0.03
aF-0.03
aI0
tp78
a((lp79
F0.0
aF0.0
aF0.0
aF0.0
aF0.0
aF0.0
aF0.0
aF0.0
aF0.0
aF0.0
aF0.0
aF0.0
aF0.0
aF0.0
aF0.0
aF0.5022077022110191
aF-0.8226060460974917
aF-0.19568595693947094
aF2.446313206067723
aF0.5963675339057797
aF0.0
aF-1.3996175857819253
aF0.1351358208444511
aF0.0
aF0.0
aF0.0
aF0.0
aF0.0
aF0.0
aF0.0
aF0.0
aF0.0
aF0.0
aF0.0
aF0.0
aF0.01325771936960867
aF-0.1461841156171971
aF0.5013258665504222
aF1.1793318746004045
aF-0.7865538919924908
aF0.0
aF0.7303410515468349
aF0.2910849369897922
aF0.0
aF0.0
aF0.0
aF0.0
aF0.0
aF0.0
aF0.0
aF0.0
aF0.0
aF0.0
aF0.0
aF0.0
aF0.0
aF0.0
aF0.0
aF0.0
aF0.03
aF-0.03
aI0
tp80
a((lp81
F0.0
aF0.0
aF0.0
aF0.0
aF0.0
aF0.0
aF0.0
aF0.0
aF0.0
aF0.0
aF0.0
aF0.0
aF0.0
aF0.0
aF0.0
aF0.502055082865775
aF-0.8233061196902014
aF-0.1952003944619536
aF2.4467123113820084
aF0.5967452248357848
aF0.0
aF-1.3995391907576213
aF0.1344955506991978
aF0.0
aF0.0
aF0.0
aF0.0
aF0.0
aF0.0
aF0.0
aF0.0
aF0.0
aF0.0
aF0.0
aF0.0
aF0.01325771936960867
aF-0.1461841156171971
aF0.5013258665504222
aF1.1793318746004045
aF-0.7865538919924908
aF0.0
aF0.7303410515468349
aF0.2910849369897922
aF0.0
aF0.0
aF0.0
aF0.0
aF0.0
aF0.0
aF0.0
aF0.0
aF0.0
aF0.0
aF0.0
aF0.0
aF0.0
aF0.0
aF0.0
aF0.0
aF0.03
aF-0.03
aI0
tp82
a((lp83
F0.0
aF0.0
aF0.0
aF0.0
aF0.0
aF0.0
aF0.0
aF0.0
aF0.0
aF0.0
aF0.0
aF0.0
aF0.0
aF0.0
aF0.0
aF0.5022767827541501
aF-0.823146682139635
aF-0.19556407338421897
aF2.4467187668739827
aF0.5966307892943634
aF0.0
aF-1.3995403005422513
aF0.13483584976887783
aF0.0
aF0.0
aF0.0
aF0.0
aF0.0
aF0.0
aF0.0
aF0.0
aF0.0
aF0.0
aF0.0
aF0.0
aF0.01325771936960867
aF-0.1461841156171971
aF0.5013258665504222
aF1.1793318746004045
aF-0.7865538919924908
aF0.0
aF0.7303410515468349
aF0.2910849369897922
aF0.0
aF0.0
aF0.0
aF0.0
aF0.0
aF0.0
aF0.0
aF0.0
aF0.0
aF0.0
aF0.0
aF0.0
aF0.0
aF0.0
aF0.0
aF0.0
aF0.03
aF-0.03
aI0
tp84
a((lp85
F0.0
aF0.0
aF0.0
aF0.0
aF0.0
aF0.0
aF0.0
aF0.0
aF0.0
aF0.0
aF0.0
aF0.0
aF0.0
aF0.0
aF0.0
aF0.503599141668126
aF-0.8224827274574636
aF-0.19717856839370085
aF2.44624008658002
aF0.5965305425595313
aF0.0
aF-1.398919180583946
aF0.13589445776577203
aF0.0
aF0.0
aF0.0
aF0.0
aF0.0
aF0.0
aF0.0
aF0.0
aF0.0
aF0.0
aF0.0
aF0.0
aF0.01325771936960867
aF-0.1461841156171971
aF0.5013258665504222
aF1.1793318746004045
aF-0.7865538919924908
aF0.0
aF0.7303410515468349
aF0.2910849369897922
aF0.0
aF0.0
aF0.0
aF0.0
aF0.0
aF0.0
aF0.0
aF0.0
aF0.0
aF0.0
aF0.0
aF0.0
aF0.0
aF0.0
aF0.0
aF0.0
aF0.03
aF-0.03
aI0
tp86
a((lp87
F0.0
aF0.0
aF0.0
aF0.0
aF0.0
aF0.0
aF0.0
aF0.0
aF0.0
aF0.0
aF0.0
aF0.0
aF0.0
aF0.0
aF0.0
aF0.5053216771968225
aF-0.8222454723422706
aF-0.1991496670702742
aF2.446174867886443
aF0.5965445108998559
aF0.0
aF-1.3980936086908387
aF0.1370217819854811
aF0.0
aF0.0
aF0.0
aF0.0
aF0.0
aF0.0
aF0.0
aF0.0
aF0.0
aF0.0
aF0.0
aF0.0
aF0.01325771936960867
aF-0.1461841156171971
aF0.5013258665504222
aF1.1793318746004045
aF-0.7865538919924908
aF0.0
aF0.7303410515468349
aF0.2910849369897922
aF0.0
aF0.0
aF0.0
aF0.0
aF0.0
aF0.0
aF0.0
aF0.0
aF0.0
aF0.0
aF0.0
aF0.0
aF0.0
aF0.0
aF0.0
aF0.0
aF0.03
aF-0.03
aI0
tp88
a((lp89
F0.0
aF0.0
aF0.0
aF0.0
aF0.0
aF0.0
aF0.0
aF0.0
aF0.0
aF0.0
aF0.0
aF0.0
aF0.0
aF0.0
aF0.0
aF0.5057981509064353
aF-0.8221415036314309
aF-0.19968803553518288
aF2.446135764987761
aF0.5965631539287641
aF0.0
aF-1.3978778311006406
aF0.13733962607319875
aF0.0
aF0.0
aF0.0
aF0.0
aF0.0
aF0.0
aF0.0
aF0.0
aF0.0
aF0.0
aF0.0
aF0.0
aF0.01325771936960867
aF-0.1461841156171971
aF0.5013258665504222
aF1.1793318746004045
aF-0.7865538919924908
aF0.0
aF0.7303410515468349
aF0.2910849369897922
aF0.0
aF0.0
aF0.0
aF0.0
aF0.0
aF0.0
aF0.0
aF0.0
aF0.0
aF0.0
aF0.0
aF0.0
aF0.0
aF0.0
aF0.0
aF0.0
aF0.03
aF-0.03
aI0
tp90
a((lp91
F0.0
aF0.0
aF0.0
aF0.0
aF0.0
aF0.0
aF0.0
aF0.0
aF0.0
aF0.0
aF0.0
aF0.0
aF0.0
aF0.0
aF0.0
aF0.506667258897846
aF-0.822015886964996
aF-0.20065258810185013
aF2.446200548807239
aF0.5965673333486532
aF0.0
aF-1.3975774931687002
aF0.13794519972245325
aF0.0
aF0.0
aF0.0
aF0.0
aF0.0
aF0.0
aF0.0
aF0.0
aF0.0
aF0.0
aF0.0
aF0.0
aF0.01325771936960867
aF-0.1461841156171971
aF0.5013258665504222
aF1.1793318746004045
aF-0.7865538919924908
aF0.0
aF0.7303410515468349
aF0.2910849369897922
aF0.0
aF0.0
aF0.0
aF0.0
aF0.0
aF0.0
aF0.0
aF0.0
aF0.0
aF0.0
aF0.0
aF0.0
aF0.0
aF0.0
aF0.0
aF0.0
aF0.03
aF-0.03
aI0
tp92
a((lp93
F0.0
aF0.0
aF0.0
aF0.0
aF0.0
aF0.0
aF0.0
aF0.0
aF0.0
aF0.0
aF0.0
aF0.0
aF0.0
aF0.0
aF0.0
aF0.5069766553113121
aF-0.8219723704229864
aF-0.20095592593538347
aF2.446158664622687
aF0.5966389384555943
aF0.0
aF-1.397438911182324
aF0.13807548594968067
aF0.0
aF0.0
aF0.0
aF0.0
aF0.0
aF0.0
aF0.0
aF0.0
aF0.0
aF0.0
aF0.0
aF0.0
aF0.01325771936960867
aF-0.1461841156171971
aF0.5013258665504222
aF1.1793318746004045
aF-0.7865538919924908
aF0.0
aF0.7303410515468349
aF0.2910849369897922
aF0.0
aF0.0
aF0.0
aF0.0
aF0.0
aF0.0
aF0.0
aF0.0
aF0.0
aF0.0
aF0.0
aF0.0
aF0.0
aF0.0
aF0.0
aF0.0
aF0.03
aF-0.03
aI0
tp94
a((lp95
F0.0
aF0.0
aF0.0
aF0.0
aF0.0
aF0.0
aF0.0
aF0.0
aF0.0
aF0.0
aF0.0
aF0.0
aF0.0
aF0.0
aF0.0
aF0.5075617824611981
aF-0.8217378296511045
aF-0.2016859049015538
aF2.446148089874952
aF0.5965714398528481
aF0.0
aF-1.3972120583796221
aF0.1386711438882117
aF0.0
aF0.0
aF0.0
aF0.0
aF0.0
aF0.0
aF0.0
aF0.0
aF0.0
aF0.0
aF0.0
aF0.0
aF0.01325771936960867
aF-0.1461841156171971
aF0.5013258665504222
aF1.1793318746004045
aF-0.7865538919924908
aF0.0
aF0.7303410515468349
aF0.2910849369897922
aF0.0
aF0.0
aF0.0
aF0.0
aF0.0
aF0.0
aF0.0
aF0.0
aF0.0
aF0.0
aF0.0
aF0.0
aF0.0
aF0.0
aF0.0
aF0.0
aF0.03
aF-0.03
aI0
tp96
a((lp97
F0.0
aF0.0
aF0.0
aF0.0
aF0.0
aF0.0
aF0.0
aF0.0
aF0.0
aF0.0
aF0.0
aF0.0
aF0.0
aF0.0
aF0.0
aF0.5084681787948769
aF-0.821778780271052
aF-0.2026521385075691
aF2.446058752703514
aF0.5966935918767843
aF0.0
aF-1.3966523143165823
aF0.13901531296267905
aF0.0
aF0.0
aF0.0
aF0.0
aF0.0
aF0.0
aF0.0
aF0.0
aF0.0
aF0.0
aF0.0
aF0.0
aF0.01325771936960867
aF-0.1461841156171971
aF0.5013258665504222
aF1.1793318746004045
aF-0.7865538919924908
aF0.0
aF0.7303410515468349
aF0.2910849369897922
aF0.0
aF0.0
aF0.0
aF0.0
aF0.0
aF0.0
aF0.0
aF0.0
aF0.0
aF0.0
aF0.0
aF0.0
aF0.0
aF0.0
aF0.0
aF0.0
aF0.03
aF-0.03
aI0
tp98
a((lp99
F0.0
aF0.0
aF0.0
aF0.0
aF0.0
aF0.0
aF0.0
aF0.0
aF0.0
aF0.0
aF0.0
aF0.0
aF0.0
aF0.0
aF0.0
aF0.5087886434796491
aF-0.8215720993816519
aF-0.20304933619763738
aF2.4461038513557707
aF0.5966307147597827
aF0.0
aF-1.3966424702809006
aF0.13943138808601627
aF0.0
aF0.0
aF0.0
aF0.0
aF0.0
aF0.0
aF0.0
aF0.0
aF0.0
aF0.0
aF0.0
aF0.0
aF0.01325771936960867
aF-0.1461841156171971
aF0.5013258665504222
aF1.1793318746004045
aF-0.7865538919924908
aF0.0
aF0.7303410515468349
aF0.2910849369897922
aF0.0
aF0.0
aF0.0
aF0.0
aF0.0
aF0.0
aF0.0
aF0.0
aF0.0
aF0.0
aF0.0
aF0.0
aF0.0
aF0.0
aF0.0
aF0.0
aF0.03
aF-0.03
aI0
tp100
a((lp101
F0.0
aF0.0
aF0.0
aF0.0
aF0.0
aF0.0
aF0.0
aF0.0
aF0.0
aF0.0
aF0.0
aF0.0
aF0.0
aF0.0
aF0.0
aF0.509467169449318
aF-0.8215628132082637
aF-0.20377620238209335
aF2.446008761632429
aF0.5967281204422602
aF0.0
aF-1.396229482422949
aF0.13969595286374303
aF0.0
aF0.0
aF0.0
aF0.0
aF0.0
aF0.0
aF0.0
aF0.0
aF0.0
aF0.0
aF0.0
aF0.0
aF0.01325771936960867
aF-0.1461841156171971
aF0.5013258665504222
aF1.1793318746004045
aF-0.7865538919924908
aF0.0
aF0.7303410515468349
aF0.2910849369897922
aF0.0
aF0.0
aF0.0
aF0.0
aF0.0
aF0.0
aF0.0
aF0.0
aF0.0
aF0.0
aF0.0
aF0.0
aF0.0
aF0.0
aF0.0
aF0.0
aF0.03
aF-0.03
aI0
tp102
a((lp103
F0.0
aF0.0
aF0.0
aF0.0
aF0.0
aF0.0
aF0.0
aF0.0
aF0.0
aF0.0
aF0.0
aF0.0
aF0.0
aF0.0
aF0.0
aF0.509963116124493
aF-0.8215604254076749
aF-0.20432129546919683
aF2.446048112468584
aF0.5967396732103687
aF0.0
aF-1.3960116892823127
aF0.1399860444343621
aF0.0
aF0.0
aF0.0
aF0.0
aF0.0
aF0.0
aF0.0
aF0.0
aF0.0
aF0.0
aF0.0
aF0.0
aF0.01325771936960867
aF-0.1461841156171971
aF0.5013258665504222
aF1.1793318746004045
aF-0.7865538919924908
aF0.0
aF0.7303410515468349
aF0.2910849369897922
aF0.0
aF0.0
aF0.0
aF0.0
aF0.0
aF0.0
aF0.0
aF0.0
aF0.0
aF0.0
aF0.0
aF0.0
aF0.0
aF0.0
aF0.0
aF0.0
aF0.03
aF-0.03
aI0
tp104
a((lp105
F0.0
aF0.0
aF0.0
aF0.0
aF0.0
aF0.0
aF0.0
aF0.0
aF0.0
aF0.0
aF0.0
aF0.0
aF0.0
aF0.0
aF0.0
aF0.5101008799590346
aF-0.8214483474120013
aF-0.20449726793225698
aF2.4459811184884868
aF0.5967420559605273
aF0.0
aF-1.395934209757856
aF0.1401297993692295
aF0.0
aF0.0
aF0.0
aF0.0
aF0.0
aF0.0
aF0.0
aF0.0
aF0.0
aF0.0
aF0.0
aF0.0
aF0.01325771936960867
aF-0.1461841156171971
aF0.5013258665504222
aF1.1793318746004045
aF-0.7865538919924908
aF0.0
aF0.7303410515468349
aF0.2910849369897922
aF0.0
aF0.0
aF0.0
aF0.0
aF0.0
aF0.0
aF0.0
aF0.0
aF0.0
aF0.0
aF0.0
aF0.0
aF0.0
aF0.0
aF0.0
aF0.0
aF0.03
aF-0.03
aI0
tp106
a((lp107
F0.0
aF0.0
aF0.0
aF0.0
aF0.0
aF0.0
aF0.0
aF0.0
aF0.0
aF0.0
aF0.0
aF0.0
aF0.0
aF0.0
aF0.0
aF0.5104195424770407
aF-0.8213506579894242
aF-0.20485142998678063
aF2.4460380045194356
aF0.5967352616916637
aF0.0
aF-1.3958742818799723
aF0.1404313195361887
aF0.0
aF0.0
aF0.0
aF0.0
aF0.0
aF0.0
aF0.0
aF0.0
aF0.0
aF0.0
aF0.0
aF0.0
aF0.01325771936960867
aF-0.1461841156171971
aF0.5013258665504222
aF1.1793318746004045
aF-0.7865538919924908
aF0.0
aF0.7303410515468349
aF0.2910849369897922
aF0.0
aF0.0
aF0.0
aF0.0
aF0.0
aF0.0
aF0.0
aF0.0
aF0.0
aF0.0
aF0.0
aF0.0
aF0.0
aF0.0
aF0.0
aF0.0
aF0.03
aF-0.03
aI0
tp108
a((lp109
F0.0
aF0.0
aF0.0
aF0.0
aF0.0
aF0.0
aF0.0
aF0.0
aF0.0
aF0.0
aF0.0
aF0.0
aF0.0
aF0.0
aF0.0
aF0.5104749780597477
aF-0.8213311339617223
aF-0.20491948308356292
aF2.4460462955698077
aF0.5967164716152985
aF0.0
aF-1.3958708720140598
aF0.14048476411259914
aF0.0
aF0.0
aF0.0
aF0.0
aF0.0
aF0.0
aF0.0
aF0.0
aF0.0
aF0.0
aF0.0
aF0.0
aF0.01325771936960867
aF-0.1461841156171971
aF0.5013258665504222
aF1.1793318746004045
aF-0.7865538919924908
aF0.0
aF0.7303410515468349
aF0.2910849369897922
aF0.0
aF0.0
aF0.0
aF0.0
aF0.0
aF0.0
aF0.0
aF0.0
aF0.0
aF0.0
aF0.0
aF0.0
aF0.0
aF0.0
aF0.0
aF0.0
aF0.03
aF-0.03
aI0
tp110
a((lp111
F0.0
aF0.0
aF0.0
aF0.0
aF0.0
aF0.0
aF0.0
aF0.0
aF0.0
aF0.0
aF0.0
aF0.0
aF0.0
aF0.0
aF0.0
aF0.5104990362033187
aF-0.821429399219036
aF-0.20490823413613746
aF2.4460408867499024
aF0.596762536783745
aF0.0
aF-1.3958260745241224
aF0.14036205822679607
aF0.0
aF0.0
aF0.0
aF0.0
aF0.0
aF0.0
aF0.0
aF0.0
aF0.0
aF0.0
aF0.0
aF0.0
aF0.01325771936960867
aF-0.1461841156171971
aF0.5013258665504222
aF1.1793318746004045
aF-0.7865538919924908
aF0.0
aF0.7303410515468349
aF0.2910849369897922
aF0.0
aF0.0
aF0.0
aF0.0
aF0.0
aF0.0
aF0.0
aF0.0
aF0.0
aF0.0
aF0.0
aF0.0
aF0.0
aF0.0
aF0.0
aF0.0
aF0.03
aF-0.03
aI0
tp112
a((lp113
F0.0
aF0.0
aF0.0
aF0.0
aF0.0
aF0.0
aF0.0
aF0.0
aF0.0
aF0.0
aF0.0
aF0.0
aF0.0
aF0.0
aF0.0
aF0.5106379119661559
aF-0.8213241897103555
aF-0.20508286826750916
aF2.446016461842396
aF0.596756529615799
aF0.0
aF-1.3957732465824266
aF0.1405374773897475
aF0.0
aF0.0
aF0.0
aF0.0
aF0.0
aF0.0
aF0.0
aF0.0
aF0.0
aF0.0
aF0.0
aF0.0
aF0.01325771936960867
aF-0.1461841156171971
aF0.5013258665504222
aF1.1793318746004045
aF-0.7865538919924908
aF0.0
aF0.7303410515468349
aF0.2910849369897922
aF0.0
aF0.0
aF0.0
aF0.0
aF0.0
aF0.0
aF0.0
aF0.0
aF0.0
aF0.0
aF0.0
aF0.0
aF0.0
aF0.0
aF0.0
aF0.0
aF0.03
aF-0.03
aI0
tp114
a((lp115
F0.0
aF0.0
aF0.0
aF0.0
aF0.0
aF0.0
aF0.0
aF0.0
aF0.0
aF0.0
aF0.0
aF0.0
aF0.0
aF0.0
aF0.0
aF0.5108803084457332
aF-0.8213578328180132
aF-0.20537171333133925
aF2.446005942766443
aF0.5967495184667252
aF0.0
aF-1.3956019607036354
aF0.14064965487297065
aF0.0
aF0.0
aF0.0
aF0.0
aF0.0
aF0.0
aF0.0
aF0.0
aF0.0
aF0.0
aF0.0
aF0.0
aF0.01325771936960867
aF-0.1461841156171971
aF0.5013258665504222
aF1.1793318746004045
aF-0.7865538919924908
aF0.0
aF0.7303410515468349
aF0.2910849369897922
aF0.0
aF0.0
aF0.0
aF0.0
aF0.0
aF0.0
aF0.0
aF0.0
aF0.0
aF0.0
aF0.0
aF0.0
aF0.0
aF0.0
aF0.0
aF0.0
aF0.03
aF-0.03
aI0
tp116
a((lp117
F0.0
aF0.0
aF0.0
aF0.0
aF0.0
aF0.0
aF0.0
aF0.0
aF0.0
aF0.0
aF0.0
aF0.0
aF0.0
aF0.0
aF0.0
aF0.5109880492443687
aF-0.8212537733398452
aF-0.20549167557579823
aF2.4460140051017354
aF0.5967478631782466
aF0.0
aF-1.3956199196252213
aF0.1408023818006772
aF0.0
aF0.0
aF0.0
aF0.0
aF0.0
aF0.0
aF0.0
aF0.0
aF0.0
aF0.0
aF0.0
aF0.0
aF0.01325771936960867
aF-0.1461841156171971
aF0.5013258665504222
aF1.1793318746004045
aF-0.7865538919924908
aF0.0
aF0.7303410515468349
aF0.2910849369897922
aF0.0
aF0.0
aF0.0
aF0.0
aF0.0
aF0.0
aF0.0
aF0.0
aF0.0
aF0.0
aF0.0
aF0.0
aF0.0
aF0.0
aF0.0
aF0.0
aF0.03
aF-0.03
aI0
tp118
a((lp119
F0.0
aF0.0
aF0.0
aF0.0
aF0.0
aF0.0
aF0.0
aF0.0
aF0.0
aF0.0
aF0.0
aF0.0
aF0.0
aF0.0
aF0.0
aF0.5111853160760832
aF-0.8213220887685081
aF-0.2057043850880406
aF2.4459874067536655
aF0.5967728949385724
aF0.0
aF-1.3954624886058564
aF0.14081292252143704
aF0.0
aF0.0
aF0.0
aF0.0
aF0.0
aF0.0
aF0.0
aF0.0
aF0.0
aF0.0
aF0.0
aF0.0
aF0.01325771936960867
aF-0.1461841156171971
aF0.5013258665504222
aF1.1793318746004045
aF-0.7865538919924908
aF0.0
aF0.7303410515468349
aF0.2910849369897922
aF0.0
aF0.0
aF0.0
aF0.0
aF0.0
aF0.0
aF0.0
aF0.0
aF0.0
aF0.0
aF0.0
aF0.0
aF0.0
aF0.0
aF0.0
aF0.0
aF0.03
aF-0.03
aI0
tp120
a((lp121
F0.0
aF0.0
aF0.0
aF0.0
aF0.0
aF0.0
aF0.0
aF0.0
aF0.0
aF0.0
aF0.0
aF0.0
aF0.0
aF0.0
aF0.0
aF0.51121004859861
aF-0.821171168395927
aF-0.20580052347997568
aF2.446047992232087
aF0.59666381893651
aF0.0
aF-1.395550034361258
aF0.1410775198876222
aF0.0
aF0.0
aF0.0
aF0.0
aF0.0
aF0.0
aF0.0
aF0.0
aF0.0
aF0.0
aF0.0
aF0.0
aF0.01325771936960867
aF-0.1461841156171971
aF0.5013258665504222
aF1.1793318746004045
aF-0.7865538919924908
aF0.0
aF0.7303410515468349
aF0.2910849369897922
aF0.0
aF0.0
aF0.0
aF0.0
aF0.0
aF0.0
aF0.0
aF0.0
aF0.0
aF0.0
aF0.0
aF0.0
aF0.0
aF0.0
aF0.0
aF0.0
aF0.03
aF-0.03
aI0
tp122
a((lp123
F0.0
aF0.0
aF0.0
aF0.0
aF0.0
aF0.0
aF0.0
aF0.0
aF0.0
aF0.0
aF0.0
aF0.0
aF0.0
aF0.0
aF0.0
aF0.5113443235085925
aF-0.8211575222413731
aF-0.20593278082783478
aF2.4460145763074372
aF0.596704434833076
aF0.0
aF-1.39546844191328
aF0.14111951563578068
aF0.0
aF0.0
aF0.0
aF0.0
aF0.0
aF0.0
aF0.0
aF0.0
aF0.0
aF0.0
aF0.0
aF0.0
aF0.01325771936960867
aF-0.1461841156171971
aF0.5013258665504222
aF1.1793318746004045
aF-0.7865538919924908
aF0.0
aF0.7303410515468349
aF0.2910849369897922
aF0.0
aF0.0
aF0.0
aF0.0
aF0.0
aF0.0
aF0.0
aF0.0
aF0.0
aF0.0
aF0.0
aF0.0
aF0.0
aF0.0
aF0.0
aF0.0
aF0.03
aF-0.03
aI0
tp124
a((lp125
F0.0
aF0.0
aF0.0
aF0.0
aF0.0
aF0.0
aF0.0
aF0.0
aF0.0
aF0.0
aF0.0
aF0.0
aF0.0
aF0.0
aF0.0
aF0.5113606523949542
aF-0.8212927798276695
aF-0.2059173281040392
aF2.445952720630789
aF0.5967747414433653
aF0.0
aF-1.3953348820217384
aF0.14093491710325018
aF0.0
aF0.0
aF0.0
aF0.0
aF0.0
aF0.0
aF0.0
aF0.0
aF0.0
aF0.0
aF0.0
aF0.0
aF0.01325771936960867
aF-0.1461841156171971
aF0.5013258665504222
aF1.1793318746004045
aF-0.7865538919924908
aF0.0
aF0.7303410515468349
aF0.2910849369897922
aF0.0
aF0.0
aF0.0
aF0.0
aF0.0
aF0.0
aF0.0
aF0.0
aF0.0
aF0.0
aF0.0
aF0.0
aF0.0
aF0.0
aF0.0
aF0.0
aF0.03
aF-0.03
aI0
tp126
a((lp127
F0.0
aF0.0
aF0.0
aF0.0
aF0.0
aF0.0
aF0.0
aF0.0
aF0.0
aF0.0
aF0.0
aF0.0
aF0.0
aF0.0
aF0.0
aF0.5116578971171373
aF-0.8212192775837154
aF-0.206212144300117
aF2.4459847486744186
aF0.5968083686836044
aF0.0
aF-1.3952902676873902
aF0.14113155292847393
aF0.0
aF0.0
aF0.0
aF0.0
aF0.0
aF0.0
aF0.0
aF0.0
aF0.0
aF0.0
aF0.0
aF0.0
aF0.01325771936960867
aF-0.1461841156171971
aF0.5013258665504222
aF1.1793318746004045
aF-0.7865538919924908
aF0.0
aF0.7303410515468349
aF0.2910849369897922
aF0.0
aF0.0
aF0.0
aF0.0
aF0.0
aF0.0
aF0.0
aF0.0
aF0.0
aF0.0
aF0.0
aF0.0
aF0.0
aF0.0
aF0.0
aF0.0
aF0.03
aF-0.03
aI0
tp128
a((lp129
F0.0
aF0.0
aF0.0
aF0.0
aF0.0
aF0.0
aF0.0
aF0.0
aF0.0
aF0.0
aF0.0
aF0.0
aF0.0
aF0.0
aF0.0
aF0.5117344276579442
aF-0.8211358073290229
aF-0.20631630026800415
aF2.4459885886867
aF0.5967930528789063
aF0.0
aF-1.3952817247118279
aF0.14127839537771322
aF0.0
aF0.0
aF0.0
aF0.0
aF0.0
aF0.0
aF0.0
aF0.0
aF0.0
aF0.0
aF0.0
aF0.0
aF0.01325771936960867
aF-0.1461841156171971
aF0.5013258665504222
aF1.1793318746004045
aF-0.7865538919924908
aF0.0
aF0.7303410515468349
aF0.2910849369897922
aF0.0
aF0.0
aF0.0
aF0.0
aF0.0
aF0.0
aF0.0
aF0.0
aF0.0
aF0.0
aF0.0
aF0.0
aF0.0
aF0.0
aF0.0
aF0.0
aF0.03
aF-0.03
aI0
tp130
a((lp131
F0.0
aF0.0
aF0.0
aF0.0
aF0.0
aF0.0
aF0.0
aF0.0
aF0.0
aF0.0
aF0.0
aF0.0
aF0.0
aF0.0
aF0.0
aF0.5117713280417671
aF-0.8211453481582727
aF-0.20634709005713694
aF2.445961883248138
aF0.5968162092308166
aF0.0
aF-1.3952383866636202
aF0.14126025588232444
aF0.0
aF0.0
aF0.0
aF0.0
aF0.0
aF0.0
aF0.0
aF0.0
aF0.0
aF0.0
aF0.0
aF0.0
aF0.01325771936960867
aF-0.1461841156171971
aF0.5013258665504222
aF1.1793318746004045
aF-0.7865538919924908
aF0.0
aF0.7303410515468349
aF0.2910849369897922
aF0.0
aF0.0
aF0.0
aF0.0
aF0.0
aF0.0
aF0.0
aF0.0
aF0.0
aF0.0
aF0.0
aF0.0
aF0.0
aF0.0
aF0.0
aF0.0
aF0.03
aF-0.03
aI0
tp132
a((lp133
F0.0
aF0.0
aF0.0
aF0.0
aF0.0
aF0.0
aF0.0
aF0.0
aF0.0
aF0.0
aF0.0
aF0.0
aF0.0
aF0.0
aF0.0
aF0.511683945848362
aF-0.8212653961520209
aF-0.20624161522873807
aF2.445966434158346
aF0.5968213844652934
aF0.0
aF-1.395216603587496
aF0.14110528181610982
aF0.0
aF0.0
aF0.0
aF0.0
aF0.0
aF0.0
aF0.0
aF0.0
aF0.0
aF0.0
aF0.0
aF0.0
aF0.01325771936960867
aF-0.1461841156171971
aF0.5013258665504222
aF1.1793318746004045
aF-0.7865538919924908
aF0.0
aF0.7303410515468349
aF0.2910849369897922
aF0.0
aF0.0
aF0.0
aF0.0
aF0.0
aF0.0
aF0.0
aF0.0
aF0.0
aF0.0
aF0.0
aF0.0
aF0.0
aF0.0
aF0.0
aF0.0
aF0.03
aF-0.03
aI0
tp134
a((lp135
F0.0
aF0.0
aF0.0
aF0.0
aF0.0
aF0.0
aF0.0
aF0.0
aF0.0
aF0.0
aF0.0
aF0.0
aF0.0
aF0.0
aF0.0
aF0.5118687384459076
aF-0.8210579103691803
aF-0.2065449431637317
aF2.446010645524346
aF0.5966839511104468
aF0.0
aF-1.3952389950838129
aF0.14150835712147716
aF0.0
aF0.0
aF0.0
aF0.0
aF0.0
aF0.0
aF0.0
aF0.0
aF0.0
aF0.0
aF0.0
aF0.0
aF0.01325771936960867
aF-0.1461841156171971
aF0.5013258665504222
aF1.1793318746004045
aF-0.7865538919924908
aF0.0
aF0.7303410515468349
aF0.2910849369897922
aF0.0
aF0.0
aF0.0
aF0.0
aF0.0
aF0.0
aF0.0
aF0.0
aF0.0
aF0.0
aF0.0
aF0.0
aF0.0
aF0.0
aF0.0
aF0.0
aF0.03
aF-0.03
aI0
tp136
a((lp137
F0.0
aF0.0
aF0.0
aF0.0
aF0.0
aF0.0
aF0.0
aF0.0
aF0.0
aF0.0
aF0.0
aF0.0
aF0.0
aF0.0
aF0.0
aF0.5120758790154432
aF-0.82108648618708
aF-0.2067241804981269
aF2.445979811046836
aF0.5967721139567226
aF0.0
aF-1.3951124682716578
aF0.14152075676135786
aF0.0
aF0.0
aF0.0
aF0.0
aF0.0
aF0.0
aF0.0
aF0.0
aF0.0
aF0.0
aF0.0
aF0.0
aF0.01325771936960867
aF-0.1461841156171971
aF0.5013258665504222
aF1.1793318746004045
aF-0.7865538919924908
aF0.0
aF0.7303410515468349
aF0.2910849369897922
aF0.0
aF0.0
aF0.0
aF0.0
aF0.0
aF0.0
aF0.0
aF0.0
aF0.0
aF0.0
aF0.0
aF0.0
aF0.0
aF0.0
aF0.0
aF0.0
aF0.03
aF-0.03
aI0
tp138
a((lp139
F0.0
aF0.0
aF0.0
aF0.0
aF0.0
aF0.0
aF0.0
aF0.0
aF0.0
aF0.0
aF0.0
aF0.0
aF0.0
aF0.0
aF0.0
aF0.5126640792994055
aF-0.8209352690840533
aF-0.20743447322916078
aF2.4459833872191212
aF0.5967166331723914
aF0.0
aF-1.394872879529616
aF0.14202075212087134
aF0.0
aF0.0
aF0.0
aF0.0
aF0.0
aF0.0
aF0.0
aF0.0
aF0.0
aF0.0
aF0.0
aF0.0
aF0.01325771936960867
aF-0.1461841156171971
aF0.5013258665504222
aF1.1793318746004045
aF-0.7865538919924908
aF0.0
aF0.7303410515468349
aF0.2910849369897922
aF0.0
aF0.0
aF0.0
aF0.0
aF0.0
aF0.0
aF0.0
aF0.0
aF0.0
aF0.0
aF0.0
aF0.0
aF0.0
aF0.0
aF0.0
aF0.0
aF0.03
aF-0.03
aI0
tp140
a((lp141
F0.0
aF0.0
aF0.0
aF0.0
aF0.0
aF0.0
aF0.0
aF0.0
aF0.0
aF0.0
aF0.0
aF0.0
aF0.0
aF0.0
aF0.0
aF0.5131042415985783
aF-0.8208730806692189
aF-0.2079120093762754
aF2.4459693268566127
aF0.5967517271229273
aF0.0
aF-1.3946784274190116
aF0.14228292783198548
aF0.0
aF0.0
aF0.0
aF0.0
aF0.0
aF0.0
aF0.0
aF0.0
aF0.0
aF0.0
aF0.0
aF0.0
aF0.01325771936960867
aF-0.1461841156171971
aF0.5013258665504222
aF1.1793318746004045
aF-0.7865538919924908
aF0.0
aF0.7303410515468349
aF0.2910849369897922
aF0.0
aF0.0
aF0.0
aF0.0
aF0.0
aF0.0
aF0.0
aF0.0
aF0.0
aF0.0
aF0.0
aF0.0
aF0.0
aF0.0
aF0.0
aF0.0
aF0.03
aF-0.03
aI0
tp142
a((lp143
F0.0
aF0.0
aF0.0
aF0.0
aF0.0
aF0.0
aF0.0
aF0.0
aF0.0
aF0.0
aF0.0
aF0.0
aF0.0
aF0.0
aF0.0
aF0.5133075709560352
aF-0.8209621731707502
aF-0.20809559880524406
aF2.445875917161424
aF0.59685407625951
aF0.0
aF-1.3944523355898133
aF0.1422044208749283
aF0.0
aF0.0
aF0.0
aF0.0
aF0.0
aF0.0
aF0.0
aF0.0
aF0.0
aF0.0
aF0.0
aF0.0
aF0.01325771936960867
aF-0.1461841156171971
aF0.5013258665504222
aF1.1793318746004045
aF-0.7865538919924908
aF0.0
aF0.7303410515468349
aF0.2910849369897922
aF0.0
aF0.0
aF0.0
aF0.0
aF0.0
aF0.0
aF0.0
aF0.0
aF0.0
aF0.0
aF0.0
aF0.0
aF0.0
aF0.0
aF0.0
aF0.0
aF0.03
aF-0.03
aI0
tp144
a((lp145
F0.0
aF0.0
aF0.0
aF0.0
aF0.0
aF0.0
aF0.0
aF0.0
aF0.0
aF0.0
aF0.0
aF0.0
aF0.0
aF0.0
aF0.0
aF0.5134244880111593
aF-0.8213303976838822
aF-0.2080613909045748
aF2.446169688042186
aF0.5970672643247527
aF0.0
aF-1.394367406209722
aF0.1420436202620794
aF0.0
aF0.0
aF0.0
aF0.0
aF0.0
aF0.0
aF0.0
aF0.0
aF0.0
aF0.0
aF0.0
aF0.0
aF0.01325771936960867
aF-0.1461841156171971
aF0.5013258665504222
aF1.1793318746004045
aF-0.7865538919924908
aF0.0
aF0.7303410515468349
aF0.2910849369897922
aF0.0
aF0.0
aF0.0
aF0.0
aF0.0
aF0.0
aF0.0
aF0.0
aF0.0
aF0.0
aF0.0
aF0.0
aF0.0
aF0.0
aF0.0
aF0.0
aF0.03
aF-0.03
aI0
tp146
a((lp147
F0.0
aF0.0
aF0.0
aF0.0
aF0.0
aF0.0
aF0.0
aF0.0
aF0.0
aF0.0
aF0.0
aF0.0
aF0.0
aF0.0
aF0.0
aF0.5138466595503686
aF-0.8208136092383225
aF-0.208683147985812
aF2.4459057280597873
aF0.5968667015783532
aF0.0
aF-1.3943068070345372
aF0.14262319390258218
aF0.0
aF0.0
aF0.0
aF0.0
aF0.0
aF0.0
aF0.0
aF0.0
aF0.0
aF0.0
aF0.0
aF0.0
aF0.01325771936960867
aF-0.1461841156171971
aF0.5013258665504222
aF1.1793318746004045
aF-0.7865538919924908
aF0.0
aF0.7303410515468349
aF0.2910849369897922
aF0.0
aF0.0
aF0.0
aF0.0
aF0.0
aF0.0
aF0.0
aF0.0
aF0.0
aF0.0
aF0.0
aF0.0
aF0.0
aF0.0
aF0.0
aF0.0
aF0.03
aF-0.03
aI0
tp148
a((lp149
F0.0
aF0.0
aF0.0
aF0.0
aF0.0
aF0.0
aF0.0
aF0.0
aF0.0
aF0.0
aF0.0
aF0.0
aF0.0
aF0.0
aF0.0
aF0.5139338775658394
aF-0.8207305364645339
aF-0.2088538840263922
aF2.445924893285795
aF0.5967698906573999
aF0.0
aF-1.3942851035757269
aF0.1428314729564048
aF0.0
aF0.0
aF0.0
aF0.0
aF0.0
aF0.0
aF0.0
aF0.0
aF0.0
aF0.0
aF0.0
aF0.0
aF0.01325771936960867
aF-0.1461841156171971
aF0.5013258665504222
aF1.1793318746004045
aF-0.7865538919924908
aF0.0
aF0.7303410515468349
aF0.2910849369897922
aF0.0
aF0.0
aF0.0
aF0.0
aF0.0
aF0.0
aF0.0
aF0.0
aF0.0
aF0.0
aF0.0
aF0.0
aF0.0
aF0.0
aF0.0
aF0.0
aF0.03
aF-0.03
aI0
tp150
a((lp151
F0.0
aF0.0
aF0.0
aF0.0
aF0.0
aF0.0
aF0.0
aF0.0
aF0.0
aF0.0
aF0.0
aF0.0
aF0.0
aF0.0
aF0.0
aF0.5140658273878633
aF-0.8207279058983541
aF-0.20901688138445412
aF2.4459421151702077
aF0.5967487751410256
aF0.0
aF-1.3942200310149966
aF0.14293483407317248
aF0.0
aF0.0
aF0.0
aF0.0
aF0.0
aF0.0
aF0.0
aF0.0
aF0.0
aF0.0
aF0.0
aF0.0
aF0.01325771936960867
aF-0.1461841156171971
aF0.5013258665504222
aF1.1793318746004045
aF-0.7865538919924908
aF0.0
aF0.7303410515468349
aF0.2910849369897922
aF0.0
aF0.0
aF0.0
aF0.0
aF0.0
aF0.0
aF0.0
aF0.0
aF0.0
aF0.0
aF0.0
aF0.0
aF0.0
aF0.0
aF0.0
aF0.0
aF0.03
aF-0.03
aI0
tp152
a((lp153
F0.0
aF0.0
aF0.0
aF0.0
aF0.0
aF0.0
aF0.0
aF0.0
aF0.0
aF0.0
aF0.0
aF0.0
aF0.0
aF0.0
aF0.0
aF0.5141664420521724
aF-0.8208282397699208
aF-0.20904625230187537
aF2.4459129905189916
aF0.5968704588705341
aF0.0
aF-1.3941275382652454
aF0.14279455122163798
aF0.0
aF0.0
aF0.0
aF0.0
aF0.0
aF0.0
aF0.0
aF0.0
aF0.0
aF0.0
aF0.0
aF0.0
aF0.01325771936960867
aF-0.1461841156171971
aF0.5013258665504222
aF1.1793318746004045
aF-0.7865538919924908
aF0.0
aF0.7303410515468349
aF0.2910849369897922
aF0.0
aF0.0
aF0.0
aF0.0
aF0.0
aF0.0
aF0.0
aF0.0
aF0.0
aF0.0
aF0.0
aF0.0
aF0.0
aF0.0
aF0.0
aF0.0
aF0.03
aF-0.03
aI0
tp154
a((lp155
F0.0
aF0.0
aF0.0
aF0.0
aF0.0
aF0.0
aF0.0
aF0.0
aF0.0
aF0.0
aF0.0
aF0.0
aF0.0
aF0.0
aF0.0
aF0.5142380676908304
aF-0.8207014920828942
aF-0.209204551692586
aF2.445925162228457
aF0.596768149539228
aF0.0
aF-1.3941327767111598
aF0.14303254218584954
aF0.0
aF0.0
aF0.0
aF0.0
aF0.0
aF0.0
aF0.0
aF0.0
aF0.0
aF0.0
aF0.0
aF0.0
aF0.01325771936960867
aF-0.1461841156171971
aF0.5013258665504222
aF1.1793318746004045
aF-0.7865538919924908
aF0.0
aF0.7303410515468349
aF0.2910849369897922
aF0.0
aF0.0
aF0.0
aF0.0
aF0.0
aF0.0
aF0.0
aF0.0
aF0.0
aF0.0
aF0.0
aF0.0
aF0.0
aF0.0
aF0.0
aF0.0
aF0.03
aF-0.03
aI0
tp156
a((lp157
F0.0
aF0.0
aF0.0
aF0.0
aF0.0
aF0.0
aF0.0
aF0.0
aF0.0
aF0.0
aF0.0
aF0.0
aF0.0
aF0.0
aF0.0
aF0.5144138158256024
aF-0.8207711075091745
aF-0.20933516989951817
aF2.445824059687361
aF0.5968950076470875
aF0.0
aF-1.3939483482336792
aF0.14292136305183042
aF0.0
aF0.0
aF0.0
aF0.0
aF0.0
aF0.0
aF0.0
aF0.0
aF0.0
aF0.0
aF0.0
aF0.0
aF0.01325771936960867
aF-0.1461841156171971
aF0.5013258665504222
aF1.1793318746004045
aF-0.7865538919924908
aF0.0
aF0.7303410515468349
aF0.2910849369897922
aF0.0
aF0.0
aF0.0
aF0.0
aF0.0
aF0.0
aF0.0
aF0.0
aF0.0
aF0.0
aF0.0
aF0.0
aF0.0
aF0.0
aF0.0
aF0.0
aF0.03
aF-0.03
aI0
tp158
a((lp159
F0.0
aF0.0
aF0.0
aF0.0
aF0.0
aF0.0
aF0.0
aF0.0
aF0.0
aF0.0
aF0.0
aF0.0
aF0.0
aF0.0
aF0.0
aF0.5145413349341047
aF-0.8206613042286923
aF-0.20954640455776644
aF2.4459218794415527
aF0.5967697467430767
aF0.0
aF-1.393997979990161
aF0.1432266939265052
aF0.0
aF0.0
aF0.0
aF0.0
aF0.0
aF0.0
aF0.0
aF0.0
aF0.0
aF0.0
aF0.0
aF0.0
aF0.01325771936960867
aF-0.1461841156171971
aF0.5013258665504222
aF1.1793318746004045
aF-0.7865538919924908
aF0.0
aF0.7303410515468349
aF0.2910849369897922
aF0.0
aF0.0
aF0.0
aF0.0
aF0.0
aF0.0
aF0.0
aF0.0
aF0.0
aF0.0
aF0.0
aF0.0
aF0.0
aF0.0
aF0.0
aF0.0
aF0.03
aF-0.03
aI0
tp160
a((lp161
F0.0
aF0.0
aF0.0
aF0.0
aF0.0
aF0.0
aF0.0
aF0.0
aF0.0
aF0.0
aF0.0
aF0.0
aF0.0
aF0.0
aF0.0
aF0.5145674862136558
aF-0.8206422118818387
aF-0.20957283726427148
aF2.4459198510446667
aF0.59677582040194
aF0.0
aF-1.393994126350569
aF0.14325491504462678
aF0.0
aF0.0
aF0.0
aF0.0
aF0.0
aF0.0
aF0.0
aF0.0
aF0.0
aF0.0
aF0.0
aF0.0
aF0.01325771936960867
aF-0.1461841156171971
aF0.5013258665504222
aF1.1793318746004045
aF-0.7865538919924908
aF0.0
aF0.7303410515468349
aF0.2910849369897922
aF0.0
aF0.0
aF0.0
aF0.0
aF0.0
aF0.0
aF0.0
aF0.0
aF0.0
aF0.0
aF0.0
aF0.0
aF0.0
aF0.0
aF0.0
aF0.0
aF0.03
aF-0.03
aI0
tp162
a((lp163
F0.0
aF0.0
aF0.0
aF0.0
aF0.0
aF0.0
aF0.0
aF0.0
aF0.0
aF0.0
aF0.0
aF0.0
aF0.0
aF0.0
aF0.0
aF0.5149447357954956
aF-0.8205973265635069
aF-0.20999985294103019
aF2.4459091035433893
aF0.5967818215875221
aF0.0
aF-1.3938128496677609
aF0.1434905937825478
aF0.0
aF0.0
aF0.0
aF0.0
aF0.0
aF0.0
aF0.0
aF0.0
aF0.0
aF0.0
aF0.0
aF0.0
aF0.01325771936960867
aF-0.1461841156171971
aF0.5013258665504222
aF1.1793318746004045
aF-0.7865538919924908
aF0.0
aF0.7303410515468349
aF0.2910849369897922
aF0.0
aF0.0
aF0.0
aF0.0
aF0.0
aF0.0
aF0.0
aF0.0
aF0.0
aF0.0
aF0.0
aF0.0
aF0.0
aF0.0
aF0.0
aF0.0
aF0.03
aF-0.03
aI0
tp164
a((lp165
F0.0
aF0.0
aF0.0
aF0.0
aF0.0
aF0.0
aF0.0
aF0.0
aF0.0
aF0.0
aF0.0
aF0.0
aF0.0
aF0.0
aF0.0
aF0.515011563598833
aF-0.820584717559514
aF-0.21007768548801448
aF2.445908014175897
aF0.5967803584824363
aF0.0
aF-1.3937823433937806
aF0.14353964659670707
aF0.0
aF0.0
aF0.0
aF0.0
aF0.0
aF0.0
aF0.0
aF0.0
aF0.0
aF0.0
aF0.0
aF0.0
aF0.01325771936960867
aF-0.1461841156171971
aF0.5013258665504222
aF1.1793318746004045
aF-0.7865538919924908
aF0.0
aF0.7303410515468349
aF0.2910849369897922
aF0.0
aF0.0
aF0.0
aF0.0
aF0.0
aF0.0
aF0.0
aF0.0
aF0.0
aF0.0
aF0.0
aF0.0
aF0.0
aF0.0
aF0.0
aF0.0
aF0.03
aF-0.03
aI0
tp166
a((lp167
F0.0
aF0.0
aF0.0
aF0.0
aF0.0
aF0.0
aF0.0
aF0.0
aF0.0
aF0.0
aF0.0
aF0.0
aF0.0
aF0.0
aF0.0
aF0.5150572462952826
aF-0.8205774273905392
aF-0.2101262804023721
aF2.44590165850679
aF0.5967870131875797
aF0.0
aF-1.3937591707685064
aF0.14356269417268094
aF0.0
aF0.0
aF0.0
aF0.0
aF0.0
aF0.0
aF0.0
aF0.0
aF0.0
aF0.0
aF0.0
aF0.0
aF0.01325771936960867
aF-0.1461841156171971
aF0.5013258665504222
aF1.1793318746004045
aF-0.7865538919924908
aF0.0
aF0.7303410515468349
aF0.2910849369897922
aF0.0
aF0.0
aF0.0
aF0.0
aF0.0
aF0.0
aF0.0
aF0.0
aF0.0
aF0.0
aF0.0
aF0.0
aF0.0
aF0.0
aF0.0
aF0.0
aF0.03
aF-0.03
aI0
tp168
a((lp169
F0.0
aF0.0
aF0.0
aF0.0
aF0.0
aF0.0
aF0.0
aF0.0
aF0.0
aF0.0
aF0.0
aF0.0
aF0.0
aF0.0
aF0.0
aF0.5152460830726449
aF-0.82061376094359
aF-0.21023278750257027
aF2.445843717374356
aF0.5969471616795723
aF0.0
aF-1.393644724751076
aF0.14348639593474172
aF0.0
aF0.0
aF0.0
aF0.0
aF0.0
aF0.0
aF0.0
aF0.0
aF0.0
aF0.0
aF0.0
aF0.0
aF0.01325771936960867
aF-0.1461841156171971
aF0.5013258665504222
aF1.1793318746004045
aF-0.7865538919924908
aF0.0
aF0.7303410515468349
aF0.2910849369897922
aF0.0
aF0.0
aF0.0
aF0.0
aF0.0
aF0.0
aF0.0
aF0.0
aF0.0
aF0.0
aF0.0
aF0.0
aF0.0
aF0.0
aF0.0
aF0.0
aF0.03
aF-0.03
aI0
tp170
a((lp171
F0.0
aF0.0
aF0.0
aF0.0
aF0.0
aF0.0
aF0.0
aF0.0
aF0.0
aF0.0
aF0.0
aF0.0
aF0.0
aF0.0
aF0.0
aF0.5150748135625587
aF-0.8205773311198036
aF-0.2101459964867906
aF2.445904249210463
aF0.5967859739165066
aF0.0
aF-1.3937523333971211
aF0.1435742939144772
aF0.0
aF0.0
aF0.0
aF0.0
aF0.0
aF0.0
aF0.0
aF0.0
aF0.0
aF0.0
aF0.0
aF0.0
aF0.01325771936960867
aF-0.1461841156171971
aF0.5013258665504222
aF1.1793318746004045
aF-0.7865538919924908
aF0.0
aF0.7303410515468349
aF0.2910849369897922
aF0.0
aF0.0
aF0.0
aF0.0
aF0.0
aF0.0
aF0.0
aF0.0
aF0.0
aF0.0
aF0.0
aF0.0
aF0.0
aF0.0
aF0.0
aF0.0
aF0.03
aF-0.03
aI0
tp172
a((lp173
F0.0
aF0.0
aF0.0
aF0.0
aF0.0
aF0.0
aF0.0
aF0.0
aF0.0
aF0.0
aF0.0
aF0.0
aF0.0
aF0.0
aF0.0
aF0.5151317356247448
aF-0.820568889151712
aF-0.21020997472393985
aF2.4459028065154538
aF0.5967876673506978
aF0.0
aF-1.3937260612385804
aF0.14361129791564353
aF0.0
aF0.0
aF0.0
aF0.0
aF0.0
aF0.0
aF0.0
aF0.0
aF0.0
aF0.0
aF0.0
aF0.0
aF0.01325771936960867
aF-0.1461841156171971
aF0.5013258665504222
aF1.1793318746004045
aF-0.7865538919924908
aF0.0
aF0.7303410515468349
aF0.2910849369897922
aF0.0
aF0.0
aF0.0
aF0.0
aF0.0
aF0.0
aF0.0
aF0.0
aF0.0
aF0.0
aF0.0
aF0.0
aF0.0
aF0.0
aF0.0
aF0.0
aF0.03
aF-0.03
aI0
tp174
a((lp175
F0.0
aF0.0
aF0.0
aF0.0
aF0.0
aF0.0
aF0.0
aF0.0
aF0.0
aF0.0
aF0.0
aF0.0
aF0.0
aF0.0
aF0.0
aF0.5152481114552125
aF-0.8205219987657597
aF-0.21033163569192045
aF2.445891519421395
aF0.5968056115944171
aF0.0
aF-1.3936895610527746
aF0.14369709157321175
aF0.0
aF0.0
aF0.0
aF0.0
aF0.0
aF0.0
aF0.0
aF0.0
aF0.0
aF0.0
aF0.0
aF0.0
aF0.01325771936960867
aF-0.1461841156171971
aF0.5013258665504222
aF1.1793318746004045
aF-0.7865538919924908
aF0.0
aF0.7303410515468349
aF0.2910849369897922
aF0.0
aF0.0
aF0.0
aF0.0
aF0.0
aF0.0
aF0.0
aF0.0
aF0.0
aF0.0
aF0.0
aF0.0
aF0.0
aF0.0
aF0.0
aF0.0
aF0.03
aF-0.03
aI0
tp176
a((lp177
F0.0
aF0.0
aF0.0
aF0.0
aF0.0
aF0.0
aF0.0
aF0.0
aF0.0
aF0.0
aF0.0
aF0.0
aF0.0
aF0.0
aF0.0
aF0.5153657442396443
aF-0.820525022459526
aF-0.21047164127895548
aF2.4458845896159307
aF0.5968044497251386
aF0.0
aF-1.393610344769413
aF0.14376301991184265
aF0.0
aF0.0
aF0.0
aF0.0
aF0.0
aF0.0
aF0.0
aF0.0
aF0.0
aF0.0
aF0.0
aF0.0
aF0.01325771936960867
aF-0.1461841156171971
aF0.5013258665504222
aF1.1793318746004045
aF-0.7865538919924908
aF0.0
aF0.7303410515468349
aF0.2910849369897922
aF0.0
aF0.0
aF0.0
aF0.0
aF0.0
aF0.0
aF0.0
aF0.0
aF0.0
aF0.0
aF0.0
aF0.0
aF0.0
aF0.0
aF0.0
aF0.0
aF0.03
aF-0.03
aI0
tp178
a((lp179
F0.0
aF0.0
aF0.0
aF0.0
aF0.0
aF0.0
aF0.0
aF0.0
aF0.0
aF0.0
aF0.0
aF0.0
aF0.0
aF0.0
aF0.0
aF0.515659701949283
aF-0.8205812651154555
aF-0.21073088313123423
aF2.4458466994614625
aF0.596914989411815
aF0.0
aF-1.3934286691301314
aF0.14377150628524715
aF0.0
aF0.0
aF0.0
aF0.0
aF0.0
aF0.0
aF0.0
aF0.0
aF0.0
aF0.0
aF0.0
aF0.0
aF0.01325771936960867
aF-0.1461841156171971
aF0.5013258665504222
aF1.1793318746004045
aF-0.7865538919924908
aF0.0
aF0.7303410515468349
aF0.2910849369897922
aF0.0
aF0.0
aF0.0
aF0.0
aF0.0
aF0.0
aF0.0
aF0.0
aF0.0
aF0.0
aF0.0
aF0.0
aF0.0
aF0.0
aF0.0
aF0.0
aF0.03
aF-0.03
aI0
tp180
a((lp181
F0.0
aF0.0
aF0.0
aF0.0
aF0.0
aF0.0
aF0.0
aF0.0
aF0.0
aF0.0
aF0.0
aF0.0
aF0.0
aF0.0
aF0.0
aF0.515774384146773
aF-0.8205468682723126
aF-0.21086590996206608
aF2.4458485994843504
aF0.5969083725572308
aF0.0
aF-1.3933869697345318
aF0.1438712736284921
aF0.0
aF0.0
aF0.0
aF0.0
aF0.0
aF0.0
aF0.0
aF0.0
aF0.0
aF0.0
aF0.0
aF0.0
aF0.01325771936960867
aF-0.1461841156171971
aF0.5013258665504222
aF1.1793318746004045
aF-0.7865538919924908
aF0.0
aF0.7303410515468349
aF0.2910849369897922
aF0.0
aF0.0
aF0.0
aF0.0
aF0.0
aF0.0
aF0.0
aF0.0
aF0.0
aF0.0
aF0.0
aF0.0
aF0.0
aF0.0
aF0.0
aF0.0
aF0.03
aF-0.03
aI0
tp182
a((lp183
F0.0
aF0.0
aF0.0
aF0.0
aF0.0
aF0.0
aF0.0
aF0.0
aF0.0
aF0.0
aF0.0
aF0.0
aF0.0
aF0.0
aF0.0
aF0.5157166503441651
aF-0.8204695092720559
aF-0.21086516928334986
aF2.445877117834299
aF0.596811982684652
aF0.0
aF-1.3934554625822435
aF0.14399242481013905
aF0.0
aF0.0
aF0.0
aF0.0
aF0.0
aF0.0
aF0.0
aF0.0
aF0.0
aF0.0
aF0.0
aF0.0
aF0.01325771936960867
aF-0.1461841156171971
aF0.5013258665504222
aF1.1793318746004045
aF-0.7865538919924908
aF0.0
aF0.7303410515468349
aF0.2910849369897922
aF0.0
aF0.0
aF0.0
aF0.0
aF0.0
aF0.0
aF0.0
aF0.0
aF0.0
aF0.0
aF0.0
aF0.0
aF0.0
aF0.0
aF0.0
aF0.0
aF0.03
aF-0.03
aI0
tp184
a((lp185
F0.0
aF0.0
aF0.0
aF0.0
aF0.0
aF0.0
aF0.0
aF0.0
aF0.0
aF0.0
aF0.0
aF0.0
aF0.0
aF0.0
aF0.0
aF0.5158397693728219
aF-0.8205757224342658
aF-0.21089619386032224
aF2.4458080644798104
aF0.5969721800318026
aF0.0
aF-1.3933373031175766
aF0.14379860911490192
aF0.0
aF0.0
aF0.0
aF0.0
aF0.0
aF0.0
aF0.0
aF0.0
aF0.0
aF0.0
aF0.0
aF0.0
aF0.01325771936960867
aF-0.1461841156171971
aF0.5013258665504222
aF1.1793318746004045
aF-0.7865538919924908
aF0.0
aF0.7303410515468349
aF0.2910849369897922
aF0.0
aF0.0
aF0.0
aF0.0
aF0.0
aF0.0
aF0.0
aF0.0
aF0.0
aF0.0
aF0.0
aF0.0
aF0.0
aF0.0
aF0.0
aF0.0
aF0.03
aF-0.03
aI0
tp186
a((lp187
F0.0
aF0.0
aF0.0
aF0.0
aF0.0
aF0.0
aF0.0
aF0.0
aF0.0
aF0.0
aF0.0
aF0.0
aF0.0
aF0.0
aF0.0
aF0.5160462327339871
aF-0.8204168859032018
aF-0.2112349059689725
aF2.445864278110326
aF0.5968252208898105
aF0.0
aF-1.393300946944317
aF0.14420654682675915
aF0.0
aF0.0
aF0.0
aF0.0
aF0.0
aF0.0
aF0.0
aF0.0
aF0.0
aF0.0
aF0.0
aF0.0
aF0.01325771936960867
aF-0.1461841156171971
aF0.5013258665504222
aF1.1793318746004045
aF-0.7865538919924908
aF0.0
aF0.7303410515468349
aF0.2910849369897922
aF0.0
aF0.0
aF0.0
aF0.0
aF0.0
aF0.0
aF0.0
aF0.0
aF0.0
aF0.0
aF0.0
aF0.0
aF0.0
aF0.0
aF0.0
aF0.0
aF0.03
aF-0.03
aI0
tp188
a((lp189
F0.0
aF0.0
aF0.0
aF0.0
aF0.0
aF0.0
aF0.0
aF0.0
aF0.0
aF0.0
aF0.0
aF0.0
aF0.0
aF0.0
aF0.0
aF0.5168943750035389
aF-0.8203441521228895
aF-0.21208844017842127
aF2.445797047556665
aF0.5969916203844446
aF0.0
aF-1.3928958186227878
aF0.14457586595348584
aF0.0
aF0.0
aF0.0
aF0.0
aF0.0
aF0.0
aF0.0
aF0.0
aF0.0
aF0.0
aF0.0
aF0.0
aF0.01325771936960867
aF-0.1461841156171971
aF0.5013258665504222
aF1.1793318746004045
aF-0.7865538919924908
aF0.0
aF0.7303410515468349
aF0.2910849369897922
aF0.0
aF0.0
aF0.0
aF0.0
aF0.0
aF0.0
aF0.0
aF0.0
aF0.0
aF0.0
aF0.0
aF0.0
aF0.0
aF0.0
aF0.0
aF0.0
aF0.03
aF-0.03
aI0
tp190
a((lp191
F0.0
aF0.0
aF0.0
aF0.0
aF0.0
aF0.0
aF0.0
aF0.0
aF0.0
aF0.0
aF0.0
aF0.0
aF0.0
aF0.0
aF0.0
aF0.517265569207414
aF-0.8203036900697996
aF-0.21248245874787547
aF2.4457495983839554
aF0.5970370464364124
aF0.0
aF-1.3927097265910502
aF0.14474073525534156
aF0.0
aF0.0
aF0.0
aF0.0
aF0.0
aF0.0
aF0.0
aF0.0
aF0.0
aF0.0
aF0.0
aF0.0
aF0.01325771936960867
aF-0.1461841156171971
aF0.5013258665504222
aF1.1793318746004045
aF-0.7865538919924908
aF0.0
aF0.7303410515468349
aF0.2910849369897922
aF0.0
aF0.0
aF0.0
aF0.0
aF0.0
aF0.0
aF0.0
aF0.0
aF0.0
aF0.0
aF0.0
aF0.0
aF0.0
aF0.0
aF0.0
aF0.0
aF0.03
aF-0.03
aI0
tp192
a((lp193
F0.0
aF0.0
aF0.0
aF0.0
aF0.0
aF0.0
aF0.0
aF0.0
aF0.0
aF0.0
aF0.0
aF0.0
aF0.0
aF0.0
aF0.0
aF0.5174417010150709
aF-0.820315679875717
aF-0.2127164268607782
aF2.4457640958512097
aF0.5969934069740965
aF0.0
aF-1.392599332343904
aF0.14487428338942518
aF0.0
aF0.0
aF0.0
aF0.0
aF0.0
aF0.0
aF0.0
aF0.0
aF0.0
aF0.0
aF0.0
aF0.0
aF0.01325771936960867
aF-0.1461841156171971
aF0.5013258665504222
aF1.1793318746004045
aF-0.7865538919924908
aF0.0
aF0.7303410515468349
aF0.2910849369897922
aF0.0
aF0.0
aF0.0
aF0.0
aF0.0
aF0.0
aF0.0
aF0.0
aF0.0
aF0.0
aF0.0
aF0.0
aF0.0
aF0.0
aF0.0
aF0.0
aF0.03
aF-0.03
aI0
tp194
a((lp195
F0.0
aF0.0
aF0.0
aF0.0
aF0.0
aF0.0
aF0.0
aF0.0
aF0.0
aF0.0
aF0.0
aF0.0
aF0.0
aF0.0
aF0.0
aF0.5190620505461261
aF-0.8200820650241871
aF-0.21453107602199475
aF2.4457298439327158
aF0.5970443354639451
aF0.0
aF-1.3918573752720944
aF0.14591828715609242
aF0.0
aF0.0
aF0.0
aF0.0
aF0.0
aF0.0
aF0.0
aF0.0
aF0.0
aF0.0
aF0.0
aF0.0
aF0.01325771936960867
aF-0.1461841156171971
aF0.5013258665504222
aF1.1793318746004045
aF-0.7865538919924908
aF0.0
aF0.7303410515468349
aF0.2910849369897922
aF0.0
aF0.0
aF0.0
aF0.0
aF0.0
aF0.0
aF0.0
aF0.0
aF0.0
aF0.0
aF0.0
aF0.0
aF0.0
aF0.0
aF0.0
aF0.0
aF0.03
aF-0.03
aI0
tp196
a((lp197
F0.0
aF0.0
aF0.0
aF0.0
aF0.0
aF0.0
aF0.0
aF0.0
aF0.0
aF0.0
aF0.0
aF0.0
aF0.0
aF0.0
aF0.0
aF0.5198922316631954
aF-0.8198553112362134
aF-0.2154400607764649
aF2.445672942130331
aF0.5971034914367749
aF0.0
aF-1.3915235619338657
aF0.14648877663275137
aF0.0
aF0.0
aF0.0
aF0.0
aF0.0
aF0.0
aF0.0
aF0.0
aF0.0
aF0.0
aF0.0
aF0.0
aF0.01325771936960867
aF-0.1461841156171971
aF0.5013258665504222
aF1.1793318746004045
aF-0.7865538919924908
aF0.0
aF0.7303410515468349
aF0.2910849369897922
aF0.0
aF0.0
aF0.0
aF0.0
aF0.0
aF0.0
aF0.0
aF0.0
aF0.0
aF0.0
aF0.0
aF0.0
aF0.0
aF0.0
aF0.0
aF0.0
aF0.03
aF-0.03
aI0
tp198
a((lp199
F0.0
aF0.0
aF0.0
aF0.0
aF0.0
aF0.0
aF0.0
aF0.0
aF0.0
aF0.0
aF0.0
aF0.0
aF0.0
aF0.0
aF0.0
aF0.5205102338655042
aF-0.8197808760905403
aF-0.2161567018455665
aF2.445667836928546
aF0.597097279865194
aF0.0
aF-1.3912079104324455
aF0.14691583486962334
aF0.0
aF0.0
aF0.0
aF0.0
aF0.0
aF0.0
aF0.0
aF0.0
aF0.0
aF0.0
aF0.0
aF0.0
aF0.01325771936960867
aF-0.1461841156171971
aF0.5013258665504222
aF1.1793318746004045
aF-0.7865538919924908
aF0.0
aF0.7303410515468349
aF0.2910849369897922
aF0.0
aF0.0
aF0.0
aF0.0
aF0.0
aF0.0
aF0.0
aF0.0
aF0.0
aF0.0
aF0.0
aF0.0
aF0.0
aF0.0
aF0.0
aF0.0
aF0.03
aF-0.03
aI0
tp200
a.