(lp0
((lp1
F0.0
aF0.0
aF0.0
aF0.0
aF0.0
aF0.0
aF0.0
aF0.0
aF0.0
aF0.0
aF0.0
aF0.0
aF0.0
aF0.0
aF0.0
aF0.0840849928246387
aF-1.2561630785985156
aF-1.60807024856359
aF1.7769816087307804
aF-1.2044037392502907
aF0.0
aF-1.328905761555605
aF1.3812940870994874
aF0.0
aF0.0
aF0.0
aF0.0
aF0.0
aF0.0
aF0.0
aF0.0
aF0.0
aF0.0
aF0.0
aF0.0
aF0.8085763523474445
aF0.01674347992854104
aF-0.793586744772367
aF1.185183542314574
aF-1.9032199553788984
aF0.0
aF-0.8647251527378775
aF3.0575496929839527
aF0.0
aF0.0
aF0.0
aF0.0
aF0.0
aF0.0
aF0.0
aF0.0
aF0.0
aF0.0
aF0.0
aF0.0
aF0.0
aF0.0
aF0.0
aF0.0
aF0.03
aF-0.03
aI0
tp2
a.