((lp0
F0.0
aF0.0
aF0.0
aF0.0
aF0.0
aF0.0
aF0.0
aF0.0
aF0.0
aF0.0
aF0.0
aF0.0
aF0.0
aF0.0
aF0.0
aF-0.2939253848941874
aF0.13985110766593056
aF-0.10425357599303897
aF1.2455387930109838
aF2.0860418887974834
aF0.0
aF-1.5707998012129236
aF-0.21119339333095866
aF0.0
aF0.0
aF0.0
aF0.0
aF0.0
aF0.0
aF0.0
aF0.0
aF0.0
aF0.0
aF0.0
aF0.0
aF0.2537043629957252
aF-1.265280852572968
aF1.3327583598232535
aF1.500176713697295
aF-0.29684702748967784
aF0.0
aF1.5673799164317086
aF0.790961477097746
aF0.0
aF0.0
aF0.0
aF0.0
aF0.0
aF0.0
aF0.0
aF0.0
aF0.0
aF0.0
aF0.0
aF0.0
aF0.0
aF0.0
aF1.1642115655396142e-07
aF0.0
aF1.421412242050739e-10
aF0.0
aI0
tp1
.