((lp0
F0.0
aF0.0
aF0.0
aF0.0
aF0.0
aF0.0
aF0.0
aF0.0
aF0.0
aF0.0
aF0.0
aF0.0
aF0.0
aF0.0
aF0.0
aF-0.2939253848941874
aF0.13985110766593056
aF-0.10425357599303897
aF1.2455387930109838
aF2.0860418887974834
aF0.0
aF-1.5707998012129236
aF-0.21119339333095866
aF0.0
aF0.0
aF0.0
aF0.0
aF0.0
aF0.0
aF0.0
aF0.0
aF0.0
aF0.0
aF0.0
aF0.0
aF0.4698552156727606
aF-1.0181764835611968
aF1.0437069122866198
aF1.9206230938043423
aF-0.5691534304284097
aF0.0
aF1.0006225546351986
aF0.9879855915399567
aF0.0
aF0.0
aF0.0
aF0.0
aF0.0
aF0.0
aF0.0
aF0.0
aF0.0
aF0.0
aF0.0
aF0.0
aF0.0
aF0.0
aF1.1642115655396142e-07
aF0.0
aF1.421412242050739e-10
aF0.0
aI0
tp1
.