((lp0
F0.0
aF0.0
aF0.0
aF0.0
aF0.0
aF0.0
aF0.0
aF0.0
aF0.0
aF0.0
aF0.0
aF0.0
aF0.0
aF0.0
aF0.0
aF-0.2939254498744921
aF0.13985110766592734
aF-0.10425356875831301
aF1.2455388203390922
aF2.086042094397949
aF0.0
aF-1.5707998011888655
aF-0.21119339333093534
aF0.0
aF0.0
aF0.0
aF0.0
aF0.0
aF0.0
aF0.0
aF0.0
aF0.0
aF0.0
aF0.0
aF0.0
aF0.2776404174975238
aF-0.36695399395695505
aF1.5801338902185027
aF1.896293758344236
aF-1.2189522190776407
aF0.0
aF1.46406595448285
aF1.3712188091315647
aF0.0
aF0.0
aF0.0
aF0.0
aF0.0
aF0.0
aF0.0
aF0.0
aF0.0
aF0.0
aF0.0
aF0.0
aF0.0
aF0.0
aF0.0
aF0.0
aF0.0
aF0.0
aI0
tp1
.