(lp0
((lp1
F0.0
aF0.0
aF0.0
aF0.0
aF0.0
aF0.0
aF0.0
aF0.0
aF0.0
aF0.0
aF0.0
aF0.0
aF0.0
aF0.0
aF0.0
aF-0.05202928077348378
aF0.21187428833196703
aF-0.35856224574450846
aF1.1906664022208762
aF-0.7090599533076931
aF0.0
aF1.4487621727896434
aF2.7793081886683906
aF0.0
aF0.0
aF0.0
aF0.0
aF0.0
aF0.0
aF0.0
aF0.0
aF0.0
aF0.0
aF0.0
aF0.0
aF0.767459887443099
aF-1.2126016886247621
aF0.6097771572522246
aF1.9631220325262757
aF-0.2598693954463293
aF0.0
aF0.8968054162888847
aF0.7261041832434876
aF0.0
aF0.0
aF0.0
aF0.0
aF0.0
aF0.0
aF0.0
aF0.0
aF0.0
aF0.0
aF0.0
aF0.0
aF0.0
aF0.0
aF0.0
aF0.0
aF2.4e-322
aF0.0
aI0
tp2
a((lp3
F0.0
aF0.0
aF0.0
aF0.0
aF0.0
aF0.0
aF0.0
aF0.0
aF0.0
aF0.0
aF0.0
aF0.0
aF0.0
aF0.0
aF0.0
aF-0.05202928077348378
aF0.21187428833196703
aF-0.35856224574450846
aF1.1906664022208762
aF-0.7090599533076931
aF0.0
aF1.4487621727896434
aF2.7793081886683906
aF0.0
aF0.0
aF0.0
aF0.0
aF0.0
aF0.0
aF0.0
aF0.0
aF0.0
aF0.0
aF0.0
aF0.0
aF0.7603957013843351
aF-1.2091827670274589
aF0.6192247127428958
aF1.961168224117533
aF-0.265839208984401
aF0.0
aF0.8990212027708069
aF0.7307361003966519
aF0.0
aF0.0
aF0.0
aF0.0
aF0.0
aF0.0
aF0.0
aF0.0
aF0.0
aF0.0
aF0.0
aF0.0
aF0.0
aF0.0
aF0.0
aF0.0
aF2.4e-322
aF0.0
aI0
tp4
a((lp5
F0.0
aF0.0
aF0.0
aF0.0
aF0.0
aF0.0
aF0.0
aF0.0
aF0.0
aF0.0
aF0.0
aF0.0
aF0.0
aF0.0
aF0.0
aF-0.05202928077348378
aF0.21187428833196703
aF-0.35856224574450846
aF1.1906664022208762
aF-0.7090599533076931
aF0.0
aF1.4487621727896434
aF2.7793081886683906
aF0.0
aF0.0
aF0.0
aF0.0
aF0.0
aF0.0
aF0.0
aF0.0
aF0.0
aF0.0
aF0.0
aF0.0
aF0.7449615697547346
aF-1.203140120535904
aF0.6399925377658822
aF1.9592176832763237
aF-0.2771082329470735
aF0.0
aF0.9019143218368051
aF0.7414988329621652
aF0.0
aF0.0
aF0.0
aF0.0
aF0.0
aF0.0
aF0.0
aF0.0
aF0.0
aF0.0
aF0.0
aF0.0
aF0.0
aF0.0
aF0.0
aF0.0
aF2.4e-322
aF0.0
aI0
tp6
a((lp7
F0.0
aF0.0
aF0.0
aF0.0
aF0.0
aF0.0
aF0.0
aF0.0
aF0.0
aF0.0
aF0.0
aF0.0
aF0.0
aF0.0
aF0.0
aF-0.05202928077348378
aF0.21187428833196703
aF-0.35856224574450846
aF1.1906664022208762
aF-0.7090599533076931
aF0.0
aF1.4487621727896434
aF2.7793081886683906
aF0.0
aF0.0
aF0.0
aF0.0
aF0.0
aF0.0
aF0.0
aF0.0
aF0.0
aF0.0
aF0.0
aF0.0
aF0.7177588179421955
aF-1.190936893077143
aF0.6774325948349158
aF1.9547526499305785
aF-0.29941229278681813
aF0.0
aF0.907457552908538
aF0.7618482551687172
aF0.0
aF0.0
aF0.0
aF0.0
aF0.0
aF0.0
aF0.0
aF0.0
aF0.0
aF0.0
aF0.0
aF0.0
aF0.0
aF0.0
aF0.0
aF0.0
aF2.4e-322
aF0.0
aI0
tp8
a((lp9
F0.0
aF0.0
aF0.0
aF0.0
aF0.0
aF0.0
aF0.0
aF0.0
aF0.0
aF0.0
aF0.0
aF0.0
aF0.0
aF0.0
aF0.0
aF-0.05202928077348378
aF0.21187428833196703
aF-0.35856224574450846
aF1.1906664022208762
aF-0.7090599533076931
aF0.0
aF1.4487621727896434
aF2.7793081886683906
aF0.0
aF0.0
aF0.0
aF0.0
aF0.0
aF0.0
aF0.0
aF0.0
aF0.0
aF0.0
aF0.0
aF0.0
aF0.7142023064111004
aF-1.1892329202677028
aF0.6823109602823055
aF1.9542713105361402
aF-0.3024588465019853
aF0.0
aF0.9080713422454422
aF0.7645638836903789
aF0.0
aF0.0
aF0.0
aF0.0
aF0.0
aF0.0
aF0.0
aF0.0
aF0.0
aF0.0
aF0.0
aF0.0
aF0.0
aF0.0
aF0.0
aF0.0
aF2.4e-322
aF0.0
aI0
tp10
a((lp11
F0.0
aF0.0
aF0.0
aF0.0
aF0.0
aF0.0
aF0.0
aF0.0
aF0.0
aF0.0
aF0.0
aF0.0
aF0.0
aF0.0
aF0.0
aF-0.05202928077348378
aF0.21187428833196703
aF-0.35856224574450846
aF1.1906664022208762
aF-0.7090599533076931
aF0.0
aF1.4487621727896434
aF2.7793081886683906
aF0.0
aF0.0
aF0.0
aF0.0
aF0.0
aF0.0
aF0.0
aF0.0
aF0.0
aF0.0
aF0.0
aF0.0
aF0.7136350645230622
aF-1.188975901156628
aF0.6830983994522779
aF1.954187756018769
aF-0.30294301723205114
aF0.0
aF0.9082126268507201
aF0.7650086287307263
aF0.0
aF0.0
aF0.0
aF0.0
aF0.0
aF0.0
aF0.0
aF0.0
aF0.0
aF0.0
aF0.0
aF0.0
aF0.0
aF0.0
aF0.0
aF0.0
aF2.4e-322
aF0.0
aI0
tp12
a((lp13
F0.0
aF0.0
aF0.0
aF0.0
aF0.0
aF0.0
aF0.0
aF0.0
aF0.0
aF0.0
aF0.0
aF0.0
aF0.0
aF0.0
aF0.0
aF-0.05202928077348378
aF0.21187428833196703
aF-0.35856224574450846
aF1.1906664022208762
aF-0.7090599533076931
aF0.0
aF1.4487621727896434
aF2.7793081886683906
aF0.0
aF0.0
aF0.0
aF0.0
aF0.0
aF0.0
aF0.0
aF0.0
aF0.0
aF0.0
aF0.0
aF0.0
aF0.6919684038807419
aF-1.1797965272541224
aF0.7128061061948728
aF1.9520623418006724
aF-0.3205751674992924
aF0.0
aF0.9127695964690512
aF0.7812965760529712
aF0.0
aF0.0
aF0.0
aF0.0
aF0.0
aF0.0
aF0.0
aF0.0
aF0.0
aF0.0
aF0.0
aF0.0
aF0.0
aF0.0
aF0.0
aF0.0
aF2.4e-322
aF0.0
aI0
tp14
a((lp15
F0.0
aF0.0
aF0.0
aF0.0
aF0.0
aF0.0
aF0.0
aF0.0
aF0.0
aF0.0
aF0.0
aF0.0
aF0.0
aF0.0
aF0.0
aF-0.05202928077348378
aF0.21187428833196703
aF-0.35856224574450846
aF1.1906664022208762
aF-0.7090599533076931
aF0.0
aF1.4487621727896434
aF2.7793081886683906
aF0.0
aF0.0
aF0.0
aF0.0
aF0.0
aF0.0
aF0.0
aF0.0
aF0.0
aF0.0
aF0.0
aF0.0
aF0.6875687450167359
aF-1.1783866086432282
aF0.719318528504961
aF1.9510811858068653
aF-0.323120867770871
aF0.0
aF0.9150047160618776
aF0.7835718462825234
aF0.0
aF0.0
aF0.0
aF0.0
aF0.0
aF0.0
aF0.0
aF0.0
aF0.0
aF0.0
aF0.0
aF0.0
aF0.0
aF0.0
aF0.0
aF0.0
aF2.4e-322
aF0.0
aI0
tp16
a((lp17
F0.0
aF0.0
aF0.0
aF0.0
aF0.0
aF0.0
aF0.0
aF0.0
aF0.0
aF0.0
aF0.0
aF0.0
aF0.0
aF0.0
aF0.0
aF-0.05202928077348378
aF0.21187428833196703
aF-0.35856224574450846
aF1.1906664022208762
aF-0.7090599533076931
aF0.0
aF1.4487621727896434
aF2.7793081886683906
aF0.0
aF0.0
aF0.0
aF0.0
aF0.0
aF0.0
aF0.0
aF0.0
aF0.0
aF0.0
aF0.0
aF0.0
aF0.674063777128505
aF-1.1719632733523937
aF0.7371682640566981
aF1.9511089000824122
aF-0.33596344756871355
aF0.0
aF0.9161534385582966
aF0.7951833232454404
aF0.0
aF0.0
aF0.0
aF0.0
aF0.0
aF0.0
aF0.0
aF0.0
aF0.0
aF0.0
aF0.0
aF0.0
aF0.0
aF0.0
aF0.0
aF0.0
aF2.4e-322
aF0.0
aI0
tp18
a((lp19
F0.0
aF0.0
aF0.0
aF0.0
aF0.0
aF0.0
aF0.0
aF0.0
aF0.0
aF0.0
aF0.0
aF0.0
aF0.0
aF0.0
aF0.0
aF-0.05202928077348378
aF0.21187428833196703
aF-0.35856224574450846
aF1.1906664022208762
aF-0.7090599533076931
aF0.0
aF1.4487621727896434
aF2.7793081886683906
aF0.0
aF0.0
aF0.0
aF0.0
aF0.0
aF0.0
aF0.0
aF0.0
aF0.0
aF0.0
aF0.0
aF0.0
aF0.6533754059792266
aF-1.159830358863352
aF0.7668154998300137
aF1.946526765732764
aF-0.35521058477849426
aF0.0
aF0.9223336688667103
aF0.8119189564087437
aF0.0
aF0.0
aF0.0
aF0.0
aF0.0
aF0.0
aF0.0
aF0.0
aF0.0
aF0.0
aF0.0
aF0.0
aF0.0
aF0.0
aF0.0
aF0.0
aF2.4e-322
aF0.0
aI0
tp20
a((lp21
F0.0
aF0.0
aF0.0
aF0.0
aF0.0
aF0.0
aF0.0
aF0.0
aF0.0
aF0.0
aF0.0
aF0.0
aF0.0
aF0.0
aF0.0
aF-0.05202928077348378
aF0.21187428833196703
aF-0.35856224574450846
aF1.1906664022208762
aF-0.7090599533076931
aF0.0
aF1.4487621727896434
aF2.7793081886683906
aF0.0
aF0.0
aF0.0
aF0.0
aF0.0
aF0.0
aF0.0
aF0.0
aF0.0
aF0.0
aF0.0
aF0.0
aF0.6012812157657889
aF-1.1282464712327762
aF0.8412815672761718
aF1.9390109369754633
aF-0.4071245414337874
aF0.0
aF0.937777210006739
aF0.8563915158479443
aF0.0
aF0.0
aF0.0
aF0.0
aF0.0
aF0.0
aF0.0
aF0.0
aF0.0
aF0.0
aF0.0
aF0.0
aF0.0
aF0.0
aF0.0
aF0.0
aF2.4e-322
aF0.0
aI0
tp22
a((lp23
F0.0
aF0.0
aF0.0
aF0.0
aF0.0
aF0.0
aF0.0
aF0.0
aF0.0
aF0.0
aF0.0
aF0.0
aF0.0
aF0.0
aF0.0
aF-0.05202928077348378
aF0.21187428833196703
aF-0.35856224574450846
aF1.1906664022208762
aF-0.7090599533076931
aF0.0
aF1.4487621727896434
aF2.7793081886683906
aF0.0
aF0.0
aF0.0
aF0.0
aF0.0
aF0.0
aF0.0
aF0.0
aF0.0
aF0.0
aF0.0
aF0.0
aF0.5884803577458768
aF-1.1199888329794867
aF0.860275215340611
aF1.9389648639079593
aF-0.42112265015030703
aF0.0
aF0.9404710962425525
aF0.8682566614267107
aF0.0
aF0.0
aF0.0
aF0.0
aF0.0
aF0.0
aF0.0
aF0.0
aF0.0
aF0.0
aF0.0
aF0.0
aF0.0
aF0.0
aF0.0
aF0.0
aF2.4e-322
aF0.0
aI0
tp24
a((lp25
F0.0
aF0.0
aF0.0
aF0.0
aF0.0
aF0.0
aF0.0
aF0.0
aF0.0
aF0.0
aF0.0
aF0.0
aF0.0
aF0.0
aF0.0
aF-0.05202928077348378
aF0.21187428833196703
aF-0.35856224574450846
aF1.1906664022208762
aF-0.7090599533076931
aF0.0
aF1.4487621727896434
aF2.7793081886683906
aF0.0
aF0.0
aF0.0
aF0.0
aF0.0
aF0.0
aF0.0
aF0.0
aF0.0
aF0.0
aF0.0
aF0.0
aF0.5818118356914095
aF-1.1155507745947433
aF0.8694910422248934
aF1.936085705508852
aF-0.4271834059335575
aF0.0
aF0.9449063388046653
aF0.8730033953407265
aF0.0
aF0.0
aF0.0
aF0.0
aF0.0
aF0.0
aF0.0
aF0.0
aF0.0
aF0.0
aF0.0
aF0.0
aF0.0
aF0.0
aF0.0
aF0.0
aF2.4e-322
aF0.0
aI0
tp26
a((lp27
F0.0
aF0.0
aF0.0
aF0.0
aF0.0
aF0.0
aF0.0
aF0.0
aF0.0
aF0.0
aF0.0
aF0.0
aF0.0
aF0.0
aF0.0
aF-0.05202928077348378
aF0.21187428833196703
aF-0.35856224574450846
aF1.1906664022208762
aF-0.7090599533076931
aF0.0
aF1.4487621727896434
aF2.7793081886683906
aF0.0
aF0.0
aF0.0
aF0.0
aF0.0
aF0.0
aF0.0
aF0.0
aF0.0
aF0.0
aF0.0
aF0.0
aF0.5445364299947438
aF-1.0863097629525862
aF0.9254801701173253
aF1.9308234689250228
aF-0.4716962478206414
aF0.0
aF0.9595108727127815
aF0.9097848829732845
aF0.0
aF0.0
aF0.0
aF0.0
aF0.0
aF0.0
aF0.0
aF0.0
aF0.0
aF0.0
aF0.0
aF0.0
aF0.0
aF0.0
aF0.0
aF0.0
aF2.4e-322
aF0.0
aI0
tp28
a((lp29
F0.0
aF0.0
aF0.0
aF0.0
aF0.0
aF0.0
aF0.0
aF0.0
aF0.0
aF0.0
aF0.0
aF0.0
aF0.0
aF0.0
aF0.0
aF-0.05202928077348378
aF0.21187428833196703
aF-0.35856224574450846
aF1.1906664022208762
aF-0.7090599533076931
aF0.0
aF1.4487621727896434
aF2.7793081886683906
aF0.0
aF0.0
aF0.0
aF0.0
aF0.0
aF0.0
aF0.0
aF0.0
aF0.0
aF0.0
aF0.0
aF0.0
aF0.5374520828862552
aF-1.0811372256289593
aF0.9359420240542411
aF1.9313056854783552
aF-0.47963973721439596
aF0.0
aF0.9611344506050981
aF0.9163037696796673
aF0.0
aF0.0
aF0.0
aF0.0
aF0.0
aF0.0
aF0.0
aF0.0
aF0.0
aF0.0
aF0.0
aF0.0
aF0.0
aF0.0
aF0.0
aF0.0
aF2.4e-322
aF0.0
aI0
tp30
a((lp31
F0.0
aF0.0
aF0.0
aF0.0
aF0.0
aF0.0
aF0.0
aF0.0
aF0.0
aF0.0
aF0.0
aF0.0
aF0.0
aF0.0
aF0.0
aF-0.05202928077348378
aF0.21187428833196703
aF-0.35856224574450846
aF1.1906664022208762
aF-0.7090599533076931
aF0.0
aF1.4487621727896434
aF2.7793081886683906
aF0.0
aF0.0
aF0.0
aF0.0
aF0.0
aF0.0
aF0.0
aF0.0
aF0.0
aF0.0
aF0.0
aF0.0
aF0.5157980492906621
aF-1.0603842417173504
aF0.9699864917782188
aF1.9262143390788438
aF-0.5091594995981031
aF0.0
aF0.9733416540938118
aF0.9396849158223999
aF0.0
aF0.0
aF0.0
aF0.0
aF0.0
aF0.0
aF0.0
aF0.0
aF0.0
aF0.0
aF0.0
aF0.0
aF0.0
aF0.0
aF0.0
aF0.0
aF2.4e-322
aF0.0
aI0
tp32
a((lp33
F0.0
aF0.0
aF0.0
aF0.0
aF0.0
aF0.0
aF0.0
aF0.0
aF0.0
aF0.0
aF0.0
aF0.0
aF0.0
aF0.0
aF0.0
aF-0.05202928077348378
aF0.21187428833196703
aF-0.35856224574450846
aF1.1906664022208762
aF-0.7090599533076931
aF0.0
aF1.4487621727896434
aF2.7793081886683906
aF0.0
aF0.0
aF0.0
aF0.0
aF0.0
aF0.0
aF0.0
aF0.0
aF0.0
aF0.0
aF0.0
aF0.0
aF0.5102281692673456
aF-1.0606691000412591
aF0.9762770530421119
aF1.9271838190297619
aF-0.5103587658261958
aF0.0
aF0.9743229353776953
aF0.9402632788428307
aF0.0
aF0.0
aF0.0
aF0.0
aF0.0
aF0.0
aF0.0
aF0.0
aF0.0
aF0.0
aF0.0
aF0.0
aF0.0
aF0.0
aF0.0
aF0.0
aF2.4e-322
aF0.0
aI0
tp34
a((lp35
F0.0
aF0.0
aF0.0
aF0.0
aF0.0
aF0.0
aF0.0
aF0.0
aF0.0
aF0.0
aF0.0
aF0.0
aF0.0
aF0.0
aF0.0
aF-0.05202928077348378
aF0.21187428833196703
aF-0.35856224574450846
aF1.1906664022208762
aF-0.7090599533076931
aF0.0
aF1.4487621727896434
aF2.7793081886683906
aF0.0
aF0.0
aF0.0
aF0.0
aF0.0
aF0.0
aF0.0
aF0.0
aF0.0
aF0.0
aF0.0
aF0.0
aF0.48183905053190795
aF-1.0257318124802106
aF1.0242258492559837
aF1.9207602088958131
aF-0.5571996577370966
aF0.0
aF0.9928144373168082
aF0.9769112328635362
aF0.0
aF0.0
aF0.0
aF0.0
aF0.0
aF0.0
aF0.0
aF0.0
aF0.0
aF0.0
aF0.0
aF0.0
aF0.0
aF0.0
aF0.0
aF0.0
aF2.4e-322
aF0.0
aI0
tp36
a((lp37
F0.0
aF0.0
aF0.0
aF0.0
aF0.0
aF0.0
aF0.0
aF0.0
aF0.0
aF0.0
aF0.0
aF0.0
aF0.0
aF0.0
aF0.0
aF-0.05202928077348378
aF0.21187428833196703
aF-0.35856224574450846
aF1.1906664022208762
aF-0.7090599533076931
aF0.0
aF1.4487621727896434
aF2.7793081886683906
aF0.0
aF0.0
aF0.0
aF0.0
aF0.0
aF0.0
aF0.0
aF0.0
aF0.0
aF0.0
aF0.0
aF0.0
aF0.45328261248276014
aF-0.9916040526163887
aF1.072019549142255
aF1.916287234744673
aF-0.6025183849768043
aF0.0
aF1.0124453756932175
aF1.0111312428594426
aF0.0
aF0.0
aF0.0
aF0.0
aF0.0
aF0.0
aF0.0
aF0.0
aF0.0
aF0.0
aF0.0
aF0.0
aF0.0
aF0.0
aF0.0
aF0.0
aF2.4e-322
aF0.0
aI0
tp38
a((lp39
F0.0
aF0.0
aF0.0
aF0.0
aF0.0
aF0.0
aF0.0
aF0.0
aF0.0
aF0.0
aF0.0
aF0.0
aF0.0
aF0.0
aF0.0
aF-0.05202928077348378
aF0.21187428833196703
aF-0.35856224574450846
aF1.1906664022208762
aF-0.7090599533076931
aF0.0
aF1.4487621727896434
aF2.7793081886683906
aF0.0
aF0.0
aF0.0
aF0.0
aF0.0
aF0.0
aF0.0
aF0.0
aF0.0
aF0.0
aF0.0
aF0.0
aF0.392033470150999
aF-0.896471108378516
aF1.1843481573434735
aF1.9066886860931815
aF-0.7196173139954307
aF0.0
aF1.0705383006216609
aF1.0951092144037387
aF0.0
aF0.0
aF0.0
aF0.0
aF0.0
aF0.0
aF0.0
aF0.0
aF0.0
aF0.0
aF0.0
aF0.0
aF0.0
aF0.0
aF0.0
aF0.0
aF2.4e-322
aF0.0
aI0
tp40
a((lp41
F0.0
aF0.0
aF0.0
aF0.0
aF0.0
aF0.0
aF0.0
aF0.0
aF0.0
aF0.0
aF0.0
aF0.0
aF0.0
aF0.0
aF0.0
aF-0.05202928077348378
aF0.21187428833196703
aF-0.35856224574450846
aF1.1906664022208762
aF-0.7090599533076931
aF0.0
aF1.4487621727896434
aF2.7793081886683906
aF0.0
aF0.0
aF0.0
aF0.0
aF0.0
aF0.0
aF0.0
aF0.0
aF0.0
aF0.0
aF0.0
aF0.0
aF0.3375108992082921
aF-0.7728304720858004
aF1.301478500445347
aF1.9018992988552514
aF-0.8572690284121864
aF0.0
aF1.1519218201898427
aF1.1859490978110512
aF0.0
aF0.0
aF0.0
aF0.0
aF0.0
aF0.0
aF0.0
aF0.0
aF0.0
aF0.0
aF0.0
aF0.0
aF0.0
aF0.0
aF0.0
aF0.0
aF2.4e-322
aF0.0
aI0
tp42
a((lp43
F0.0
aF0.0
aF0.0
aF0.0
aF0.0
aF0.0
aF0.0
aF0.0
aF0.0
aF0.0
aF0.0
aF0.0
aF0.0
aF0.0
aF0.0
aF-0.05202928077348378
aF0.21187428833196703
aF-0.35856224574450846
aF1.1906664022208762
aF-0.7090599533076931
aF0.0
aF1.4487621727896434
aF2.7793081886683906
aF0.0
aF0.0
aF0.0
aF0.0
aF0.0
aF0.0
aF0.0
aF0.0
aF0.0
aF0.0
aF0.0
aF0.0
aF0.30100364547789116
aF-0.6167746113282722
aF1.4188555310965487
aF1.89434094791934
aF-1.007633406864562
aF0.0
aF1.265108090086085
aF1.2724057059666347
aF0.0
aF0.0
aF0.0
aF0.0
aF0.0
aF0.0
aF0.0
aF0.0
aF0.0
aF0.0
aF0.0
aF0.0
aF0.0
aF0.0
aF0.0
aF0.0
aF2.4e-322
aF0.0
aI0
tp44
a((lp45
F0.0
aF0.0
aF0.0
aF0.0
aF0.0
aF0.0
aF0.0
aF0.0
aF0.0
aF0.0
aF0.0
aF0.0
aF0.0
aF0.0
aF0.0
aF-0.05202928077348378
aF0.21187428833196703
aF-0.35856224574450846
aF1.1906664022208762
aF-0.7090599533076931
aF0.0
aF1.4487621727896434
aF2.7793081886683906
aF0.0
aF0.0
aF0.0
aF0.0
aF0.0
aF0.0
aF0.0
aF0.0
aF0.0
aF0.0
aF0.0
aF0.0
aF0.4337743109044188
aF-0.9652641409263971
aF1.0774003684442606
aF1.956063970990131
aF2.492449924207751
aF0.0
aF-0.9778252114408745
aF-2.10058283730638
aF0.0
aF0.0
aF0.0
aF0.0
aF0.0
aF0.0
aF0.0
aF0.0
aF0.0
aF0.0
aF0.0
aF0.0
aF0.0
aF0.0
aF0.0
aF0.0
aF2.4e-322
aF0.0
aI0
tp46
a.