(lp0
((lp1
F0.0
aF0.0
aF0.0
aF0.0
aF0.0
aF0.0
aF0.0
aF0.0
aF0.0
aF0.0
aF0.0
aF0.0
aF0.0
aF0.0
aF0.0
aF-0.008249118071103113
aF0.23271290926948612
aF-0.44126238380878047
aF1.2302839062739093
aF2.5142552911344906
aF0.0
aF-1.3724217251419706
aF-0.391254577092677
aF0.0
aF0.0
aF0.0
aF0.0
aF0.0
aF0.0
aF0.0
aF0.0
aF0.0
aF0.0
aF0.0
aF0.0
aF0.6922958832807979
aF-1.1793254882430275
aF0.712522378186017
aF1.951504329492572
aF-0.32072887478915785
aF0.0
aF0.9128132698911003
aF0.7811955550681388
aF0.0
aF0.0
aF0.0
aF0.0
aF0.0
aF0.0
aF0.0
aF0.0
aF0.0
aF0.0
aF0.0
aF0.0
aF0.0
aF0.0
aF0.0
aF0.0
aF2.4e-322
aF0.0
aI0
tp2
a((lp3
F0.0
aF0.0
aF0.0
aF0.0
aF0.0
aF0.0
aF0.0
aF0.0
aF0.0
aF0.0
aF0.0
aF0.0
aF0.0
aF0.0
aF0.0
aF-0.008249118071103113
aF0.23271290926948612
aF-0.44126238380878047
aF1.2302839062739093
aF2.5142552911344906
aF0.0
aF-1.3724217251419706
aF-0.391254577092677
aF0.0
aF0.0
aF0.0
aF0.0
aF0.0
aF0.0
aF0.0
aF0.0
aF0.0
aF0.0
aF0.0
aF0.0
aF0.6433257952604035
aF-1.156094802380147
aF0.7806332054927475
aF1.9475112220114867
aF-0.362969646648682
aF0.0
aF0.9234229029230782
aF0.8193493932072768
aF0.0
aF0.0
aF0.0
aF0.0
aF0.0
aF0.0
aF0.0
aF0.0
aF0.0
aF0.0
aF0.0
aF0.0
aF0.0
aF0.0
aF0.0
aF0.0
aF2.4e-322
aF0.0
aI0
tp4
a((lp5
F0.0
aF0.0
aF0.0
aF0.0
aF0.0
aF0.0
aF0.0
aF0.0
aF0.0
aF0.0
aF0.0
aF0.0
aF0.0
aF0.0
aF0.0
aF-0.008249118071103113
aF0.23271290926948612
aF-0.44126238380878047
aF1.2302839062739093
aF2.5142552911344906
aF0.0
aF-1.3724217251419706
aF-0.391254577092677
aF0.0
aF0.0
aF0.0
aF0.0
aF0.0
aF0.0
aF0.0
aF0.0
aF0.0
aF0.0
aF0.0
aF0.0
aF0.609972801507185
aF-1.1339025185551441
aF0.8287513441097367
aF1.9403479305803022
aF-0.39813758411515193
aF0.0
aF0.934882731490119
aF0.8488490970565359
aF0.0
aF0.0
aF0.0
aF0.0
aF0.0
aF0.0
aF0.0
aF0.0
aF0.0
aF0.0
aF0.0
aF0.0
aF0.0
aF0.0
aF0.0
aF0.0
aF2.4e-322
aF0.0
aI0
tp6
a((lp7
F0.0
aF0.0
aF0.0
aF0.0
aF0.0
aF0.0
aF0.0
aF0.0
aF0.0
aF0.0
aF0.0
aF0.0
aF0.0
aF0.0
aF0.0
aF-0.008249118071103113
aF0.23271290926948612
aF-0.44126238380878047
aF1.2302839062739093
aF2.5142552911344906
aF0.0
aF-1.3724217251419706
aF-0.391254577092677
aF0.0
aF0.0
aF0.0
aF0.0
aF0.0
aF0.0
aF0.0
aF0.0
aF0.0
aF0.0
aF0.0
aF0.0
aF0.5916603338599148
aF-1.122817487833318
aF0.8549318163968195
aF1.9386046128452192
aF-0.4167376586081719
aF0.0
aF0.9405938312968728
aF0.8645516050776259
aF0.0
aF0.0
aF0.0
aF0.0
aF0.0
aF0.0
aF0.0
aF0.0
aF0.0
aF0.0
aF0.0
aF0.0
aF0.0
aF0.0
aF0.0
aF0.0
aF2.4e-322
aF0.0
aI0
tp8
a((lp9
F0.0
aF0.0
aF0.0
aF0.0
aF0.0
aF0.0
aF0.0
aF0.0
aF0.0
aF0.0
aF0.0
aF0.0
aF0.0
aF0.0
aF0.0
aF-0.008249118071103113
aF0.23271290926948612
aF-0.44126238380878047
aF1.2302839062739093
aF2.5142552911344906
aF0.0
aF-1.3724217251419706
aF-0.391254577092677
aF0.0
aF0.0
aF0.0
aF0.0
aF0.0
aF0.0
aF0.0
aF0.0
aF0.0
aF0.0
aF0.0
aF0.0
aF0.532699106315974
aF-1.0758941605199146
aF0.9436940833967971
aF1.9287580010218102
aF-0.48680088449497444
aF0.0
aF0.9650758848943327
aF0.921888828785879
aF0.0
aF0.0
aF0.0
aF0.0
aF0.0
aF0.0
aF0.0
aF0.0
aF0.0
aF0.0
aF0.0
aF0.0
aF0.0
aF0.0
aF0.0
aF0.0
aF2.4e-322
aF0.0
aI0
tp10
a((lp11
F0.0
aF0.0
aF0.0
aF0.0
aF0.0
aF0.0
aF0.0
aF0.0
aF0.0
aF0.0
aF0.0
aF0.0
aF0.0
aF0.0
aF0.0
aF-0.008249118071103113
aF0.23271290926948612
aF-0.44126238380878047
aF1.2302839062739093
aF2.5142552911344906
aF0.0
aF-1.3724217251419706
aF-0.391254577092677
aF0.0
aF0.0
aF0.0
aF0.0
aF0.0
aF0.0
aF0.0
aF0.0
aF0.0
aF0.0
aF0.0
aF0.0
aF0.48868045204327093
aF-1.0336312776115189
aF1.012912387673327
aF1.9224552927142529
aF-0.5468473159759496
aF0.0
aF0.9881830043385614
aF0.9690961943844894
aF0.0
aF0.0
aF0.0
aF0.0
aF0.0
aF0.0
aF0.0
aF0.0
aF0.0
aF0.0
aF0.0
aF0.0
aF0.0
aF0.0
aF0.0
aF0.0
aF2.4e-322
aF0.0
aI0
tp12
a((lp13
F0.0
aF0.0
aF0.0
aF0.0
aF0.0
aF0.0
aF0.0
aF0.0
aF0.0
aF0.0
aF0.0
aF0.0
aF0.0
aF0.0
aF0.0
aF-0.008249118071103113
aF0.23271290926948612
aF-0.44126238380878047
aF1.2302839062739093
aF2.5142552911344906
aF0.0
aF-1.3724217251419706
aF-0.391254577092677
aF0.0
aF0.0
aF0.0
aF0.0
aF0.0
aF0.0
aF0.0
aF0.0
aF0.0
aF0.0
aF0.0
aF0.0
aF0.2855214889106233
aF-0.4989311925209198
aF1.4963698750699177
aF1.89338833514369
aF-1.1114892166797663
aF0.0
aF1.3555336674693017
aF1.3240319525838777
aF0.0
aF0.0
aF0.0
aF0.0
aF0.0
aF0.0
aF0.0
aF0.0
aF0.0
aF0.0
aF0.0
aF0.0
aF0.0
aF0.0
aF0.0
aF0.0
aF2.4e-322
aF0.0
aI0
tp14
a((lp15
F0.0
aF0.0
aF0.0
aF0.0
aF0.0
aF0.0
aF0.0
aF0.0
aF0.0
aF0.0
aF0.0
aF0.0
aF0.0
aF0.0
aF0.0
aF-0.008249118071103113
aF0.23271290926948612
aF-0.44126238380878047
aF1.2302839062739093
aF2.5142552911344906
aF0.0
aF-1.3724217251419706
aF-0.391254577092677
aF0.0
aF0.0
aF0.0
aF0.0
aF0.0
aF0.0
aF0.0
aF0.0
aF0.0
aF0.0
aF0.0
aF0.0
aF0.28228077675092433
aF-0.19608023674361907
aF1.627992606106358
aF1.9120933845638934
aF1.7744294109316858
aF0.0
aF-1.5585156735942656
aF-1.7283539644085224
aF0.0
aF0.0
aF0.0
aF0.0
aF0.0
aF0.0
aF0.0
aF0.0
aF0.0
aF0.0
aF0.0
aF0.0
aF0.0
aF0.0
aF0.0
aF0.0
aF2.4e-322
aF0.0
aI0
tp16
a((lp17
F0.0
aF0.0
aF0.0
aF0.0
aF0.0
aF0.0
aF0.0
aF0.0
aF0.0
aF0.0
aF0.0
aF0.0
aF0.0
aF0.0
aF0.0
aF-0.008249118071103113
aF0.23271290926948612
aF-0.44126238380878047
aF1.2302839062739093
aF2.5142552911344906
aF0.0
aF-1.3724217251419706
aF-0.391254577092677
aF0.0
aF0.0
aF0.0
aF0.0
aF0.0
aF0.0
aF0.0
aF0.0
aF0.0
aF0.0
aF0.0
aF0.0
aF0.2828667973596915
aF-0.1931580460681991
aF1.6294740618217565
aF1.9113910895436803
aF1.772270255782107
aF0.0
aF-1.5609348918770714
aF-1.7281414468592275
aF0.0
aF0.0
aF0.0
aF0.0
aF0.0
aF0.0
aF0.0
aF0.0
aF0.0
aF0.0
aF0.0
aF0.0
aF0.0
aF0.0
aF0.0
aF0.0
aF2.4e-322
aF0.0
aI0
tp18
a((lp19
F0.0
aF0.0
aF0.0
aF0.0
aF0.0
aF0.0
aF0.0
aF0.0
aF0.0
aF0.0
aF0.0
aF0.0
aF0.0
aF0.0
aF0.0
aF-0.008249118071103113
aF0.23271290926948612
aF-0.44126238380878047
aF1.2302839062739093
aF2.5142552911344906
aF0.0
aF-1.3724217251419706
aF-0.391254577092677
aF0.0
aF0.0
aF0.0
aF0.0
aF0.0
aF0.0
aF0.0
aF0.0
aF0.0
aF0.0
aF0.0
aF0.0
aF0.2845200589053361
aF-0.1812734098223838
aF1.6355634231268552
aF1.9100410039596958
aF1.7631606824002797
aF0.0
aF-1.5708
aF-1.7265165950797718
aF0.0
aF0.0
aF0.0
aF0.0
aF0.0
aF0.0
aF0.0
aF0.0
aF0.0
aF0.0
aF0.0
aF0.0
aF0.0
aF0.0
aF0.0
aF0.0
aF2.4e-322
aF0.0
aI0
tp20
a((lp21
F0.0
aF0.0
aF0.0
aF0.0
aF0.0
aF0.0
aF0.0
aF0.0
aF0.0
aF0.0
aF0.0
aF0.0
aF0.0
aF0.0
aF0.0
aF-0.008249118071103113
aF0.23271290926948612
aF-0.44126238380878047
aF1.2302839062739093
aF2.5142552911344906
aF0.0
aF-1.3724217251419706
aF-0.391254577092677
aF0.0
aF0.0
aF0.0
aF0.0
aF0.0
aF0.0
aF0.0
aF0.0
aF0.0
aF0.0
aF0.0
aF0.0
aF0.28419181990159015
aF-0.18156130682225471
aF1.6356630135161498
aF1.9104822473388274
aF1.7633146968457751
aF0.0
aF-1.5708
aF-1.7264502676771394
aF0.0
aF0.0
aF0.0
aF0.0
aF0.0
aF0.0
aF0.0
aF0.0
aF0.0
aF0.0
aF0.0
aF0.0
aF0.0
aF0.0
aF0.0
aF0.0
aF2.4e-322
aF0.0
aI0
tp22
a((lp23
F0.0
aF0.0
aF0.0
aF0.0
aF0.0
aF0.0
aF0.0
aF0.0
aF0.0
aF0.0
aF0.0
aF0.0
aF0.0
aF0.0
aF0.0
aF-0.008249118071103113
aF0.23271290926948612
aF-0.44126238380878047
aF1.2302839062739093
aF2.5142552911344906
aF0.0
aF-1.3724217251419706
aF-0.391254577092677
aF0.0
aF0.0
aF0.0
aF0.0
aF0.0
aF0.0
aF0.0
aF0.0
aF0.0
aF0.0
aF0.0
aF0.0
aF0.28446222978637065
aF-0.18131838352218602
aF1.6355773081015472
aF1.910073993806968
aF1.7632004789699087
aF0.0
aF-1.5708
aF-1.726546365406534
aF0.0
aF0.0
aF0.0
aF0.0
aF0.0
aF0.0
aF0.0
aF0.0
aF0.0
aF0.0
aF0.0
aF0.0
aF0.0
aF0.0
aF0.0
aF0.0
aF2.4e-322
aF0.0
aI0
tp24
a((lp25
F0.0
aF0.0
aF0.0
aF0.0
aF0.0
aF0.0
aF0.0
aF0.0
aF0.0
aF0.0
aF0.0
aF0.0
aF0.0
aF0.0
aF0.0
aF-0.008249118071103113
aF0.23271290926948612
aF-0.44126238380878047
aF1.2302839062739093
aF2.5142552911344906
aF0.0
aF-1.3724217251419706
aF-0.391254577092677
aF0.0
aF0.0
aF0.0
aF0.0
aF0.0
aF0.0
aF0.0
aF0.0
aF0.0
aF0.0
aF0.0
aF0.0
aF0.2805912073794774
aF-0.42572434323997993
aF1.497397736427589
aF1.9139911386460884
aF1.9542517086235176
aF0.0
aF-1.367537650266747
aF-1.7878787604300412
aF0.0
aF0.0
aF0.0
aF0.0
aF0.0
aF0.0
aF0.0
aF0.0
aF0.0
aF0.0
aF0.0
aF0.0
aF0.0
aF0.0
aF0.0
aF0.0
aF2.4e-322
aF0.0
aI0
tp26
a((lp27
F0.0
aF0.0
aF0.0
aF0.0
aF0.0
aF0.0
aF0.0
aF0.0
aF0.0
aF0.0
aF0.0
aF0.0
aF0.0
aF0.0
aF0.0
aF-0.008249118071103113
aF0.23271290926948612
aF-0.44126238380878047
aF1.2302839062739093
aF2.5142552911344906
aF0.0
aF-1.3724217251419706
aF-0.391254577092677
aF0.0
aF0.0
aF0.0
aF0.0
aF0.0
aF0.0
aF0.0
aF0.0
aF0.0
aF0.0
aF0.0
aF0.0
aF0.35784345062166983
aF-0.8223650353523317
aF1.222444326017654
aF1.9382574237871188
aF2.3245605896802455
aF0.0
aF-1.0701227442501633
aF-1.985763500744263
aF0.0
aF0.0
aF0.0
aF0.0
aF0.0
aF0.0
aF0.0
aF0.0
aF0.0
aF0.0
aF0.0
aF0.0
aF0.0
aF0.0
aF0.0
aF0.0
aF2.4e-322
aF0.0
aI0
tp28
a((lp29
F0.0
aF0.0
aF0.0
aF0.0
aF0.0
aF0.0
aF0.0
aF0.0
aF0.0
aF0.0
aF0.0
aF0.0
aF0.0
aF0.0
aF0.0
aF-0.008249118071103113
aF0.23271290926948612
aF-0.44126238380878047
aF1.2302839062739093
aF2.5142552911344906
aF0.0
aF-1.3724217251419706
aF-0.391254577092677
aF0.0
aF0.0
aF0.0
aF0.0
aF0.0
aF0.0
aF0.0
aF0.0
aF0.0
aF0.0
aF0.0
aF0.0
aF0.36838479044019873
aF-0.8521619765278593
aF1.1977799053228426
aF1.9428446877882688
aF2.356598673524349
aF0.0
aF-1.0509744000441568
aF-2.0063243534515722
aF0.0
aF0.0
aF0.0
aF0.0
aF0.0
aF0.0
aF0.0
aF0.0
aF0.0
aF0.0
aF0.0
aF0.0
aF0.0
aF0.0
aF0.0
aF0.0
aF2.4e-322
aF0.0
aI0
tp30
a((lp31
F0.0
aF0.0
aF0.0
aF0.0
aF0.0
aF0.0
aF0.0
aF0.0
aF0.0
aF0.0
aF0.0
aF0.0
aF0.0
aF0.0
aF0.0
aF-0.008249118071103113
aF0.23271290926948612
aF-0.44126238380878047
aF1.2302839062739093
aF2.5142552911344906
aF0.0
aF-1.3724217251419706
aF-0.391254577092677
aF0.0
aF0.0
aF0.0
aF0.0
aF0.0
aF0.0
aF0.0
aF0.0
aF0.0
aF0.0
aF0.0
aF0.0
aF0.5448444042055492
aF-1.0863181211559831
aF0.9030494585927691
aF1.9782613446237616
aF2.6590473221611837
aF0.0
aF-0.9078134779135659
aF-2.2273733522060004
aF0.0
aF0.0
aF0.0
aF0.0
aF0.0
aF0.0
aF0.0
aF0.0
aF0.0
aF0.0
aF0.0
aF0.0
aF0.0
aF0.0
aF0.0
aF0.0
aF2.4e-322
aF0.0
aI0
tp32
a.