(lp0
((lp1
F0.0
aF0.0
aF0.0
aF0.0
aF0.0
aF0.0
aF0.0
aF0.0
aF0.0
aF0.0
aF0.0
aF0.0
aF0.0
aF0.0
aF0.0
aF1.70168
aF0.8257502187773772
aF-0.8506986728047584
aF1.666539222265439
aF1.9834668719690223
aF0.0
aF-0.44913229294804385
aF0.52936673077
aF0.0
aF0.0
aF0.0
aF0.0
aF0.0
aF0.0
aF0.0
aF0.0
aF0.0
aF0.0
aF0.0
aF0.0
aF0.16407295064662875
aF-0.20991964524598125
aF0.2601907434829727
aF1.1823933417865624
aF-0.4277671346297998
aF0.0
aF0.6506280802504292
aF1.1754970475510895
aF0.0
aF0.0
aF0.0
aF0.0
aF0.0
aF0.0
aF0.0
aF0.0
aF0.0
aF0.0
aF0.0
aF0.0
aF0.0
aF0.0
aF0.0
aF0.0
aF0.03
aF-0.03
aI0
tp2
a.