(lp0
(lp1
F0.0
aF0.0
aF0.0
aF0.0
aF0.0
aF0.0
aF0.0
aF0.0
aF0.0
aF0.0
aF0.0
aF0.0
aF0.0
aF0.0
aF0.0
aF-0.2939253848941874
aF0.13985110766593056
aF-0.10425357599303897
aF1.2455387930109838
aF2.0860418887974834
aF0.0
aF-1.5707998012129236
aF-0.21119339333095866
aF0.0
aF0.0
aF0.0
aF0.0
aF0.0
aF0.0
aF0.0
aF0.0
aF0.0
aF0.0
aF0.0
aF0.0
aF-0.01283920132786509
aF-0.11024781882692736
aF0.5699501272584158
aF1.1494443606099285
aF-0.8806490151302135
aF0.0
aF0.7671168181235251
aF-0.012164477157667442
aF0.0
aF0.0
aF0.0
aF0.0
aF0.0
aF0.0
aF0.0
aF0.0
aF0.0
aF0.0
aF0.0
aF0.0
aF0.0
aF0.0
aF1.1642115655396142e-07
aF0.0
aF1.421412242050739e-10
aF0.0
aa(lp2
F0.0
aF0.0
aF0.0
aF0.0
aF0.0
aF0.0
aF0.0
aF0.0
aF0.0
aF0.0
aF0.0
aF0.0
aF0.0
aF0.0
aF0.0
aF-0.2939253848941874
aF0.13985110766593056
aF-0.10425357599303897
aF1.2455387930109838
aF2.0860418887974834
aF0.0
aF-1.5707998012129236
aF-0.21119339333095866
aF0.0
aF0.0
aF0.0
aF0.0
aF0.0
aF0.0
aF0.0
aF0.0
aF0.0
aF0.0
aF0.0
aF0.0
aF-0.01283920132786509
aF-0.11024781882692736
aF0.5699501272584158
aF1.1494443606099285
aF-0.8806490151302135
aF0.0
aF0.7671168181235251
aF-0.012164477157667442
aF0.0
aF0.0
aF0.0
aF0.0
aF0.0
aF0.0
aF0.0
aF0.0
aF0.0
aF0.0
aF0.0
aF0.0
aF0.0
aF0.0
aF1.1642115655396142e-07
aF0.0
aF1.421412242142634e-10
aF-2.8290878599458527e-21
aa(lp3
F0.0
aF0.0
aF0.0
aF0.0
aF0.0
aF0.0
aF0.0
aF0.0
aF0.0
aF0.0
aF0.0
aF0.0
aF0.0
aF0.0
aF0.0
aF-0.2939253848941874
aF0.13985110766593056
aF-0.10425357599303897
aF1.2455387930109838
aF2.0860418887974834
aF0.0
aF-1.5707998012129236
aF-0.21119339333095866
aF0.0
aF0.0
aF0.0
aF0.0
aF0.0
aF0.0
aF0.0
aF0.0
aF0.0
aF0.0
aF0.0
aF0.0
aF0.06951815951025367
aF-0.46713309040184064
aF0.8056447050624465
aF1.2578146040788392
aF-0.7002642773627245
aF0.0
aF1.0143843029718358
aF0.235987580765487
aF0.0
aF0.0
aF0.0
aF0.0
aF0.0
aF0.0
aF0.0
aF0.0
aF0.0
aF0.0
aF0.0
aF0.0
aF0.0
aF0.0
aF1.1642115655396142e-07
aF0.0
aF1.42141228410745e-10
aF-1.2947625798486948e-18
aa(lp4
F0.0
aF0.0
aF0.0
aF0.0
aF0.0
aF0.0
aF0.0
aF0.0
aF0.0
aF0.0
aF0.0
aF0.0
aF0.0
aF0.0
aF0.0
aF-0.2939253848941874
aF0.13985110766593056
aF-0.10425357599303897
aF1.2455387930109838
aF2.0860418887974834
aF0.0
aF-1.5707998012129236
aF-0.21119339333095866
aF0.0
aF0.0
aF0.0
aF0.0
aF0.0
aF0.0
aF0.0
aF0.0
aF0.0
aF0.0
aF0.0
aF0.0
aF0.2527452160140297
aF-1.2611245096843775
aF1.330013423115689
aF1.4989146165286749
aF-0.2989478169639017
aF0.0
aF1.564500199799824
aF0.7880714585865125
aF0.0
aF0.0
aF0.0
aF0.0
aF0.0
aF0.0
aF0.0
aF0.0
aF0.0
aF0.0
aF0.0
aF0.0
aF0.0
aF0.0
aF1.1642115655396142e-07
aF0.0
aF1.4214122848560124e-10
aF-1.3178079053093458e-18
aa(lp5
F0.0
aF0.0
aF0.0
aF0.0
aF0.0
aF0.0
aF0.0
aF0.0
aF0.0
aF0.0
aF0.0
aF0.0
aF0.0
aF0.0
aF0.0
aF-0.2939253848941874
aF0.13985110766593056
aF-0.10425357599303897
aF1.2455387930109838
aF2.0860418887974834
aF0.0
aF-1.5707998012129236
aF-0.21119339333095866
aF0.0
aF0.0
aF0.0
aF0.0
aF0.0
aF0.0
aF0.0
aF0.0
aF0.0
aF0.0
aF0.0
aF0.0
aF0.253704362995725
aF-1.265280852572968
aF1.3327583598232535
aF1.5001767136972948
aF-0.29684702748967773
aF0.0
aF1.5673799164317086
aF0.7909614770977457
aF0.0
aF0.0
aF0.0
aF0.0
aF0.0
aF0.0
aF0.0
aF0.0
aF0.0
aF0.0
aF0.0
aF0.0
aF0.0
aF0.0
aF1.1642115655396142e-07
aF0.0
aF1.42141228010389e-10
aF-1.1715085383380978e-18
aa(lp6
F0.0
aF0.0
aF0.0
aF0.0
aF0.0
aF0.0
aF0.0
aF0.0
aF0.0
aF0.0
aF0.0
aF0.0
aF0.0
aF0.0
aF0.0
aF-0.2939253848941874
aF0.13985110766593056
aF-0.10425357599303897
aF1.2455387930109838
aF2.0860418887974834
aF0.0
aF-1.5707998012129236
aF-0.21119339333095866
aF0.0
aF0.0
aF0.0
aF0.0
aF0.0
aF0.0
aF0.0
aF0.0
aF0.0
aF0.0
aF0.0
aF0.0
aF0.2537043629957252
aF-1.265280852572968
aF1.3327583598232535
aF1.500176713697295
aF-0.29684702748967784
aF0.0
aF1.5673799164317086
aF0.790961477097746
aF0.0
aF0.0
aF0.0
aF0.0
aF0.0
aF0.0
aF0.0
aF0.0
aF0.0
aF0.0
aF0.0
aF0.0
aF0.0
aF0.0
aF1.1642115655396142e-07
aF0.0
aF1.421412242050739e-10
aF0.0
aa.