(lp0
(lp1
F0.0
aF0.0
aF0.0
aF0.0
aF0.0
aF0.0
aF0.0
aF0.0
aF0.0
aF0.0
aF0.0
aF0.0
aF0.0
aF0.0
aF0.0
aF-0.2939254498744921
aF0.13985110766592734
aF-0.10425356875831301
aF1.2455388203390922
aF2.086042094397949
aF0.0
aF-1.5707998011888655
aF-0.21119339333093534
aF0.0
aF0.0
aF0.0
aF0.0
aF0.0
aF0.0
aF0.0
aF0.0
aF0.0
aF0.0
aF0.0
aF0.0
aF-0.012839204326663634
aF-0.1102478188269238
aF0.5699501436065937
aF1.1494444162971922
aF-0.8806489716171404
aF0.0
aF0.7671168181591828
aF-0.012164084921415075
aF0.0
aF0.0
aF0.0
aF0.0
aF0.0
aF0.0
aF0.0
aF0.0
aF0.0
aF0.0
aF0.0
aF0.0
aF0.0
aF0.0
aF0.0
aF0.0
aF0.0
aF0.0
aa(lp2
F0.0
aF0.0
aF0.0
aF0.0
aF0.0
aF0.0
aF0.0
aF0.0
aF0.0
aF0.0
aF0.0
aF0.0
aF0.0
aF0.0
aF0.0
aF-0.2939254498744921
aF0.13985110766592734
aF-0.10425356875831301
aF1.2455388203390922
aF2.086042094397949
aF0.0
aF-1.5707998011888655
aF-0.21119339333093534
aF0.0
aF0.0
aF0.0
aF0.0
aF0.0
aF0.0
aF0.0
aF0.0
aF0.0
aF0.0
aF0.0
aF0.0
aF-0.012839181927678533
aF-0.11024784649558236
aF0.569950097054256
aF1.1494444152987429
aF-0.8806489695643214
aF0.0
aF0.7671168313652851
aF-0.012164066666086581
aF0.0
aF0.0
aF0.0
aF0.0
aF0.0
aF0.0
aF0.0
aF0.0
aF0.0
aF0.0
aF0.0
aF0.0
aF0.0
aF0.0
aF0.0
aF0.0
aF3.473616734710782e-10
aF-9.916128248077397e-11
aa(lp3
F0.0
aF0.0
aF0.0
aF0.0
aF0.0
aF0.0
aF0.0
aF0.0
aF0.0
aF0.0
aF0.0
aF0.0
aF0.0
aF0.0
aF0.0
aF-0.2939254498744921
aF0.13985110766592734
aF-0.10425356875831301
aF1.2455388203390922
aF2.086042094397949
aF0.0
aF-1.5707998011888655
aF-0.21119339333093534
aF0.0
aF0.0
aF0.0
aF0.0
aF0.0
aF0.0
aF0.0
aF0.0
aF0.0
aF0.0
aF0.0
aF0.0
aF-0.012838331933312644
aF-0.11024860088328292
aF0.5699530427531457
aF1.1494465916366727
aF-0.880649953980907
aF0.0
aF0.7671188692730015
aF-0.012160021913100331
aF0.0
aF0.0
aF0.0
aF0.0
aF0.0
aF0.0
aF0.0
aF0.0
aF0.0
aF0.0
aF0.0
aF0.0
aF0.0
aF0.0
aF0.0
aF0.0
aF4.86243335075146e-10
aF-2.0323837429422847e-10
aa(lp4
F0.0
aF0.0
aF0.0
aF0.0
aF0.0
aF0.0
aF0.0
aF0.0
aF0.0
aF0.0
aF0.0
aF0.0
aF0.0
aF0.0
aF0.0
aF-0.2939254498744921
aF0.13985110766592734
aF-0.10425356875831301
aF1.2455388203390922
aF2.086042094397949
aF0.0
aF-1.5707998011888655
aF-0.21119339333093534
aF0.0
aF0.0
aF0.0
aF0.0
aF0.0
aF0.0
aF0.0
aF0.0
aF0.0
aF0.0
aF0.0
aF0.0
aF0.19700625557815596
aF-0.29570039095450695
aF1.299700897483542
aF1.6889611572336756
aF-1.125033590332762
aF0.0
aF1.2705978563215587
aF0.9872011416496496
aF0.0
aF0.0
aF0.0
aF0.0
aF0.0
aF0.0
aF0.0
aF0.0
aF0.0
aF0.0
aF0.0
aF0.0
aF0.0
aF0.0
aF0.0
aF0.0
aF2.32670917696901e-07
aF-1.7577195906039986e-07
aa(lp5
F0.0
aF0.0
aF0.0
aF0.0
aF0.0
aF0.0
aF0.0
aF0.0
aF0.0
aF0.0
aF0.0
aF0.0
aF0.0
aF0.0
aF0.0
aF-0.2939254498744921
aF0.13985110766592734
aF-0.10425356875831301
aF1.2455388203390922
aF2.086042094397949
aF0.0
aF-1.5707998011888655
aF-0.21119339333093534
aF0.0
aF0.0
aF0.0
aF0.0
aF0.0
aF0.0
aF0.0
aF0.0
aF0.0
aF0.0
aF0.0
aF0.0
aF0.20177671716844045
aF-0.29991591310835086
aF1.3162917216126448
aF1.7012272395010892
aF-1.130589932021413
aF0.0
aF1.282043763375913
aF1.0099202878669795
aF0.0
aF0.0
aF0.0
aF0.0
aF0.0
aF0.0
aF0.0
aF0.0
aF0.0
aF0.0
aF0.0
aF0.0
aF0.0
aF0.0
aF0.0
aF0.0
aF2.2025287218177085e-07
aF-1.6639097240181951e-07
aa(lp6
F0.0
aF0.0
aF0.0
aF0.0
aF0.0
aF0.0
aF0.0
aF0.0
aF0.0
aF0.0
aF0.0
aF0.0
aF0.0
aF0.0
aF0.0
aF-0.2939254498744921
aF0.13985110766592734
aF-0.10425356875831301
aF1.2455388203390922
aF2.086042094397949
aF0.0
aF-1.5707998011888655
aF-0.21119339333093534
aF0.0
aF0.0
aF0.0
aF0.0
aF0.0
aF0.0
aF0.0
aF0.0
aF0.0
aF0.0
aF0.0
aF0.0
aF0.2776404174974802
aF-0.36695399395731204
aF1.5801338902172215
aF1.8962937583430581
aF-1.2189522190769317
aF0.0
aF1.464065954482612
aF1.371218809131063
aF0.0
aF0.0
aF0.0
aF0.0
aF0.0
aF0.0
aF0.0
aF0.0
aF0.0
aF0.0
aF0.0
aF0.0
aF0.0
aF0.0
aF0.0
aF0.0
aF1.7046021098140217e-14
aF-1.2989227396136169e-14
aa(lp7
F0.0
aF0.0
aF0.0
aF0.0
aF0.0
aF0.0
aF0.0
aF0.0
aF0.0
aF0.0
aF0.0
aF0.0
aF0.0
aF0.0
aF0.0
aF-0.2939254498744921
aF0.13985110766592734
aF-0.10425356875831301
aF1.2455388203390922
aF2.086042094397949
aF0.0
aF-1.5707998011888655
aF-0.21119339333093534
aF0.0
aF0.0
aF0.0
aF0.0
aF0.0
aF0.0
aF0.0
aF0.0
aF0.0
aF0.0
aF0.0
aF0.0
aF0.2776404174975238
aF-0.36695399395695505
aF1.5801338902185027
aF1.896293758344236
aF-1.2189522190776407
aF0.0
aF1.46406595448285
aF1.3712188091315647
aF0.0
aF0.0
aF0.0
aF0.0
aF0.0
aF0.0
aF0.0
aF0.0
aF0.0
aF0.0
aF0.0
aF0.0
aF0.0
aF0.0
aF0.0
aF0.0
aF0.0
aF0.0
aa.