(lp0
(lp1
F0.0
aF0.0
aF0.0
aF0.0
aF0.0
aF0.0
aF0.0
aF0.0
aF0.0
aF0.0
aF0.0
aF0.0
aF0.0
aF0.0
aF0.0
aF-0.2939253848941874
aF0.13985110766593056
aF-0.10425357599303897
aF1.2455387930109838
aF2.0860418887974834
aF0.0
aF-1.5707998012129236
aF-0.21119339333095866
aF0.0
aF0.0
aF0.0
aF0.0
aF0.0
aF0.0
aF0.0
aF0.0
aF0.0
aF0.0
aF0.0
aF0.0
aF-0.01283920132786509
aF-0.11024781882692736
aF0.5699501272584158
aF1.1494443606099285
aF-0.8806490151302135
aF0.0
aF0.7671168181235251
aF-0.012164477157667442
aF0.0
aF0.0
aF0.0
aF0.0
aF0.0
aF0.0
aF0.0
aF0.0
aF0.0
aF0.0
aF0.0
aF0.0
aF0.0
aF0.0
aF1.1642115655396142e-07
aF0.0
aF1.421412242050739e-10
aF0.0
aa(lp2
F0.0
aF0.0
aF0.0
aF0.0
aF0.0
aF0.0
aF0.0
aF0.0
aF0.0
aF0.0
aF0.0
aF0.0
aF0.0
aF0.0
aF0.0
aF-0.2939253848941874
aF0.13985110766593056
aF-0.10425357599303897
aF1.2455387930109838
aF2.0860418887974834
aF0.0
aF-1.5707998012129236
aF-0.21119339333095866
aF0.0
aF0.0
aF0.0
aF0.0
aF0.0
aF0.0
aF0.0
aF0.0
aF0.0
aF0.0
aF0.0
aF0.0
aF-0.01283920132786509
aF-0.11024781882692736
aF0.5699501272584158
aF1.1494443606099285
aF-0.8806490151302135
aF0.0
aF0.7671168181235251
aF-0.012164477157667442
aF0.0
aF0.0
aF0.0
aF0.0
aF0.0
aF0.0
aF0.0
aF0.0
aF0.0
aF0.0
aF0.0
aF0.0
aF0.0
aF0.0
aF1.1642115655396142e-07
aF0.0
aF1.4214122420508973e-10
aF-2.122994531107666e-22
aa(lp3
F0.0
aF0.0
aF0.0
aF0.0
aF0.0
aF0.0
aF0.0
aF0.0
aF0.0
aF0.0
aF0.0
aF0.0
aF0.0
aF0.0
aF0.0
aF-0.2939253848941874
aF0.13985110766593056
aF-0.10425357599303897
aF1.2455387930109838
aF2.0860418887974834
aF0.0
aF-1.5707998012129236
aF-0.21119339333095866
aF0.0
aF0.0
aF0.0
aF0.0
aF0.0
aF0.0
aF0.0
aF0.0
aF0.0
aF0.0
aF0.0
aF0.0
aF0.26165614246083896
aF-0.6265624522351055
aF0.8393628799200641
aF1.587992982750846
aF-0.7035098467456035
aF0.0
aF0.8999052556171439
aF0.5565939904736134
aF0.0
aF0.0
aF0.0
aF0.0
aF0.0
aF0.0
aF0.0
aF0.0
aF0.0
aF0.0
aF0.0
aF0.0
aF0.0
aF0.0
aF1.1642115655396142e-07
aF0.0
aF1.4214122420509325e-10
aF-2.590916100689611e-22
aa(lp4
F0.0
aF0.0
aF0.0
aF0.0
aF0.0
aF0.0
aF0.0
aF0.0
aF0.0
aF0.0
aF0.0
aF0.0
aF0.0
aF0.0
aF0.0
aF-0.2939253848941874
aF0.13985110766593056
aF-0.10425357599303897
aF1.2455387930109838
aF2.0860418887974834
aF0.0
aF-1.5707998012129236
aF-0.21119339333095866
aF0.0
aF0.0
aF0.0
aF0.0
aF0.0
aF0.0
aF0.0
aF0.0
aF0.0
aF0.0
aF0.0
aF0.0
aF0.4698552156727606
aF-1.0181764835611968
aF1.0437069122866198
aF1.9206230938043423
aF-0.5691534304284097
aF0.0
aF1.0006225546351986
aF0.9879855915399567
aF0.0
aF0.0
aF0.0
aF0.0
aF0.0
aF0.0
aF0.0
aF0.0
aF0.0
aF0.0
aF0.0
aF0.0
aF0.0
aF0.0
aF1.1642115655396142e-07
aF0.0
aF1.4214122420507423e-10
aF-4.3044150610320566e-24
aa(lp5
F0.0
aF0.0
aF0.0
aF0.0
aF0.0
aF0.0
aF0.0
aF0.0
aF0.0
aF0.0
aF0.0
aF0.0
aF0.0
aF0.0
aF0.0
aF-0.2939253848941874
aF0.13985110766593056
aF-0.10425357599303897
aF1.2455387930109838
aF2.0860418887974834
aF0.0
aF-1.5707998012129236
aF-0.21119339333095866
aF0.0
aF0.0
aF0.0
aF0.0
aF0.0
aF0.0
aF0.0
aF0.0
aF0.0
aF0.0
aF0.0
aF0.0
aF0.4698552156727606
aF-1.0181764835611968
aF1.0437069122866198
aF1.9206230938043423
aF-0.5691534304284097
aF0.0
aF1.0006225546351986
aF0.9879855915399567
aF0.0
aF0.0
aF0.0
aF0.0
aF0.0
aF0.0
aF0.0
aF0.0
aF0.0
aF0.0
aF0.0
aF0.0
aF0.0
aF0.0
aF1.1642115655396142e-07
aF0.0
aF1.421412242050739e-10
aF0.0
aa.