(lp0
(lp1
F0.0
aF0.0
aF0.0
aF0.0
aF0.0
aF0.0
aF0.0
aF0.0
aF0.0
aF7.79635e-20
aF0.0
aF0.0
aF0.0
aF0.0
aF0.0
aF-0.294474
aF0.140337
aF-0.102592
aF1.24606
aF2.08104
aF0.0
aF-1.5708
aF-0.212337
aF0.0
aF0.0
aF0.0
aF0.0
aF0.0
aF0.0
aF0.0
aF0.0
aF0.0
aF0.0
aF0.0
aF0.0
aF0.469855
aF-1.01818
aF1.04371
aF1.92062
aF-0.569153
aF0.0
aF1.00062
aF0.987986
aF0.0
aF0.0
aF0.0
aF0.0
aF0.0
aF0.0
aF0.0
aF0.0
aF0.0
aF0.0
aF0.0
aF0.0
aF0.0
aF0.0
aF9.4e-323
aF0.0
aF1.42141e-10
aF0.0
aa(lp2
F0.0
aF0.0
aF0.0
aF0.0
aF0.0
aF0.0
aF0.0
aF0.0
aF0.0
aF7.79635e-20
aF0.0
aF0.0
aF0.0
aF0.0
aF0.0
aF-0.294474
aF0.140337
aF-0.102592
aF1.24606
aF2.08104
aF0.0
aF-1.5708
aF-0.212337
aF0.0
aF0.0
aF0.0
aF0.0
aF0.0
aF0.0
aF0.0
aF0.0
aF0.0
aF0.0
aF0.0
aF0.0
aF0.4696345146015212
aF-1.0178941445536749
aF1.043502673143798
aF1.9201633468154398
aF-0.5688657617022532
aF0.0
aF1.000509915425172
aF0.9873261943073541
aF0.0
aF0.0
aF0.0
aF0.0
aF0.0
aF0.0
aF0.0
aF0.0
aF0.0
aF0.0
aF0.0
aF0.0
aF0.0
aF0.0
aF9.4e-323
aF0.0
aF4.986882504901622e-07
aF-1.9613681795727834e-06
aa(lp3
F0.0
aF0.0
aF0.0
aF0.0
aF0.0
aF0.0
aF0.0
aF0.0
aF0.0
aF7.79635e-20
aF0.0
aF0.0
aF0.0
aF0.0
aF0.0
aF-0.294474
aF0.140337
aF-0.102592
aF1.24606
aF2.08104
aF0.0
aF-1.5708
aF-0.212337
aF0.0
aF0.0
aF0.0
aF0.0
aF0.0
aF0.0
aF0.0
aF0.0
aF0.0
aF0.0
aF0.0
aF0.0
aF0.14795528788760165
aF-0.4833967100109402
aF0.7327484490955342
aF1.3490652660705544
aF-0.5412427415136812
aF0.0
aF0.8430222120438002
aF0.2096606843305611
aF0.0
aF0.0
aF0.0
aF0.0
aF0.0
aF0.0
aF0.0
aF0.0
aF0.0
aF0.0
aF0.0
aF0.0
aF0.0
aF0.0
aF9.4e-323
aF0.0
aF0.0002735075941009926
aF-0.0010760267084540423
aa(lp4
F0.0
aF0.0
aF0.0
aF0.0
aF0.0
aF0.0
aF0.0
aF0.0
aF0.0
aF7.79635e-20
aF0.0
aF0.0
aF0.0
aF0.0
aF0.0
aF-0.294474
aF0.140337
aF-0.102592
aF1.24606
aF2.08104
aF0.0
aF-1.5708
aF-0.212337
aF0.0
aF0.0
aF0.0
aF0.0
aF0.0
aF0.0
aF0.0
aF0.0
aF0.0
aF0.0
aF0.0
aF0.0
aF0.1355273159575717
aF-0.45840777695602186
aF0.7204369404534461
aF1.3305158417696927
aF-0.5546366995034298
aF0.0
aF0.8370530328019963
aF0.1864489504998437
aF0.0
aF0.0
aF0.0
aF0.0
aF0.0
aF0.0
aF0.0
aF0.0
aF0.0
aF0.0
aF0.0
aF0.0
aF0.0
aF0.0
aF9.4e-323
aF0.0
aF0.0002672701953292386
aF-0.0010514877009880491
aa(lp5
F0.0
aF0.0
aF0.0
aF0.0
aF0.0
aF0.0
aF0.0
aF0.0
aF0.0
aF7.79635e-20
aF0.0
aF0.0
aF0.0
aF0.0
aF0.0
aF-0.294474
aF0.140337
aF-0.102592
aF1.24606
aF2.08104
aF0.0
aF-1.5708
aF-0.212337
aF0.0
aF0.0
aF0.0
aF0.0
aF0.0
aF0.0
aF0.0
aF0.0
aF0.0
aF0.0
aF0.0
aF0.0
aF0.03203916472061471
aF-0.25018793560028624
aF0.6179089939455171
aF1.1761644238456592
aF-0.6666223805105017
aF0.0
aF0.7873510890592577
aF-0.006621563765222851
aF0.0
aF0.0
aF0.0
aF0.0
aF0.0
aF0.0
aF0.0
aF0.0
aF0.0
aF0.0
aF0.0
aF0.0
aF0.0
aF0.0
aF9.4e-323
aF0.0
aF0.00021480451749128986
aF-0.0008450786329023875
aa(lp6
F0.0
aF0.0
aF0.0
aF0.0
aF0.0
aF0.0
aF0.0
aF0.0
aF0.0
aF7.79635e-20
aF0.0
aF0.0
aF0.0
aF0.0
aF0.0
aF-0.294474
aF0.140337
aF-0.102592
aF1.24606
aF2.08104
aF0.0
aF-1.5708
aF-0.212337
aF0.0
aF0.0
aF0.0
aF0.0
aF0.0
aF0.0
aF0.0
aF0.0
aF0.0
aF0.0
aF0.0
aF0.0
aF0.0320391432069247
aF-0.2501878772645291
aF0.6179089715713426
aF1.1761644039497876
aF-0.6666224539517154
aF0.0
aF0.7873510791269035
aF-0.006621580199953124
aF0.0
aF0.0
aF0.0
aF0.0
aF0.0
aF0.0
aF0.0
aF0.0
aF0.0
aF0.0
aF0.0
aF0.0
aF0.0
aF0.0
aF9.4e-323
aF0.0
aF0.00021480444836277426
aF-0.0008450783609386951
aa(lp7
F0.0
aF0.0
aF0.0
aF0.0
aF0.0
aF0.0
aF0.0
aF0.0
aF0.0
aF7.79635e-20
aF0.0
aF0.0
aF0.0
aF0.0
aF0.0
aF-0.294474
aF0.140337
aF-0.102592
aF1.24606
aF2.08104
aF0.0
aF-1.5708
aF-0.212337
aF0.0
aF0.0
aF0.0
aF0.0
aF0.0
aF0.0
aF0.0
aF0.0
aF0.0
aF0.0
aF0.0
aF0.0
aF-0.010282739824120755
aF-0.11824079973810458
aF0.5726835923244967
aF1.1509491739983007
aF-0.8683858015633744
aF0.0
aF0.7682688805785773
aF-0.011882047995733053
aF0.0
aF0.0
aF0.0
aF0.0
aF0.0
aF0.0
aF0.0
aF0.0
aF0.0
aF0.0
aF0.0
aF0.0
aF0.0
aF0.0
aF9.4e-323
aF0.0
aF1.231894117193545e-05
aF-4.846487443686487e-05
aa(lp8
F0.0
aF0.0
aF0.0
aF0.0
aF0.0
aF0.0
aF0.0
aF0.0
aF0.0
aF7.79635e-20
aF0.0
aF0.0
aF0.0
aF0.0
aF0.0
aF-0.294474
aF0.140337
aF-0.102592
aF1.24606
aF2.08104
aF0.0
aF-1.5708
aF-0.212337
aF0.0
aF0.0
aF0.0
aF0.0
aF0.0
aF0.0
aF0.0
aF0.0
aF0.0
aF0.0
aF0.0
aF0.0
aF-0.012833465873761779
aF-0.1102883903243905
aF0.5699578733523465
aF1.1494294621192878
aF-0.880546019880643
aF0.0
aF0.767118802771098
aF-0.012199091201212375
aF0.0
aF0.0
aF0.0
aF0.0
aF0.0
aF0.0
aF0.0
aF0.0
aF0.0
aF0.0
aF0.0
aF0.0
aF0.0
aF0.0
aF9.4e-323
aF0.0
aF1.151973535059115e-07
aF-4.532066071656163e-07
aa(lp9
F0.0
aF0.0
aF0.0
aF0.0
aF0.0
aF0.0
aF0.0
aF0.0
aF0.0
aF7.79635e-20
aF0.0
aF0.0
aF0.0
aF0.0
aF0.0
aF-0.294474
aF0.140337
aF-0.102592
aF1.24606
aF2.08104
aF0.0
aF-1.5708
aF-0.212337
aF0.0
aF0.0
aF0.0
aF0.0
aF0.0
aF0.0
aF0.0
aF0.0
aF0.0
aF0.0
aF0.0
aF0.0
aF-0.012839204326663634
aF-0.1102478188269238
aF0.5699501436065937
aF1.1494444162971922
aF-0.8806489716171404
aF0.0
aF0.7671168181591828
aF-0.012164084921415075
aF0.0
aF0.0
aF0.0
aF0.0
aF0.0
aF0.0
aF0.0
aF0.0
aF0.0
aF0.0
aF0.0
aF0.0
aF0.0
aF0.0
aF9.4e-323
aF0.0
aF0.0
aF0.0
aa.