(lp0
(lp1
F0.0
aF0.0
aF0.0
aF0.0
aF0.0
aF0.0
aF0.0
aF0.0
aF0.0
aF0.0
aF0.0
aF0.0
aF0.0
aF0.0
aF0.0
aF-0.2939254498744921
aF0.13985110766592734
aF-0.10425356875831301
aF1.2455388203390922
aF2.086042094397949
aF0.0
aF-1.5707998011888655
aF-0.21119339333093534
aF0.0
aF0.0
aF0.0
aF0.0
aF0.0
aF0.0
aF0.0
aF0.0
aF0.0
aF0.0
aF0.0
aF0.0
aF0.2776404174975238
aF-0.36695399395695505
aF1.5801338902185027
aF1.896293758344236
aF-1.2189522190776407
aF0.0
aF1.46406595448285
aF1.3712188091315647
aF0.0
aF0.0
aF0.0
aF0.0
aF0.0
aF0.0
aF0.0
aF0.0
aF0.0
aF0.0
aF0.0
aF0.0
aF0.0
aF0.0
aF0.0
aF0.0
aF0.0
aF0.0
aa(lp2
F0.0
aF0.0
aF0.0
aF0.0
aF0.0
aF0.0
aF0.0
aF0.0
aF0.0
aF0.0
aF0.0
aF0.0
aF0.0
aF0.0
aF0.0
aF-0.2939254498744921
aF0.13985110766592734
aF-0.10425356875831301
aF1.2455388203390922
aF2.086042094397949
aF0.0
aF-1.5707998011888655
aF-0.21119339333093534
aF0.0
aF0.0
aF0.0
aF0.0
aF0.0
aF0.0
aF0.0
aF0.0
aF0.0
aF0.0
aF0.0
aF0.0
aF0.2776392118035066
aF-0.366955461238679
aF1.5801339896041506
aF1.8962926884136477
aF-1.2189539825889935
aF0.0
aF1.4640633198712005
aF1.3712193342213752
aF0.0
aF0.0
aF0.0
aF0.0
aF0.0
aF0.0
aF0.0
aF0.0
aF0.0
aF0.0
aF0.0
aF0.0
aF0.0
aF0.0
aF0.0
aF0.0
aF1.9142341875773936e-08
aF-2.5900636545799875e-08
aa(lp3
F0.0
aF0.0
aF0.0
aF0.0
aF0.0
aF0.0
aF0.0
aF0.0
aF0.0
aF0.0
aF0.0
aF0.0
aF0.0
aF0.0
aF0.0
aF-0.2939254498744921
aF0.13985110766592734
aF-0.10425356875831301
aF1.2455388203390922
aF2.086042094397949
aF0.0
aF-1.5707998011888655
aF-0.21119339333093534
aF0.0
aF0.0
aF0.0
aF0.0
aF0.0
aF0.0
aF0.0
aF0.0
aF0.0
aF0.0
aF0.0
aF0.0
aF0.017071572234982804
aF-0.13682118873173468
aF0.6742874984895979
aF1.2265072478894434
aF-0.9156956009474755
aF0.0
aF0.8389861007742396
aF0.13073876787737604
aF0.0
aF0.0
aF0.0
aF0.0
aF0.0
aF0.0
aF0.0
aF0.0
aF0.0
aF0.0
aF0.0
aF0.0
aF0.0
aF0.0
aF0.0
aF0.0
aF9.412350854345589e-07
aF-1.4436725561491075e-06
aa(lp4
F0.0
aF0.0
aF0.0
aF0.0
aF0.0
aF0.0
aF0.0
aF0.0
aF0.0
aF0.0
aF0.0
aF0.0
aF0.0
aF0.0
aF0.0
aF-0.2939254498744921
aF0.13985110766592734
aF-0.10425356875831301
aF1.2455388203390922
aF2.086042094397949
aF0.0
aF-1.5707998011888655
aF-0.21119339333093534
aF0.0
aF0.0
aF0.0
aF0.0
aF0.0
aF0.0
aF0.0
aF0.0
aF0.0
aF0.0
aF0.0
aF0.0
aF0.014948480474929676
aF-0.13493520257371425
aF0.6668821201634346
aF1.221037558870262
aF-0.9132083237955837
aF0.0
aF0.8338850168772072
aF0.12059621774196595
aF0.0
aF0.0
aF0.0
aF0.0
aF0.0
aF0.0
aF0.0
aF0.0
aF0.0
aF0.0
aF0.0
aF0.0
aF0.0
aF0.0
aF0.0
aF0.0
aF8.757292227389398e-07
aF-1.3434095056810786e-06
aa(lp5
F0.0
aF0.0
aF0.0
aF0.0
aF0.0
aF0.0
aF0.0
aF0.0
aF0.0
aF0.0
aF0.0
aF0.0
aF0.0
aF0.0
aF0.0
aF-0.2939254498744921
aF0.13985110766592734
aF-0.10425356875831301
aF1.2455388203390922
aF2.086042094397949
aF0.0
aF-1.5707998011888655
aF-0.21119339333093534
aF0.0
aF0.0
aF0.0
aF0.0
aF0.0
aF0.0
aF0.0
aF0.0
aF0.0
aF0.0
aF0.0
aF0.0
aF0.014293249105514433
aF-0.1343530809776025
aF0.6645964927494159
aF1.2193494095414366
aF-0.9124405886038277
aF0.0
aF0.8323106424877118
aF0.11746576939411572
aF0.0
aF0.0
aF0.0
aF0.0
aF0.0
aF0.0
aF0.0
aF0.0
aF0.0
aF0.0
aF0.0
aF0.0
aF0.0
aF0.0
aF0.0
aF0.0
aF8.550985081307692e-07
aF-1.3117838215776682e-06
aa(lp6
F0.0
aF0.0
aF0.0
aF0.0
aF0.0
aF0.0
aF0.0
aF0.0
aF0.0
aF0.0
aF0.0
aF0.0
aF0.0
aF0.0
aF0.0
aF-0.2939254498744921
aF0.13985110766592734
aF-0.10425356875831301
aF1.2455388203390922
aF2.086042094397949
aF0.0
aF-1.5707998011888655
aF-0.21119339333093534
aF0.0
aF0.0
aF0.0
aF0.0
aF0.0
aF0.0
aF0.0
aF0.0
aF0.0
aF0.0
aF0.0
aF0.0
aF-0.012839209486120242
aF-0.11024781878257431
aF0.5699501447706299
aF1.149444413335166
aF-0.8806489763669467
aF0.0
aF0.767116818998653
aF-0.012164082933437868
aF0.0
aF0.0
aF0.0
aF0.0
aF0.0
aF0.0
aF0.0
aF0.0
aF0.0
aF0.0
aF0.0
aF0.0
aF0.0
aF0.0
aF0.0
aF0.0
aF1.727002725375057e-11
aF-4.7507328424003536e-11
aa(lp7
F0.0
aF0.0
aF0.0
aF0.0
aF0.0
aF0.0
aF0.0
aF0.0
aF0.0
aF0.0
aF0.0
aF0.0
aF0.0
aF0.0
aF0.0
aF-0.2939254498744921
aF0.13985110766592734
aF-0.10425356875831301
aF1.2455388203390922
aF2.086042094397949
aF0.0
aF-1.5707998011888655
aF-0.21119339333093534
aF0.0
aF0.0
aF0.0
aF0.0
aF0.0
aF0.0
aF0.0
aF0.0
aF0.0
aF0.0
aF0.0
aF0.0
aF-0.012839204326663634
aF-0.1102478188269238
aF0.5699501436065937
aF1.1494444162971922
aF-0.8806489716171404
aF0.0
aF0.7671168181591828
aF-0.012164084921415075
aF0.0
aF0.0
aF0.0
aF0.0
aF0.0
aF0.0
aF0.0
aF0.0
aF0.0
aF0.0
aF0.0
aF0.0
aF0.0
aF0.0
aF0.0
aF0.0
aF0.0
aF0.0
aa.